
/home/mohit/ws/arm-trusted-firmware/build/rk3399/release/bl31/bl31.elf:     file format elf64-littleaarch64
/home/mohit/ws/arm-trusted-firmware/build/rk3399/release/bl31/bl31.elf
architecture: aarch64, flags 0x00000112:
EXEC_P, HAS_SYMS, D_PAGED
start address 0x0000000000040000

Program Header:
    LOAD off    0x0000000000010000 vaddr 0x0000000000040000 paddr 0x0000000000040000 align 2**16
         filesz 0x0000000000022062 memsz 0x0000000000062000 flags rwx
    LOAD off    0x0000000000040000 vaddr 0x00000000ff3b0000 paddr 0x00000000ff3b0000 align 2**16
         filesz 0x0000000000001f54 memsz 0x0000000000001f54 flags rwx
    LOAD off    0x0000000000050000 vaddr 0x00000000ff8c0000 paddr 0x00000000ff8c0000 align 2**16
         filesz 0x0000000000002000 memsz 0x0000000000003000 flags rwx
   STACK off    0x0000000000000000 vaddr 0x0000000000000000 paddr 0x0000000000000000 align 2**4
         filesz 0x0000000000000000 memsz 0x0000000000000000 flags rw-
private flags = 0:

Sections:
Idx Name          Size      VMA               LMA               File off  Algn
  0 .incbin_sram  00001000  00000000ff8c0000  00000000ff8c0000  00050000  2**12
                  CONTENTS, ALLOC, LOAD, READONLY, DATA
  1 .comment      0000002a  0000000000000000  0000000000000000  00052000  2**0
                  CONTENTS, READONLY
  2 .text_sram    00001000  00000000ff8c1000  00000000ff8c1000  00051000  2**12
                  CONTENTS, ALLOC, LOAD, READONLY, CODE
  3 .data_sram    00000000  00000000ff8c2000  00000000ff8c2000  00053000  2**12
                  CONTENTS
  4 .stack_sram   00001000  00000000ff8c2000  00000000ff8c2000  00052000  2**12
                  ALLOC
  5 .pmusram      00001f54  00000000ff3b0000  00000000ff3b0000  00040000  2**4
                  CONTENTS, ALLOC, LOAD, CODE
  6 ro            00022000  0000000000040000  0000000000040000  00010000  2**16
                  CONTENTS, ALLOC, LOAD, CODE
  7 .data         00000062  0000000000062000  0000000000062000  00032000  2**3
                  CONTENTS, ALLOC, LOAD, DATA
  8 stacks        00003000  0000000000062080  0000000000062080  00032062  2**6
                  ALLOC
  9 .bss          00027b80  0000000000065080  0000000000065080  00032062  2**6
                  ALLOC
 10 xlat_table    00014000  000000000008d000  000000000008d000  00032062  2**12
                  ALLOC
 11 coherent_ram  00001000  00000000000a1000  00000000000a1000  00032062  2**12
                  ALLOC
 12 .debug_frame  00000f50  0000000000000000  0000000000000000  00053000  2**3
                  CONTENTS, READONLY, DEBUGGING, OCTETS
SYMBOL TABLE:
00000000ff8c0000 l    d  .incbin_sram	0000000000000000 .incbin_sram
0000000000000000 l    d  .comment	0000000000000000 .comment
00000000ff8c1000 l    d  .text_sram	0000000000000000 .text_sram
00000000ff8c2000 l    d  .data_sram	0000000000000000 .data_sram
00000000ff8c2000 l    d  .stack_sram	0000000000000000 .stack_sram
00000000ff3b0000 l    d  .pmusram	0000000000000000 .pmusram
0000000000040000 l    d  ro	0000000000000000 ro
0000000000062000 l    d  .data	0000000000000000 .data
0000000000062080 l    d  stacks	0000000000000000 stacks
0000000000065080 l    d  .bss	0000000000000000 .bss
000000000008d000 l    d  xlat_table	0000000000000000 xlat_table
00000000000a1000 l    d  coherent_ram	0000000000000000 coherent_ram
0000000000000000 l    d  .debug_frame	0000000000000000 .debug_frame
0000000000000000 l    df *ABS*	0000000000000000 pmu_fw.c
0000000000000000 l    df *ABS*	0000000000000000 
0000000000000000 l    df *ABS*	0000000000000000 /home/mohit/ws/arm-trusted-firmware/build/rk3399/release/bl31/plat_helpers.o
00000000ff8c102c l       .text_sram	0000000000000000 check_ddrc0_1_sref_enter
00000000ff8c1068 l       .text_sram	0000000000000000 check_ddrc0_1_sref_exit
000000000005dff8 l       ro	0000000000000000 handler_a72
000000000005e004 l       ro	0000000000000000 handler_end
0000000000050038 l       ro	0000000000000000 clst_warmboot_end
0000000000050060 l       ro	0000000000000000 boot_entry
0000000000050058 l       ro	0000000000000000 wfe_loop
0000000000000000 l    df *ABS*	0000000000000000 /home/mohit/ws/arm-trusted-firmware/build/rk3399/release/bl31/pmu_sram_cpus_on.o
00000000ff3b0000 l       .pmusram	0000000000000000 ddr_resume
00000000ff3b0010 l       .pmusram	0000000000000000 sys_resume
0000000000000000 l    df *ABS*	0000000000000000 suspend.c
00000000ff3b0058 l     F .pmusram	0000000000000024 sram_regcpy
0000000000058620 l     F ro	0000000000000024 dram_regcpy
00000000ff3b007c l     F .pmusram	0000000000000030 sram_udelay
00000000ff3b00ac l     F .pmusram	0000000000000048 rkclk_ddr_reset
00000000ff3b00f4 l     F .pmusram	0000000000000054 select_per_cs_training_index
00000000ff3b0148 l     F .pmusram	00000000000004f8 data_training.constprop.0
0000000000000000 l    df *ABS*	0000000000000000 secure.c
0000000000000000 l    df *ABS*	0000000000000000 soc.c
000000000005c778 l     F ro	0000000000000078 restore_pll.constprop.0
0000000000069a04 l     O .bss	0000000000000158 slp_data
0000000000000000 l    df *ABS*	0000000000000000 dram.c
0000000000000000 l    df *ABS*	0000000000000000 /home/mohit/ws/arm-trusted-firmware/build/rk3399/release/bl31/bl31_entrypoint.o
0000000000000000 l    df *ABS*	0000000000000000 bl31_context_mgmt.c
0000000000000000 l    df *ABS*	0000000000000000 bl31_main.c
0000000000065f40 l     O .bss	0000000000000008 bl32_init
0000000000062028 l     O .data	0000000000000004 next_image_type
000000000005fa88 l     O ro	0000000000000010 psci_args.3041
0000000000000000 l    df *ABS*	0000000000000000 interrupt_mgmt.c
0000000000065f48 l     O .bss	0000000000000060 intr_type_descs
0000000000000000 l    df *ABS*	0000000000000000 runtime_svc.c
0000000000000000 l    df *ABS*	0000000000000000 cci.c
0000000000065fa8 l     O .bss	0000000000000008 cci_base
0000000000065fb0 l     O .bss	0000000000000008 cci_slave_if_map
0000000000000000 l    df *ABS*	0000000000000000 arm_gicv3_common.c
0000000000000000 l    df *ABS*	0000000000000000 gic-x00.c
0000000000000000 l    df *ABS*	0000000000000000 gicdv3_helpers.c
0000000000000000 l    df *ABS*	0000000000000000 gicrv3_helpers.c
0000000000000000 l    df *ABS*	0000000000000000 gicv3_helpers.c
0000000000000000 l    df *ABS*	0000000000000000 gicv3_main.c
0000000000050aac l     F ro	000000000000000c gicd_wait_for_pending_write
0000000000050aac l     F ro	000000000000000c gicr_wait_for_upstream_pending_write
0000000000050ab8 l     F ro	000000000000000c gicr_wait_for_pending_write
0000000000000000 l    df *ABS*	0000000000000000 delay_timer.c
0000000000065fc0 l     O .bss	0000000000000008 timer_ops
0000000000000000 l    df *ABS*	0000000000000000 generic_delay_timer.c
00000000000513d0 l     F ro	000000000000000c get_timer_value
0000000000065fc8 l     O .bss	0000000000000010 ops
0000000000000000 l    df *ABS*	0000000000000000 gpio.c
0000000000065fd8 l     O .bss	0000000000000008 ops
0000000000000000 l    df *ABS*	0000000000000000 context_mgmt.c
0000000000000000 l    df *ABS*	0000000000000000 spe.c
000000000005180c l     F ro	0000000000000030 spe_drain_buffers_hook
0000000000000000 l    df *ABS*	0000000000000000 bakery_lock_coherent.c
0000000000000000 l    df *ABS*	0000000000000000 psci_common.c
0000000000069be0 l     O .bss	000000000000000c psci_req_local_pwr_states
0000000000000000 l    df *ABS*	0000000000000000 psci_main.c
0000000000000000 l    df *ABS*	0000000000000000 psci_mem_protect.c
0000000000000000 l    df *ABS*	0000000000000000 psci_off.c
0000000000000000 l    df *ABS*	0000000000000000 psci_on.c
0000000000000000 l    df *ABS*	0000000000000000 psci_setup.c
0000000000065220 l     O .bss	0000000000000d20 psci_ns_context
0000000000000000 l    df *ABS*	0000000000000000 psci_suspend.c
0000000000000000 l    df *ABS*	0000000000000000 psci_system_off.c
0000000000000000 l    df *ABS*	0000000000000000 plat_gicv3.c
00000000000600d9 l     O ro	0000000000000004 CSWTCH.11
0000000000000000 l    df *ABS*	0000000000000000 platform_common.c
000000000005fc54 l     O ro	0000000000000008 cci_map
0000000000000000 l    df *ABS*	0000000000000000 bl31_plat_setup.c
0000000000066050 l     O .bss	0000000000000058 bl32_ep_info
00000000000660a8 l     O .bss	0000000000000058 bl33_ep_info
0000000000066100 l     O .bss	0000000000000030 console.3033
0000000000000000 l    df *ABS*	0000000000000000 params_setup.c
0000000000053294 l     F ro	00000000000000d8 rk_aux_param_handler
0000000000069bec l     O .bss	0000000000020000 fdt_buffer
0000000000089bec l     O .bss	0000000000000001 suspend_apio
0000000000068c58 l     O .bss	0000000000000050 suspend_gpio
000000000006202c l     O .data	0000000000000008 poweroff_gpio
0000000000062034 l     O .data	0000000000000004 rk_uart_base
0000000000062038 l     O .data	0000000000000004 rk_uart_baudrate
000000000006203c l     O .data	0000000000000008 rst_gpio
0000000000000000 l    df *ABS*	0000000000000000 plat_pm.c
0000000000053758 l     F ro	000000000000000c rockchip_system_reset
0000000000053764 l     F ro	000000000000000c rockchip_system_poweroff
0000000000053788 l     F ro	000000000000001c rockchip_pd_pwr_down_wfi
0000000000066130 l     O .bss	0000000000000008 rockchip_sec_entrypoint
0000000000000000 l    df *ABS*	0000000000000000 plat_topology.c
0000000000000000 l    df *ABS*	0000000000000000 rockchip_gicv3.c
00000000000537f0 l     F ro	0000000000000004 plat_rockchip_mpidr_to_core_pos
000000000005fc60 l     O ro	0000000000000008 g01s_interrupt_props
0000000000000000 l    df *ABS*	0000000000000000 rockchip_sip_svc.c
00000000000603e0 l     O ro	0000000000000020 __svc_desc_rockchip_sip_svc
0000000000000000 l    df *ABS*	0000000000000000 dfs.c
00000000000538e8 l     F ro	0000000000000068 get_rdlat_adj
0000000000053950 l     F ro	0000000000000068 get_wrlat_adj
00000000000539b8 l     F ro	0000000000000074 get_pi_rdlat_adj
0000000000053a2c l     F ro	00000000000000d8 gen_rk3399_set_odt
0000000000053b04 l     F ro	000000000000003c to_get_clk_index
0000000000053b40 l     F ro	0000000000000050 get_pi_wrlat.isra.0.part.0
0000000000053b90 l     F ro	000000000000003c get_pi_todtoff_min.isra.0
0000000000053bcc l     F ro	0000000000000030 get_pi_todtoff_max.isra.0
0000000000053bfc l     F ro	00000000000000c8 get_pi_tdfi_phy_rdlat.isra.0
0000000000053cc4 l     F ro	0000000000000038 get_pi_wrlat_adj.constprop.0
0000000000053cfc l     F ro	0000000000002628 prepare_ddr_timing
0000000000068cac l     O .bss	0000000000000004 rddqs_delay_ps
0000000000068cb0 l     O .bss	0000000000000088 rk3399_dram_status
0000000000068d38 l     O .bss	000000000000000c rk3399_suspend_status
0000000000068d44 l     O .bss	0000000000000040 wrdqs_delay_val
000000000005fcc8 l     O ro	00000000000000fc dpll_rates_table
0000000000000000 l    df *ABS*	0000000000000000 dram_spec_timing.c
00000000000570b4 l     F ro	000000000000004c get_max_die_capability
000000000006018d l     O ro	000000000000009a ddr3_cl_cwl
000000000005ff4a l     O ro	000000000000002c ddr3_trc_tfaw
0000000000000000 l    df *ABS*	0000000000000000 rk3399_gpio.c
000000000005884c l     F ro	0000000000000090 gpio_get_clock
0000000000058950 l     F ro	00000000000000c4 get_pull
0000000000058a14 l     F ro	00000000000000f0 set_pull
0000000000058b04 l     F ro	000000000000006c set_value
0000000000058b70 l     F ro	0000000000000058 get_value
0000000000058bc8 l     F ro	0000000000000064 set_direction
0000000000058c2c l     F ro	000000000000005c get_direction
0000000000068de4 l     O .bss	0000000000000190 store_grf_gpio
0000000000000000 l    df *ABS*	0000000000000000 m0_ctl.c
0000000000000000 l    df *ABS*	0000000000000000 pmu.c
0000000000058fc0 l     F ro	0000000000000020 pmu_power_domain_st
0000000000058fe0 l     F ro	00000000000000ac pmu_power_domain_ctr
000000000005908c l     F ro	00000000000000a4 clst_pwr_domain_suspend
0000000000059130 l     F ro	0000000000000054 clst_pwr_domain_resume
0000000000059184 l     F ro	0000000000000094 pmu_bus_idle_req
0000000000059218 l     F ro	0000000000000138 pmu_set_power_domain
0000000000089bed l     O .bss	0000000000003000 store_sram
0000000000066168 l     O .bss	0000000000002720 dist_ctx
0000000000068f74 l     O .bss	0000000000000004 clk_ddrc_save
0000000000068f78 l     O .bss	0000000000000004 cpu_warm_boot_addr
0000000000068f7c l     O .bss	0000000000000004 gpio_2_4_clk_gate
0000000000068f80 l     O .bss	000000000000000c gpio_direction
0000000000068f8c l     O .bss	0000000000000030 iomux_status
0000000000068fbc l     O .bss	0000000000000004 pmu_powerdomain_state
00000000000693b0 l     O .bss	0000000000000030 pull_mode_status
0000000000068888 l     O .bss	0000000000000058 rdist_ctx
00000000000693e0 l     O .bss	0000000000000590 store_cru
0000000000069970 l     O .bss	0000000000000010 store_grf_ddrc_con
0000000000069980 l     O .bss	0000000000000004 store_grf_io_vsel
0000000000069984 l     O .bss	0000000000000004 store_grf_soc_con0
0000000000069988 l     O .bss	0000000000000004 store_grf_soc_con1
000000000006998c l     O .bss	0000000000000004 store_grf_soc_con2
0000000000069990 l     O .bss	0000000000000004 store_grf_soc_con3
0000000000069994 l     O .bss	0000000000000004 store_grf_soc_con4
0000000000069998 l     O .bss	0000000000000004 store_grf_soc_con7
000000000006999c l     O .bss	000000000000001c store_usbphy0
00000000000699b8 l     O .bss	000000000000001c store_usbphy1
00000000000699d4 l     O .bss	0000000000000008 store_wdt0
00000000000699dc l     O .bss	0000000000000008 store_wdt1
00000000000699e4 l     O .bss	0000000000000018 uart_save
000000000006025c l     O ro	0000000000000010 __func__.4186
000000000006026c l     O ro	0000000000000020 __func__.4408
000000000006028c l     O ro	000000000000001f __func__.4417
00000000000a10b4 l     O coherent_ram	0000000000000018 core_pm_cfg_info
0000000000000000 l    df *ABS*	0000000000000000 pwm.c
00000000000699fc l     O .bss	0000000000000008 pwm_data
0000000000000000 l    df *ABS*	0000000000000000 plat_sip_calls.c
00000000000602ca l     O ro	000000000000001a __func__.2898
0000000000000000 l    df *ABS*	0000000000000000 arm_arch_svc_setup.c
000000000005cca4 l     F ro	0000000000000120 arm_arch_svc_smc_handler
0000000000060400 l     O ro	0000000000000020 __svc_desc_arm_arch_svc
0000000000000000 l    df *ABS*	0000000000000000 std_svc_setup.c
000000000005cdc4 l     F ro	0000000000000024 std_svc_setup
000000000005cde8 l     F ro	00000000000000a4 std_svc_smc_handler
0000000000060420 l     O ro	0000000000000020 __svc_desc_std_svc
0000000000000000 l    df *ABS*	0000000000000000 bl_common.c
0000000000000000 l    df *ABS*	0000000000000000 tf_log.c
0000000000062058 l     O .data	0000000000000004 max_log_level
0000000000000000 l    df *ABS*	0000000000000000 multi_console.c
0000000000000000 l    df *ABS*	0000000000000000 plat_bl_common.c
0000000000000000 l    df *ABS*	0000000000000000 plat_log_common.c
000000000005fc00 l     O ro	0000000000000028 plat_prefix_str
0000000000000000 l    df *ABS*	0000000000000000 plat_common.c
0000000000000000 l    df *ABS*	0000000000000000 desc_image_load.c
0000000000000000 l    df *ABS*	0000000000000000 bl_aux_params.c
0000000000000000 l    df *ABS*	0000000000000000 xlat_tables_common.c
000000000005d258 l     F ro	00000000000001e4 init_xlation_table_inner
000000000008d000 l     O xlat_table	0000000000014000 xlat_tables
00000000000688e8 l     O .bss	0000000000000008 ap1_mask
00000000000688f0 l     O .bss	0000000000000008 execute_never_mask
00000000000688f8 l     O .bss	0000000000000340 mmap
0000000000069b5c l     O .bss	0000000000000004 next_xlat
0000000000068c38 l     O .bss	0000000000000008 xlat_max_pa
0000000000068c40 l     O .bss	0000000000000008 xlat_max_va
0000000000000000 l    df *ABS*	0000000000000000 xlat_tables.c
0000000000065200 l     O .bss	0000000000000020 base_xlation_table
0000000000068c48 l     O .bss	0000000000000008 tcr_ps_bits
0000000000000000 l    df *ABS*	0000000000000000 plat_psci_common.c
0000000000000000 l    df *ABS*	0000000000000000 /home/mohit/ws/arm-trusted-firmware/build/rk3399/release/bl31/crash_reporting.o
0000000000000000 l    df *ABS*	0000000000000000 /home/mohit/ws/arm-trusted-firmware/build/rk3399/release/bl31/ea_delegate.o
0000000000000008 l       *ABS*	0000000000000000 CPU_MIDR_SIZE
0000000000000008 l       *ABS*	0000000000000000 CPU_EXTRA1_FUNC_SIZE
0000000000000008 l       *ABS*	0000000000000000 CPU_EXTRA2_FUNC_SIZE
0000000000000008 l       *ABS*	0000000000000000 CPU_E_HANDLER_FUNC_SIZE
0000000000000008 l       *ABS*	0000000000000000 CPU_RESET_FUNC_SIZE
0000000000000010 l       *ABS*	0000000000000000 CPU_PWR_DWN_OPS_SIZE
0000000000000000 l       *ABS*	0000000000000000 CPU_ERRATA_FUNC_SIZE
0000000000000000 l       *ABS*	0000000000000000 CPU_ERRATA_LOCK_SIZE
0000000000000000 l       *ABS*	0000000000000000 CPU_ERRATA_PRINTED_SIZE
0000000000000000 l       *ABS*	0000000000000000 CPU_REG_DUMP_SIZE
0000000000000000 l       *ABS*	0000000000000000 CPU_MIDR
0000000000000008 l       *ABS*	0000000000000000 CPU_RESET_FUNC
0000000000000010 l       *ABS*	0000000000000000 CPU_EXTRA1_FUNC
0000000000000018 l       *ABS*	0000000000000000 CPU_EXTRA2_FUNC
0000000000000020 l       *ABS*	0000000000000000 CPU_E_HANDLER_FUNC
0000000000000028 l       *ABS*	0000000000000000 CPU_PWR_DWN_OPS
0000000000000038 l       *ABS*	0000000000000000 CPU_ERRATA_FUNC
0000000000000038 l       *ABS*	0000000000000000 CPU_ERRATA_LOCK
0000000000000038 l       *ABS*	0000000000000000 CPU_ERRATA_PRINTED
0000000000000038 l       *ABS*	0000000000000000 CPU_REG_DUMP
0000000000000038 l       *ABS*	0000000000000000 CPU_OPS_SIZE
000000000005d7e4 l     F ro	0000000000000068 ea_proceed
000000000005d7dc l     F ro	0000000000000004 delegate_sync_ea
000000000005d7e0 l     F ro	0000000000000004 delegate_async_ea
0000000000000000 l    df *ABS*	0000000000000000 /home/mohit/ws/arm-trusted-firmware/build/rk3399/release/bl31/runtime_exceptions.o
0000000000060b90 l       ro	0000000000000000 exp_from_EL3
000000000005d84c l       ro	0000000000000000 smc_handler32
000000000005d850 l       ro	0000000000000000 smc_handler64
0000000000060cec l       ro	0000000000000000 interrupt_exit_irq_aarch64
0000000000060d6c l       ro	0000000000000000 interrupt_exit_fiq_aarch64
0000000000060eec l       ro	0000000000000000 interrupt_exit_irq_aarch32
0000000000060f6c l       ro	0000000000000000 interrupt_exit_fiq_aarch32
000000000005d84c l     F ro	0000000000000088 smc_handler
000000000005d8bc l       ro	0000000000000000 smc_prohibited
000000000005d8b0 l       ro	0000000000000000 smc_unknown
0000000000000000 l    df *ABS*	0000000000000000 /home/mohit/ws/arm-trusted-firmware/build/rk3399/release/bl31/16550_console.o
000000000005d93c l       ro	0000000000000000 init_fail
000000000005d998 l       ro	0000000000000000 register_fail
000000000005d960 l       ro	0000000000000000 register_16550
000000000005d9ec l       ro	0000000000000000 no_char
0000000000000000 l    df *ABS*	0000000000000000 /home/mohit/ws/arm-trusted-firmware/build/rk3399/release/bl31/cortex_a53.o
0000000000000008 l       *ABS*	0000000000000000 CPU_MIDR_SIZE
0000000000000008 l       *ABS*	0000000000000000 CPU_EXTRA1_FUNC_SIZE
0000000000000008 l       *ABS*	0000000000000000 CPU_EXTRA2_FUNC_SIZE
0000000000000008 l       *ABS*	0000000000000000 CPU_E_HANDLER_FUNC_SIZE
0000000000000008 l       *ABS*	0000000000000000 CPU_RESET_FUNC_SIZE
0000000000000010 l       *ABS*	0000000000000000 CPU_PWR_DWN_OPS_SIZE
0000000000000000 l       *ABS*	0000000000000000 CPU_ERRATA_FUNC_SIZE
0000000000000000 l       *ABS*	0000000000000000 CPU_ERRATA_LOCK_SIZE
0000000000000000 l       *ABS*	0000000000000000 CPU_ERRATA_PRINTED_SIZE
0000000000000000 l       *ABS*	0000000000000000 CPU_REG_DUMP_SIZE
0000000000000000 l       *ABS*	0000000000000000 CPU_MIDR
0000000000000008 l       *ABS*	0000000000000000 CPU_RESET_FUNC
0000000000000010 l       *ABS*	0000000000000000 CPU_EXTRA1_FUNC
0000000000000018 l       *ABS*	0000000000000000 CPU_EXTRA2_FUNC
0000000000000020 l       *ABS*	0000000000000000 CPU_E_HANDLER_FUNC
0000000000000028 l       *ABS*	0000000000000000 CPU_PWR_DWN_OPS
0000000000000038 l       *ABS*	0000000000000000 CPU_ERRATA_FUNC
0000000000000038 l       *ABS*	0000000000000000 CPU_ERRATA_LOCK
0000000000000038 l       *ABS*	0000000000000000 CPU_ERRATA_PRINTED
0000000000000038 l       *ABS*	0000000000000000 CPU_REG_DUMP
0000000000000038 l       *ABS*	0000000000000000 CPU_OPS_SIZE
000000000005da18 l     F ro	0000000000000014 cortex_a53_disable_dcache
000000000005da2c l     F ro	0000000000000018 cortex_a53_disable_smp
000000000005da44 l     F ro	000000000000001c a53_disable_non_temporal_hint
000000000005da60 l     F ro	0000000000000008 check_errata_disable_non_temporal_hint
000000000005da68 l     F ro	000000000000001c errata_a53_855873_wa
000000000005da84 l     F ro	0000000000000008 check_errata_855873
000000000005da8c l     F ro	0000000000000030 cortex_a53_reset_func
000000000005dabc l     F ro	0000000000000018 cortex_a53_core_pwr_dwn
000000000005dad4 l     F ro	0000000000000024 cortex_a53_cluster_pwr_dwn
0000000000000000 l    df *ABS*	0000000000000000 /home/mohit/ws/arm-trusted-firmware/build/rk3399/release/bl31/cortex_a72.o
0000000000000008 l       *ABS*	0000000000000000 CPU_MIDR_SIZE
0000000000000008 l       *ABS*	0000000000000000 CPU_EXTRA1_FUNC_SIZE
0000000000000008 l       *ABS*	0000000000000000 CPU_EXTRA2_FUNC_SIZE
0000000000000008 l       *ABS*	0000000000000000 CPU_E_HANDLER_FUNC_SIZE
0000000000000008 l       *ABS*	0000000000000000 CPU_RESET_FUNC_SIZE
0000000000000010 l       *ABS*	0000000000000000 CPU_PWR_DWN_OPS_SIZE
0000000000000000 l       *ABS*	0000000000000000 CPU_ERRATA_FUNC_SIZE
0000000000000000 l       *ABS*	0000000000000000 CPU_ERRATA_LOCK_SIZE
0000000000000000 l       *ABS*	0000000000000000 CPU_ERRATA_PRINTED_SIZE
0000000000000000 l       *ABS*	0000000000000000 CPU_REG_DUMP_SIZE
0000000000000000 l       *ABS*	0000000000000000 CPU_MIDR
0000000000000008 l       *ABS*	0000000000000000 CPU_RESET_FUNC
0000000000000010 l       *ABS*	0000000000000000 CPU_EXTRA1_FUNC
0000000000000018 l       *ABS*	0000000000000000 CPU_EXTRA2_FUNC
0000000000000020 l       *ABS*	0000000000000000 CPU_E_HANDLER_FUNC
0000000000000028 l       *ABS*	0000000000000000 CPU_PWR_DWN_OPS
0000000000000038 l       *ABS*	0000000000000000 CPU_ERRATA_FUNC
0000000000000038 l       *ABS*	0000000000000000 CPU_ERRATA_LOCK
0000000000000038 l       *ABS*	0000000000000000 CPU_ERRATA_PRINTED
0000000000000038 l       *ABS*	0000000000000000 CPU_REG_DUMP
0000000000000038 l       *ABS*	0000000000000000 CPU_OPS_SIZE
000000000005daf8 l     F ro	0000000000000014 cortex_a72_disable_dcache
000000000005db0c l     F ro	0000000000000020 cortex_a72_disable_l2_prefetch
000000000005db2c l     F ro	0000000000000018 cortex_a72_disable_hw_prefetcher
000000000005db44 l     F ro	0000000000000010 cortex_a72_disable_smp
000000000005db54 l     F ro	0000000000000014 cortex_a72_disable_ext_debug
000000000005db68 l     F ro	0000000000000020 check_errata_cve_2017_5715
000000000005db88 l     F ro	000000000000004c cortex_a72_reset_func
000000000005dbd4 l     F ro	0000000000000024 cortex_a72_core_pwr_dwn
000000000005dbf8 l     F ro	0000000000000030 cortex_a72_cluster_pwr_dwn
0000000000000000 l    df *ABS*	0000000000000000 /home/mohit/ws/arm-trusted-firmware/build/rk3399/release/bl31/cpu_helpers.o
0000000000000008 l       *ABS*	0000000000000000 CPU_MIDR_SIZE
0000000000000008 l       *ABS*	0000000000000000 CPU_EXTRA1_FUNC_SIZE
0000000000000008 l       *ABS*	0000000000000000 CPU_EXTRA2_FUNC_SIZE
0000000000000008 l       *ABS*	0000000000000000 CPU_E_HANDLER_FUNC_SIZE
0000000000000008 l       *ABS*	0000000000000000 CPU_RESET_FUNC_SIZE
0000000000000010 l       *ABS*	0000000000000000 CPU_PWR_DWN_OPS_SIZE
0000000000000000 l       *ABS*	0000000000000000 CPU_ERRATA_FUNC_SIZE
0000000000000000 l       *ABS*	0000000000000000 CPU_ERRATA_LOCK_SIZE
0000000000000000 l       *ABS*	0000000000000000 CPU_ERRATA_PRINTED_SIZE
0000000000000000 l       *ABS*	0000000000000000 CPU_REG_DUMP_SIZE
0000000000000000 l       *ABS*	0000000000000000 CPU_MIDR
0000000000000008 l       *ABS*	0000000000000000 CPU_RESET_FUNC
0000000000000010 l       *ABS*	0000000000000000 CPU_EXTRA1_FUNC
0000000000000018 l       *ABS*	0000000000000000 CPU_EXTRA2_FUNC
0000000000000020 l       *ABS*	0000000000000000 CPU_E_HANDLER_FUNC
0000000000000028 l       *ABS*	0000000000000000 CPU_PWR_DWN_OPS
0000000000000038 l       *ABS*	0000000000000000 CPU_ERRATA_FUNC
0000000000000038 l       *ABS*	0000000000000000 CPU_ERRATA_LOCK
0000000000000038 l       *ABS*	0000000000000000 CPU_ERRATA_PRINTED
0000000000000038 l       *ABS*	0000000000000000 CPU_REG_DUMP
0000000000000038 l       *ABS*	0000000000000000 CPU_OPS_SIZE
000000000005dcc8 l       ro	0000000000000000 search_def_ptr
0000000000000000 l    df *ABS*	0000000000000000 /home/mohit/ws/arm-trusted-firmware/build/rk3399/release/bl31/context.o
0000000000000000 l    df *ABS*	0000000000000000 /home/mohit/ws/arm-trusted-firmware/build/rk3399/release/bl31/cpu_data.o
0000000000000000 l    df *ABS*	0000000000000000 /home/mohit/ws/arm-trusted-firmware/build/rk3399/release/bl31/spinlock.o
000000000005df1c l       ro	0000000000000000 l1
000000000005df20 l       ro	0000000000000000 l2
0000000000000000 l    df *ABS*	0000000000000000 /home/mohit/ws/arm-trusted-firmware/build/rk3399/release/bl31/psci_helpers.o
0000000000000000 l    df *ABS*	0000000000000000 /home/mohit/ws/arm-trusted-firmware/build/rk3399/release/bl31/platform_mp_stack.o
0000000000062080 l       stacks	0000000000000000 platform_normal_stacks
0000000000000006 l       *ABS*	0000000000000000 TZ_COUNT
0000000000000000 l    df *ABS*	0000000000000000 /home/mohit/ws/arm-trusted-firmware/build/rk3399/release/bl31/debug.o
00000000000603bf l       ro	0000000000000000 panic_msg
000000000005e078 l       ro	0000000000000000 panic_common
000000000005e0a0 l       ro	0000000000000000 _panic_handler
0000000000000000 l    df *ABS*	0000000000000000 /home/mohit/ws/arm-trusted-firmware/build/rk3399/release/bl31/cache_helpers.o
000000000005e0dc l       ro	0000000000000000 exit_loop_civac
000000000005e0c8 l       ro	0000000000000000 loop_civac
000000000005e114 l       ro	0000000000000000 exit_loop_cvac
000000000005e100 l       ro	0000000000000000 loop_cvac
000000000005e14c l       ro	0000000000000000 exit_loop_ivac
000000000005e138 l       ro	0000000000000000 loop_ivac
000000000005e150 l     F ro	000000000000007c do_dcsw_op
000000000005e1c8 l       ro	0000000000000000 exit
000000000005e1cc l       ro	0000000000000000 dcsw_loop_table
000000000005e164 l       ro	0000000000000000 loop1
000000000005e1b0 l       ro	0000000000000000 level_done
000000000005e1cc l       ro	0000000000000000 loop2_isw
000000000005e1d0 l       ro	0000000000000000 loop3_isw
000000000005e1ec l       ro	0000000000000000 loop2_cisw
000000000005e1f0 l       ro	0000000000000000 loop3_cisw
000000000005e20c l       ro	0000000000000000 loop2_csw
000000000005e210 l       ro	0000000000000000 loop3_csw
0000000000000000 l    df *ABS*	0000000000000000 /home/mohit/ws/arm-trusted-firmware/build/rk3399/release/bl31/misc_helpers.o
000000000005e254 l     F ro	00000000000000e8 zeromem_dczva
0000000000000000 l    df *ABS*	0000000000000000 /home/mohit/ws/arm-trusted-firmware/build/rk3399/release/bl31/platform_helpers.o
0000000000000000 l    df *ABS*	0000000000000000 /home/mohit/ws/arm-trusted-firmware/build/rk3399/release/bl31/crash_console_helpers.o
000000000006205c l       .data	0000000000000000 crash_console_spinlock
0000000000062061 l       .data	0000000000000000 crash_console_triggered
0000000000062000 l       .data	0000000000000000 crash_console_reg_stash
000000000005e36c l       ro	0000000000000000 skip_spinlock
000000000005e388 l       ro	0000000000000000 init_error
000000000005e3b4 l       ro	0000000000000000 putc_loop
000000000005e400 l       ro	0000000000000000 putc_done
000000000005e3f8 l       ro	0000000000000000 putc_continue
000000000005e3ec l       ro	0000000000000000 putc
000000000005e430 l       ro	0000000000000000 flush_loop
000000000005e458 l       ro	0000000000000000 flush_done
000000000005e450 l       ro	0000000000000000 flush_continue
0000000000000000 l    df *ABS*	0000000000000000 fdt_ro.c
000000000005e46c l     F ro	0000000000000024 fdt32_ld
000000000005e490 l     F ro	0000000000000044 fdt64_ld
000000000005e4d4 l     F ro	0000000000000058 fdt_mem_rsv
000000000005e52c l     F ro	0000000000000064 nextprop_
000000000005e590 l     F ro	0000000000000068 fdt_get_property_by_offset_
000000000005e954 l     F ro	00000000000000d8 fdt_get_property_namelen_
0000000000000000 l    df *ABS*	0000000000000000 fdt_rw.c
000000000005ec7c l     F ro	0000000000000008 cpu_to_fdt32
000000000005ec84 l     F ro	0000000000000024 fdt32_ld
000000000005eca8 l     F ro	0000000000000088 fdt_blocks_misordered_
000000000005ed30 l     F ro	00000000000000dc fdt_packblocks_
0000000000000000 l    df *ABS*	0000000000000000 fdt.c
000000000005efbc l     F ro	0000000000000024 fdt32_ld
0000000000000000 l    df *ABS*	0000000000000000 memchr.c
0000000000000000 l    df *ABS*	0000000000000000 memcmp.c
0000000000000000 l    df *ABS*	0000000000000000 memcpy.c
0000000000000000 l    df *ABS*	0000000000000000 memmove.c
0000000000000000 l    df *ABS*	0000000000000000 memset.c
0000000000000000 l    df *ABS*	0000000000000000 printf.c
000000000005f4ec l     F ro	00000000000000d0 unsigned_num_print
0000000000000000 l    df *ABS*	0000000000000000 putchar.c
0000000000000000 l    df *ABS*	0000000000000000 strchr.c
0000000000000000 l    df *ABS*	0000000000000000 strlen.c
0000000000000000 l    df *ABS*	0000000000000000 strncmp.c
0000000000000000 l    df *ABS*	0000000000000000 strrchr.c
0000000000000000 l    df *ABS*	0000000000000000 /home/mohit/ws/arm-trusted-firmware/build/rk3399/release/bl31/wa_cve_2017_5715_mmu.o
0000000000061000 l     F ro	0000000000000000 mmu_sync_exception_sp_el0
0000000000061080 l     F ro	0000000000000000 mmu_irq_sp_el0
0000000000061100 l     F ro	0000000000000000 mmu_fiq_sp_el0
0000000000061180 l     F ro	0000000000000000 mmu_serror_sp_el0
0000000000061200 l     F ro	0000000000000000 mmu_sync_exception_sp_elx
0000000000061280 l     F ro	0000000000000000 mmu_irq_sp_elx
0000000000061300 l     F ro	0000000000000000 mmu_fiq_sp_elx
0000000000061380 l     F ro	0000000000000000 mmu_serror_sp_elx
0000000000061400 l     F ro	0000000000000000 mmu_sync_exception_aarch64
0000000000061480 l     F ro	0000000000000000 mmu_irq_aarch64
0000000000061500 l     F ro	0000000000000000 mmu_fiq_aarch64
0000000000061580 l     F ro	0000000000000000 mmu_serror_aarch64
0000000000061600 l     F ro	0000000000000000 mmu_sync_exception_aarch32
0000000000061680 l     F ro	0000000000000000 mmu_irq_aarch32
0000000000061700 l     F ro	0000000000000000 mmu_fiq_aarch32
0000000000061780 l     F ro	0000000000000000 mmu_serror_aarch32
0000000000040120 l     F ro	000000000000000c __sram_func_set_ddrctl_pll_veneer
00000000ff3b0028 l     F .pmusram	000000000000000c __sram_restore_veneer
00000000ff3b0038 l     F .pmusram	000000000000000c __bl31_warm_entrypoint_veneer
0000000000050618 g     F ro	0000000000000014 gicd_read_nsacr
000000000005f9bc g     F ro	000000000000002c putchar
0000000000051730 g     F ro	00000000000000cc cm_prepare_el3_exit
000000000005d090  w    F ro	0000000000000008 plat_is_smccc_feature_available
0000000000056ec4 g     F ro	00000000000001f0 dram_init
000000000005f07c g     F ro	0000000000000088 fdt_offset_ptr
000000000008cc00 g       .bss	0000000000000000 __PMF_TIMESTAMP_START__
00000000000530ac  w    F ro	0000000000000034 plat_ic_get_pending_interrupt_type
000000000005056c g     F ro	0000000000000014 gicd_write_igrpmodr
0000000000051694 g     F ro	000000000000007c cm_el1_sysregs_context_restore
0000000000058f74 g     F ro	000000000000004c m0_wait_done
00000000000533e4 g     F ro	000000000000010c params_early_setup
00000000000523c8 g     F ro	0000000000000028 psci_migrate_info_up_cpu
00000000000a2000 g       coherent_ram	0000000000000000 __BL31_END__
0000000000058f4c g     F ro	0000000000000028 m0_stop
000000000005cf50 g     F ro	0000000000000034 console_register
0000000000052170 g     F ro	00000000000000ec psci_cpu_suspend
0000000000053378 g     F ro	000000000000000c rockchip_get_uart_baudrate
00000000000a2000 g       coherent_ram	0000000000000000 __COHERENT_RAM_END__
00000000ff3b1240 g       .pmusram	0000000000000000 __pmusram_incbin_end
000000000005dc28 g     F ro	0000000000000020 reset_handler
000000000005da10 g     F ro	0000000000000008 console_16550_flush
0000000000060e00 g     F ro	0000000000000000 sync_exception_aarch32
000000000005e24c g     F ro	0000000000000008 zeromem
000000000005ff94 g     O ro	0000000000000022 version_string
000000000005e070 g     F ro	0000000000000008 asm_print_newline
00000000000604b0 g       ro	0000000000000000 __pubsub_psci_suspend_pwrdown_finish_end
0000000000051f34 g     F ro	00000000000000f4 psci_validate_entry_point
000000000005ce8c g     F ro	0000000000000004 print_entry_point_info
0000000000050080 g     F ro	000000000000000c cm_get_context
00000000000564e8 g     F ro	00000000000000ac resume_low_power
00000000ff8c1090 g       .text_sram	0000000000000000 __bl31_sram_text_real_end
0000000000056bc0 g     F ro	00000000000001bc ddr_set_rate
0000000000050000 g     F ro	0000000000000070 platform_cpu_warmboot
0000000000068d84 g     O .bss	0000000000000060 store_gpio
0000000000051eb0 g     F ro	0000000000000064 psci_release_pwr_domain_locks
00000000000537d8 g     F ro	0000000000000018 plat_core_pos_by_mpidr
0000000000051974 g     F ro	0000000000000028 psci_validate_power_state
0000000000062000 g       ro	0000000000000000 __RW_START__
000000000005d99c g     F ro	0000000000000038 console_16550_core_putc
000000000005318c g     F ro	000000000000000c plat_cci_disable
0000000000053598 g     F ro	000000000000000c rockchip_pwr_domain_on
000000000005966c g     F ro	0000000000000030 rockchip_soc_hlvl_pwr_dm_on_finish
0000000000052ef4 g     F ro	00000000000000a4 psci_cpu_suspend_finish
0000000000059408 g     F ro	000000000000005c rk3399_flush_l2_b
000000000005ea2c g     F ro	000000000000006c fdt_getprop_namelen
00000000ff3b1240 g     O .pmusram	0000000000000cf0 sdram_config
000000000005c5f0 g     F ro	00000000000000b4 enable_pwms
000000000005e8e4 g     F ro	0000000000000038 fdt_first_property_offset
000000000005d9d4 g     F ro	0000000000000008 console_16550_putc
0000000000053198 g     F ro	0000000000000028 bl31_plat_get_next_image_ep_info
000000000005e22c g     F ro	0000000000000010 dcsw_op_level1
000000000005c280 g     F ro	000000000000008c rockchip_plat_mmu_el3
000000000005e078 g     F ro	0000000000000030 do_panic
00000000ff8c1000 g       .incbin_sram	0000000000000000 __sram_incbin_end
000000000005f440 g     F ro	0000000000000034 memmove
0000000000069b60 g     O .bss	0000000000000080 rt_svc_descs_indices
00000000000505dc g     F ro	0000000000000014 gicd_write_isenabler
00000000000537a4 g     F ro	000000000000001c plat_setup_psci_ops
0000000000059844 g     F ro	0000000000000084 resume_uart
000000000005c74c g     F ro	000000000000002c secure_sgrf_ddr_rgn_init
0000000000060a00 g     F ro	0000000000000000 sync_exception_sp_elx
0000000000050604 g     F ro	0000000000000014 gicd_write_ispendr
0000000000060800 g     F ro	0000000000000000 sync_exception_sp_el0
000000000005dfac g     F ro	000000000000000c psci_power_down_wfi
000000000005c6a4 g     F ro	0000000000000018 secure_watchdog_gate
000000000005316c g     F ro	0000000000000014 plat_cci_init
0000000000050ccc g     F ro	000000000000003c gicv3_cpuif_disable
000000000005df78 g     F ro	0000000000000034 psci_do_pwrup_cache_maintenance
00000000000522dc g     F ro	0000000000000058 psci_affinity_info
000000000005ec48 g     F ro	0000000000000034 fdt_path_offset
00000000ff3b1000 g     O .pmusram	0000000000000240 rk3399m0pmu_bin
0000000000058ef0 g     F ro	000000000000005c m0_start
000000000005d098  w    F ro	0000000000000030 plat_log_get_prefix
0000000000052334 g     F ro	000000000000007c psci_migrate
0000000000050774 g     F ro	000000000000006c gicv3_rdistif_base_addrs_probe
000000000005c938 g     F ro	000000000000006c clk_gate_con_save
00000000ff8c2000 g       .text_sram	0000000000000000 __bl31_sram_text_end
000000000005fa98 g     O ro	00000000000000a8 plat_rockchip_psci_pm_ops
000000000005ff76 g     O ro	000000000000001e build_message
0000000000068ca8 g     O .bss	0000000000000004 suspend_gpio_cnt
00000000ff8c3000 g       .stack_sram	0000000000000000 __bl31_sram_stack_end
000000000005deac g     F ro	000000000000003c el3_exit
00000000000529f8 g     F ro	000000000000034c psci_setup
000000000005d618 g     F ro	0000000000000084 init_xlat_tables
000000000005d0c8  w    F ro	0000000000000008 bl31_plat_runtime_setup
0000000000062000 g       .data	0000000000000000 __DATA_START__
00000000000a1000 g     O coherent_ram	0000000000000048 psci_locks
000000000005e5f8 g     F ro	0000000000000114 fdt_get_string
000000000005e33c  w    F ro	0000000000000004 plat_disable_acp
00000000000537f4  w    F ro	000000000000000c plat_rockchip_gic_driver_init
000000000005f364 g     F ro	000000000000005c fdt_move
0000000000051e0c g     F ro	0000000000000034 psci_find_target_suspend_lvl
0000000000058d68 g     F ro	00000000000000fc plat_rockchip_restore_gpio
00000000000504d8 g     F ro	000000000000001c gicd_set_isenabler
00000000000529dc g     F ro	000000000000001c psci_arch_setup
000000000005dd04 g     F ro	0000000000000020 check_wa_cve_2017_5715
00000000ff3b0058 g       .pmusram	0000000000000000 __bl31_pmusram_text_start
000000000005fc68 g     O ro	0000000000000060 ddr3_lat_adj
0000000000059d30 g     F ro	000000000000006c wdt_register_restore
00000000000a1048 g     O coherent_ram	000000000000000c rockchip_pd_lock
00000000ff3b0640 g     F .pmusram	0000000000000714 dmc_resume
000000000005ddd0 g     F ro	0000000000000074 save_gp_pmcr_pauth_regs
0000000000052fd0 g     F ro	0000000000000038 psci_system_reset
000000000005c83c g     F ro	000000000000001c disable_nodvfs_plls
00000000000504f4 g     F ro	0000000000000014 gicd_set_ipriorityr
000000000005f420 g     F ro	0000000000000020 memcpy
0000000000056324 g     F ro	0000000000000054 ddr_get_rate
0000000000051f14 g     F ro	0000000000000020 psci_validate_mpidr
000000000005225c g     F ro	0000000000000078 psci_system_suspend
0000000000060b80 g     F ro	0000000000000000 serror_sp_elx
000000000005163c g     F ro	000000000000002c cm_init_context_by_index
0000000000050b30 g     F ro	0000000000000084 gicv3_distif_init
0000000000059d9c g     F ro	0000000000001610 rockchip_soc_sys_pwr_dm_suspend
0000000000060880 g     F ro	0000000000000000 irq_sp_el0
000000000005e254 g     F ro	00000000000000e8 zero_normalmem
0000000000051b08 g     F ro	0000000000000048 psci_get_parent_pwr_domain_nodes
0000000000050ac4 g     F ro	000000000000006c gicv3_driver_init
0000000000053834  w    F ro	0000000000000014 plat_rockchip_gic_cpuif_disable
00000000000604b0 g     O ro	0000000000000008 __cb_func_spe_drain_buffers_hookcm_entering_secure_world
000000000005d0d0  w    F ro	0000000000000074 plat_ea_handler
000000000005b3ac g     F ro	0000000000000e4c rockchip_soc_sys_pwr_dm_resume
000000000005c9a4 g     F ro	0000000000000038 clk_gate_con_disable
0000000000053820  w    F ro	0000000000000014 plat_rockchip_gic_cpuif_enable
0000000000052f98 g     F ro	0000000000000038 psci_system_off
00000000ff3b0de0 g       .pmusram	0000000000000000 __bl31_pmusram_text_end
00000000000604b8 g       ro	0000000000000000 __pubsub_cm_exited_secure_world_end
0000000000056db8 g     F ro	0000000000000078 ddr_prepare_for_sys_suspend
000000000005d528 g     F ro	000000000000003c mmap_add
0000000000040138 g     F ro	0000000000000080 bl31_warm_entrypoint
0000000000053160 g     F ro	000000000000000c plat_get_syscnt_freq2
000000000005e01c g     F ro	000000000000000c plat_panic_handler
00000000000603e0 g       ro	0000000000000000 __RT_SVC_DESCS_START__
0000000000050340 g     F ro	0000000000000014 cci_init
000000000005e7fc g     F ro	00000000000000e8 fdt_subnode_offset_namelen
0000000000065080 g       stacks	0000000000000000 __STACKS_END__
0000000000050758 g     F ro	000000000000001c gicv3_rdistif_mark_core_asleep
00000000000604b0 g       ro	0000000000000000 __pubsub_psci_suspend_pwrdown_start_end
000000000005c6bc g     F ro	0000000000000030 secure_timer_init
000000000005e0e0 g     F ro	0000000000000038 clean_dcache_range
0000000000062044 g     O .data	0000000000000014 gpio_port
000000000005cc34 g     F ro	0000000000000070 rockchip_plat_sip_handler
000000000005dc48 g     F ro	0000000000000024 prepare_cpu_pwr_dwn
000000000005ca84 g     F ro	0000000000000014 pmu_sgrf_rst_hld
000000000005377c  w    F ro	000000000000000c rockchip_soc_sys_pd_pwr_dn_wfi
00000000ff3b0d54 g     F .pmusram	0000000000000014 secure_watchdog_ungate
000000000005d144  w    F ro	0000000000000008 plat_arm_set_twedel_scr_el3
000000000005e70c g     F ro	0000000000000044 fdt_num_mem_rsv
00000000ff8c0000 g     O .incbin_sram	0000000000000310 rk3399m0_bin
000000000005de44 g     F ro	0000000000000068 restore_gp_pmcr_pauth_regs
0000000000050430 g     F ro	0000000000000004 gicv3_distif_post_restore
0000000000056d7c g     F ro	000000000000003c ddr_round_rate
0000000000052028 g     F ro	00000000000000c0 psci_warmboot_entrypoint
00000000ff3b0d98 g     F .pmusram	0000000000000014 pmu_sgrf_rst_hld_release
000000000005073c g     F ro	000000000000001c gicv3_rdistif_mark_core_awake
0000000000051440 g     F ro	0000000000000014 gpio_set_direction
00000000000604b8 g       ro	0000000000000000 __pubsub_cm_exited_normal_world_start
000000000005dfd4  w    F ro	0000000000000010 plat_set_my_stack
00000000000500b0 g     F ro	0000000000000028 cm_set_context_by_index
0000000000060440 g       ro	0000000000000000 __RT_SVC_DESCS_END__
0000000000059464 g     F ro	00000000000000b4 rockchip_soc_cores_pwr_dm_on
000000000005f234 g     F ro	0000000000000040 fdt_check_node_offset_
00000000000537c0 g     F ro	000000000000000c plat_get_sec_entrypoint
000000000005e040 g     F ro	0000000000000030 asm_print_hex
0000000000053254 g     F ro	0000000000000040 bl31_plat_arch_setup
0000000000050158 g     F ro	0000000000000064 bl31_main
000000000005d43c g     F ro	0000000000000004 print_mmap
00000000000534f0 g     F ro	0000000000000074 rockchip_validate_power_state
0000000000058e64 g     F ro	000000000000000c plat_rockchip_gpio_init
00000000000a1100 g       coherent_ram	0000000000000000 cpuson_flags
0000000000065fe0 g     O .bss	0000000000000060 psci_cpu_pd_nodes
00000000ff8c1000 g       .text_sram	0000000000000000 __bl31_sram_text_start
000000000005e028 g     F ro	0000000000000018 asm_print_str
000000000005e340  w    F ro	0000000000000004 bl31_plat_enable_mmu
000000000005d9fc g     F ro	0000000000000014 console_16550_core_flush
0000000000051474 g     F ro	0000000000000004 cm_init
000000000005e418 g     F ro	0000000000000054 plat_crash_console_flush
0000000000060800 g       ro	0000000000000000 runtime_exceptions
0000000000066138 g     O .bss	0000000000000030 rdistif_base_addrs
000000000005062c g     F ro	0000000000000014 gicd_write_nsacr
0000000000059c2c g     F ro	0000000000000034 cru_register_save
0000000000050390 g     F ro	000000000000003c cci_disable_snoop_dvm_reqs
0000000000059ce0 g     F ro	0000000000000050 wdt_register_save
0000000000050640 g     F ro	0000000000000014 gicr_write_ipriorityr
00000000000604b8 g       ro	0000000000000000 __pubsub_cm_exited_secure_world_start
0000000000053688 g     F ro	0000000000000054 rockchip_pwr_domain_on_finish
00000000000520e8 g     F ro	0000000000000024 psci_spd_migrate_info
000000000005ea98 g     F ro	000000000000004c fdt_getprop
000000000005defc g     F ro	0000000000000018 _cpu_data_by_index
000000000005210c g     F ro	0000000000000004 psci_print_power_domain_map
0000000000061800 g       ro	0000000000000000 __RO_END_UNALIGNED__
000000000005d71c g     F ro	0000000000000028 plat_get_target_pwr_state
000000000005cf90 g     F ro	000000000000009c console_putc
0000000000050704 g     F ro	0000000000000038 gicr_set_icfgr
0000000000050f34 g     F ro	0000000000000204 gicv3_distif_save
000000000005051c g     F ro	0000000000000014 gicd_write_icfgr
000000000005e348  w    F ro	0000000000000004 plat_handle_el3_ea
0000000000058ec4 g     F ro	000000000000002c m0_configure_execute_addr
000000000005fa60 g     F ro	0000000000000028 strrchr
0000000000059c60 g     F ro	0000000000000080 cru_register_restore
00000000000519b0 g     F ro	0000000000000070 psci_is_last_on_cpu
0000000000053600 g     F ro	0000000000000088 rockchip_pwr_domain_suspend
000000000005e34c g     F ro	0000000000000048 plat_crash_console_init
00000000ff8c1000 g     F .text_sram	0000000000000090 sram_func_set_ddrctl_pll
0000000000060e80 g     F ro	0000000000000000 irq_aarch32
000000000005e0a8 g     F ro	0000000000000038 flush_dcache_range
0000000000050354 g     F ro	000000000000003c cci_enable_snoop_dvm_reqs
00000000000513c4 g     F ro	000000000000000c timer_init
00000000000531c0 g     F ro	0000000000000074 bl31_early_platform_setup2
00000000ff3b0000 g     F .pmusram	0000000000000014 pmu_cpuson_entrypoint
000000000005c928 g     F ro	0000000000000010 restore_abpll
000000000005d9dc g     F ro	0000000000000018 console_16550_core_getc
000000000005cb30 g     F ro	000000000000007c soc_global_soft_reset
0000000000060440 g       ro	0000000000000000 __PMF_SVC_DESCS_END__
0000000000062068 g       .data	0000000000000000 __RELA_END__
0000000000062068 g       .data	0000000000000000 __RELA_START__
00000000ff8c2000 g       .data_sram	0000000000000000 __bl31_sram_data_start
0000000000050e0c g     F ro	0000000000000128 gicv3_rdistif_init_restore
0000000000060980 g     F ro	0000000000000000 serror_sp_el0
000000000005f5bc g     F ro	0000000000000400 vprintf
00000000ff8c2000 g       .data_sram	0000000000000000 __bl31_sram_data_real_end
000000000005c30c g     F ro	00000000000001e8 plat_rockchip_pmu_init
0000000000059518 g     F ro	000000000000004c rockchip_soc_cores_pwr_dm_off
000000000005d744 g     F ro	0000000000000004 report_unhandled_exception
0000000000052904 g     F ro	00000000000000d8 psci_cpu_on_finish
000000000005ca44 g     F ro	0000000000000040 set_pmu_rsthold
00000000000522d4 g     F ro	0000000000000008 psci_cpu_off
000000000005fb40 g     O ro	0000000000000030 rockchip_gic_data
000000000005dfe4 g     F ro	0000000000000024 plat_reset_handler
000000000005d718 g     F ro	0000000000000004 enable_mmu_direct_el3
0000000000050bb4 g     F ro	0000000000000090 gicv3_rdistif_init
000000000005969c g     F ro	0000000000000004 rockchip_soc_cores_pwr_dm_resume
00000000000604b8 g       ro	0000000000000000 __pubsub_cm_entering_normal_world_end
000000000005dc8c g     F ro	0000000000000040 get_cpu_ops_ptr
0000000000040000 g     F ro	0000000000000114 bl31_entrypoint
000000000005008c g     F ro	0000000000000024 cm_get_context_by_index
0000000000061000 g       ro	0000000000000000 wa_cve_2017_5715_mmu_vbar
0000000000050654 g     F ro	0000000000000018 gicr_set_ipriorityr
0000000000051668 g     F ro	000000000000002c cm_init_my_context
0000000000060d80 g     F ro	0000000000000000 serror_aarch64
000000000005f3c0 g     F ro	000000000000002c memchr
000000000005066c g     F ro	0000000000000028 gicr_clr_igroupr
000000000005dee8 g     F ro	0000000000000014 init_cpu_data_ptr
00000000000536dc g     F ro	000000000000007c rockchip_pwr_domain_suspend_finish
000000000005d748 g     F ro	0000000000000078 enter_lower_el_sync_ea
000000000005d5f8 g     F ro	000000000000000c xlat_arch_current_el
00000000000599bc g     F ro	00000000000000d4 restore_usbphy
0000000000050888 g     F ro	00000000000000e8 gicv3_secure_spis_config_props
0000000000053564 g     F ro	0000000000000014 rockchip_get_sys_suspend_power_state
000000000005cbac g     F ro	000000000000002c plat_rockchip_soc_init
0000000000050508 g     F ro	0000000000000014 gicd_read_icfgr
0000000000050580 g     F ro	0000000000000010 gicd_read_ipriorityr
00000000000517fc g     F ro	0000000000000010 spe_supported
00000000000526a0 g     F ro	0000000000000104 psci_do_cpu_off
0000000000068c54 g     O .bss	0000000000000004 psci_caps
0000000000051478 g     F ro	00000000000001c4 cm_setup_context
0000000000040000 g       ro	0000000000000000 __BL31_START__
0000000000060a80 g     F ro	0000000000000000 irq_sp_elx
000000000008cc00 g       .bss	0000000000000000 __PMF_PERCPU_TIMESTAMP_END__
0000000000060900 g     F ro	0000000000000000 fiq_sp_el0
000000000005fa28 g     F ro	0000000000000038 strncmp
0000000000062062 g       .data	0000000000000000 __DATA_END__
000000000005e044 g       ro	0000000000000000 asm_print_hex_bits
0000000000050490 g     F ro	0000000000000024 gicd_set_igrpmodr
0000000000060440 g       ro	0000000000000000 __CPU_OPS_START__
0000000000051454 g     F ro	0000000000000014 gpio_set_value
000000000005135c g     F ro	0000000000000068 udelay
0000000000058e70 g     F ro	0000000000000054 m0_init
00000000ff3b1f54 g       .pmusram	0000000000000000 __bl31_pmusram_data_end
00000000ff8c0310 g       .incbin_sram	0000000000000000 __sram_incbin_real_end
000000000005f274 g     F ro	0000000000000040 fdt_check_prop_offset_
0000000000050970 g     F ro	0000000000000070 gicv3_ppi_sgi_config_defaults
000000000005e118 g     F ro	0000000000000038 inv_dcache_range
0000000000062060 g     O .data	0000000000000001 console_state
0000000000059564 g     F ro	0000000000000030 rockchip_soc_hlvl_pwr_dm_off
00000000ff3b1240 g       .pmusram	0000000000000000 __bl31_pmusram_data_start
000000000005d1f8 g     F ro	0000000000000060 bl_aux_params_parse
00000000000524b0 g     F ro	000000000000014c psci_smc_handler
0000000000053848  w    F ro	0000000000000014 plat_rockchip_gic_pcpu_init
00000000000513fc g     F ro	0000000000000044 generic_delay_timer_init
0000000000052d44 g     F ro	00000000000001b0 psci_cpu_suspend_start
0000000000059350 g     F ro	00000000000000b8 pmu_power_domains_on
0000000000051a20 g     F ro	0000000000000058 psci_init_req_local_pwr_states
000000000005cae8 g     F ro	0000000000000020 enable_nodvfs_plls
00000000000604b8 g       ro	0000000000000000 __pubsub_cm_entering_secure_world_end
00000000000513dc g     F ro	0000000000000020 generic_delay_timer_init_args
000000000005f3ec g     F ro	0000000000000034 memcmp
00000000ff3b1f34 g     O .pmusram	0000000000000018 dpll_data
000000000005dccc g     F ro	0000000000000010 cpu_get_rev_var
00000000000527a4 g     F ro	0000000000000160 psci_cpu_on_start
0000000000051dd0 g     F ro	000000000000003c psci_find_max_off_lvl
000000000005eb48 g     F ro	0000000000000100 fdt_path_offset_namelen
000000000005e91c g     F ro	0000000000000038 fdt_next_property_offset
00000000000533a8 g     F ro	0000000000000018 plat_get_rockchip_gpio_poweroff
0000000000050438 g     F ro	0000000000000034 gicd_set_icfgr
000000000005c1f8 g     F ro	0000000000000038 rockchip_soc_soft_reset
0000000000059758 g     F ro	0000000000000088 sram_restore
00000000000a1054 g     O coherent_ram	0000000000000060 psci_non_cpu_pd_nodes
000000000008cc00 g       .bss	0000000000000000 __BSS_END__
00000000000604b0 g       ro	0000000000000000 __CPU_OPS_END__
0000000000059614 g     F ro	0000000000000030 rockchip_soc_hlvl_pwr_dm_suspend
000000000005385c g     F ro	000000000000008c sip_smc_handler
0000000000052110 g     F ro	0000000000000004 psci_do_pwrdown_sequence
000000000005df3c g     F ro	000000000000003c psci_do_pwrdown_cache_maintenance
0000000000050558 g     F ro	0000000000000014 gicd_read_igrpmodr
00000000000597e0 g     F ro	0000000000000064 suspend_uart
0000000000051710 g     F ro	0000000000000020 cm_set_next_eret_context
00000000000604b0 g       ro	0000000000000000 __pubsub_cm_entering_secure_world_start
00000000ff3b0d68 g     F .pmusram	0000000000000030 sram_secure_timer_init
00000000000505c8 g     F ro	0000000000000014 gicd_read_isenabler
0000000000052114 g     F ro	000000000000005c psci_cpu_on
000000000005d564 g     F ro	0000000000000094 init_xlation_table
00000000000500f8 g     F ro	0000000000000060 bl31_prepare_next_image_entry
00000000000a1000 g       coherent_ram	0000000000000000 __COHERENT_RAM_START__
000000000005ca98 g     F ro	0000000000000050 enable_dvfs_plls
0000000000053800  w    F ro	0000000000000020 plat_rockchip_gic_init
0000000000068c50 g     O .bss	0000000000000004 psci_plat_core_count
0000000000052448 g     F ro	0000000000000068 psci_features
00000000000604b0 g       ro	0000000000000000 __GOT_END__
0000000000058c88 g     F ro	00000000000000e0 plat_rockchip_save_gpio
00000000ff3b1000 g       .pmusram	0000000000000000 __pmusram_incbin_start
000000000005f474 g     F ro	0000000000000078 memset
000000000005d944 g     F ro	0000000000000058 console_16550_register
0000000000056594 g     F ro	0000000000000504 dram_dfs_init
0000000000060440 g       ro	0000000000000000 __PARSER_LIB_DESCS_END__
0000000000051a78 g     F ro	0000000000000090 psci_get_target_local_pwr_states
000000000005c7f0 g     F ro	000000000000004c disable_dvfs_plls
00000000000596a0 g     F ro	0000000000000030 rockchip_soc_hlvl_pwr_dm_resume
00000000000604b8 g       ro	0000000000000000 __pubsub_cm_exited_normal_world_end
00000000000533d8 g     F ro	000000000000000c plat_get_rockchip_suspend_apio
000000000005d7c0 g     F ro	000000000000001c enter_lower_el_async_ea
0000000000066040 g     O .bss	0000000000000008 psci_plat_pm_ops
000000000005d088  w    F ro	0000000000000008 plat_get_soc_revision
000000000005c6ec g     F ro	0000000000000060 secure_sgrf_init
00000000000500e4 g     F ro	0000000000000014 bl31_setup
00000000ff3b1f30 g     O .pmusram	0000000000000004 cru_clksel_con6
00000000000604b0 g       ro	0000000000000000 __pubsub_psci_suspend_pwrdown_start_start
000000000005fba0 g     O ro	0000000000000060 plat_rk_mmap
00000000ff8c0000 g       .incbin_sram	0000000000000000 __sram_incbin_start
00000000000604b0 g       ro	0000000000000000 __GOT_START__
0000000000068fc0 g     O .bss	00000000000003f0 pmu_slpdata
000000000005cb08 g     F ro	0000000000000028 soc_global_soft_reset_init
000000000005d7c4 g       ro	0000000000000000 handle_lower_el_async_ea
00000000000506bc g     F ro	0000000000000028 gicr_clr_igrpmodr
00000000000500d8 g     F ro	000000000000000c get_arm_std_svc_args
00000000000604b8 g       ro	0000000000000000 __pubsub_cm_entering_normal_world_start
0000000000000000 g       *ABS*	0000000000000000 __PERCPU_TIMESTAMP_SIZE__
0000000000051880 g     F ro	00000000000000c0 bakery_lock_get
00000000000525fc g     F ro	000000000000005c psci_mem_protect
000000000005ee0c g     F ro	00000000000001b0 fdt_open_into
0000000000060440 g       ro	0000000000000000 __FCONF_POPULATOR_END__
0000000000051940 g     F ro	0000000000000034 bakery_lock_release
000000000005fb70 g     O ro	0000000000000030 rk3399_gpio_ops
000000000005c858 g     F ro	00000000000000d0 prepare_abpll_for_ddrctrl
00000000000501ec g     F ro	0000000000000024 get_interrupt_type_handler
00000000000530e0 g     F ro	0000000000000080 plat_configure_mmu_el3
00000000000537cc g     F ro	000000000000000c plat_get_power_domain_tree_desc
0000000000050590 g     F ro	0000000000000010 gicd_write_ipriorityr
000000000005c9dc g     F ro	0000000000000068 clk_gate_con_restore
0000000000053770  w    F ro	000000000000000c rockchip_soc_cores_pd_pwr_dn_wfi
00000000000523f0 g     F ro	0000000000000058 psci_node_hw_state
0000000000056a98 g     F ro	0000000000000128 dram_set_odt_pd
00000000000505b4 g     F ro	0000000000000014 gicd_write_isactiver
000000000005e23c g     F ro	0000000000000010 dcsw_op_level2
000000000005dc6c g     F ro	0000000000000020 init_cpu_ops
000000000005d02c g     F ro	0000000000000054 console_flush
0000000000060b00 g     F ro	0000000000000000 fiq_sp_elx
0000000000062000 g       ro	0000000000000000 __RO_END__
000000000005e750 g     F ro	00000000000000ac fdt_get_name
0000000000060c00 g     F ro	0000000000000000 sync_exception_aarch64
0000000000060d00 g     F ro	0000000000000000 fiq_aarch64
0000000000050530 g     F ro	0000000000000014 gicd_read_igroupr
000000000005cf84 g     F ro	000000000000000c console_switch_state
0000000000053384 g     F ro	000000000000000c rockchip_get_uart_clock
000000000005df34 g     F ro	0000000000000008 spin_unlock
00000000000588dc g     F ro	0000000000000074 gpio_put_clock
0000000000065080 g       .bss	0000000000000000 __BSS_START__
0000000000040000 g       ro	0000000000000000 __RO_START__
00000000ff3b0dac g     F .pmusram	0000000000000034 restore_pmu_rsthold
00000000000602ab g     O ro	0000000000000004 rockchip_power_domain_tree_desc
000000000005183c g     F ro	0000000000000044 spe_enable
0000000000060440 g       ro	0000000000000000 __PMF_SVC_DESCS_START__
000000000005e394 g     F ro	0000000000000084 plat_crash_console_putc
00000000ff8c0310 g       .incbin_sram	0000000000000000 rk3399m0_bin_end
0000000000065080 g     O .bss	0000000000000180 percpu_data
000000000005dcf0 g     F ro	0000000000000014 cpu_rev_var_hs
000000000005f2b4 g     F ro	00000000000000b0 fdt_next_node
0000000000050434 g     F ro	0000000000000004 gicv3_rdistif_on
000000000005df14 g     F ro	0000000000000020 spin_lock
000000000005cf24 g     F ro	000000000000002c console_is_registered
0000000000050d08 g     F ro	000000000000000c gicv3_get_pending_interrupt_type
0000000000059a90 g     F ro	00000000000000d8 grf_register_save
00000000000506e4 g     F ro	0000000000000020 gicr_set_isenabler
000000000005199c g     F ro	0000000000000014 psci_query_sys_suspend_pwrstate
00000000ff8c2000 g       .data_sram	0000000000000000 __bl31_sram_data_end
000000000005ce90 g     F ro	0000000000000094 tf_log
0000000000050694 g     F ro	0000000000000028 gicr_set_igrpmodr
0000000000056e30 g     F ro	0000000000000094 ddr_prepare_for_sys_resume
00000000000604b0 g       ro	0000000000000000 __pubsub_psci_cpu_on_finish_start
000000000005c4f4 g     F ro	00000000000000fc disable_pwms
0000000000059b68 g     F ro	00000000000000c4 grf_register_restore
0000000000060440 g       ro	0000000000000000 __FCONF_POPULATOR_START__
0000000000056378 g     F ro	0000000000000170 exit_low_power
000000000005dcdc g     F ro	0000000000000014 cpu_rev_var_ls
00000000000501bc g     F ro	0000000000000030 get_scr_el3_from_routing_model
00000000000a2000 g       coherent_ram	0000000000000000 __RW_END__
000000000005d604 g     F ro	0000000000000014 xlat_arch_get_xn_desc
00000000000a1120 g       coherent_ram	0000000000000000 __COHERENT_RAM_END_UNALIGNED__
0000000000053234 g     F ro	0000000000000020 bl31_platform_setup
00000000000596d0 g     F ro	0000000000000088 sram_save
000000000005d9f4 g     F ro	0000000000000008 console_16550_getc
0000000000062080 g       stacks	0000000000000000 __STACKS_START__
0000000000051138 g     F ro	0000000000000224 gicv3_distif_init_restore
0000000000051c08 g     F ro	00000000000001c8 psci_do_state_coordination
0000000000053008 g     F ro	00000000000000a4 psci_system_reset2
000000000005d69c g     F ro	000000000000007c enable_mmu_el3
000000000005f104 g     F ro	0000000000000130 fdt_next_tag
0000000000060f80 g     F ro	0000000000000000 serror_aarch32
000000000005e344  w    F ro	0000000000000004 plat_handle_double_fault
000000000008cc00 g       .bss	0000000000000000 __PMF_TIMESTAMP_END__
0000000000058644 g     F ro	0000000000000208 dmc_suspend
00000000000503cc g     F ro	000000000000002c arm_gicv3_distif_pre_save
00000000000604b0 g       ro	0000000000000000 __pubsub_psci_suspend_pwrdown_finish_start
00000000000507e0 g     F ro	00000000000000a8 gicv3_spis_config_defaults
00000000000504b4 g     F ro	0000000000000024 gicd_clr_igrpmodr
000000000005e008 g     F ro	0000000000000014 plat_my_core_pos
00000000000a1118 g       coherent_ram	0000000000000000 clst_warmboot_data
000000000005eae4 g     F ro	0000000000000064 fdt_get_alias_namelen
00000000000509e0 g     F ro	00000000000000cc gicv3_secure_ppi_sgi_config_props
00000000000535a4 g     F ro	000000000000005c rockchip_pwr_domain_off
0000000000050210 g     F ro	0000000000000130 runtime_svc_init
00000000000a10d0 g       coherent_ram	0000000000000000 cpuson_entry_point
00000000000505f0 g     F ro	0000000000000014 gicd_read_ispendr
000000000005fa0c g     F ro	000000000000001c strlen
0000000000060c80 g     F ro	0000000000000000 irq_aarch64
000000000005336c g     F ro	000000000000000c rockchip_get_uart_base
00000000000523b0 g     F ro	0000000000000018 psci_migrate_info_type
000000000005d080  w    F ro	0000000000000008 plat_get_soc_version
0000000000053390 g     F ro	0000000000000018 plat_get_rockchip_gpio_reset
000000000005042c g     F ro	0000000000000004 gicv3_distif_pre_save
00000000ff3b1f4c g     O .pmusram	0000000000000008 pmu_slp_data
0000000000052658 g     F ro	0000000000000048 psci_mem_chk_range
000000000005e078  w      ro	0000000000000000 el3_panic
000000000005046c g     F ro	0000000000000024 gicd_clr_igroupr
000000000005fdc4 g     O ro	0000000000000090 lpddr3_lat_adj
000000000005f9e8 g     F ro	0000000000000024 strchr
00000000000533c0 g     F ro	0000000000000018 plat_get_rockchip_suspend_gpio
0000000000065fb8 g     O .bss	0000000000000008 gicv3_driver_data
0000000000051468 g     F ro	000000000000000c gpio_init
00000000ff8c2000 g       .stack_sram	0000000000000000 __bl31_sram_stack_start
000000000005d8d4 g     F ro	0000000000000070 console_16550_core_init
000000000005fe54 g     O ro	0000000000000080 lpddr4_lat_adj
0000000000059644 g     F ro	0000000000000028 rockchip_soc_cores_pwr_dm_on_finish
0000000000053180 g     F ro	000000000000000c plat_cci_enable
000000000005efe0 g     F ro	000000000000009c fdt_ro_probe_
000000000005cbd8 g     F ro	000000000000005c ddr_smc_handler
0000000000051e40 g     F ro	0000000000000070 psci_acquire_pwr_domain_locks
00000000000604b0 g       ro	0000000000000000 __pubsub_psci_cpu_on_finish_end
000000000005dd24 g     F ro	00000000000000ac el1_sysregs_context_restore
000000000005d14c g     F ro	00000000000000ac bl31_params_parse_helper
00000000000688e0 g     O .bss	0000000000000008 console_list
0000000000051b50 g     F ro	00000000000000b8 psci_set_pwr_domains_to_run
0000000000050c44 g     F ro	0000000000000088 gicv3_cpuif_enable
00000000000503f8 g     F ro	0000000000000034 arm_gicv3_distif_post_restore
000000000005c230 g     F ro	0000000000000050 rockchip_soc_system_off
0000000000050544 g     F ro	0000000000000014 gicd_write_igroupr
000000000005d744 g       ro	0000000000000000 report_unhandled_interrupt
00000000000598c8 g     F ro	00000000000000f4 save_usbphy
0000000000060f00 g     F ro	0000000000000000 fiq_aarch32
0000000000057100 g     F ro	0000000000001520 dram_get_parameter
0000000000059594 g     F ro	0000000000000080 rockchip_soc_cores_pwr_dm_suspend
000000000005dfb8  w    F ro	000000000000001c plat_get_my_stack
000000000005d440 g     F ro	00000000000000e8 mmap_add_region
00000000000505a0 g     F ro	0000000000000014 gicd_read_isactiver
0000000000050d14 g     F ro	00000000000000f8 gicv3_rdistif_save
0000000000060440 g       ro	0000000000000000 __PARSER_LIB_DESCS_START__
0000000000066048 g     O .bss	0000000000000008 psci_spd_pm
0000000000053578 g     F ro	0000000000000020 rockchip_cpu_standby
00000000ff3b1240 g       .pmusram	0000000000000000 rk3399m0pmu_bin_end



Disassembly of section .text_sram:

00000000ff8c1000 <sram_func_set_ddrctl_pll>:
    ff8c1000:	aa0003e8 	mov	x8, x0
    ff8c1004:	d53e1009 	mrs	x9, sctlr_el3
    ff8c1008:	927ff92a 	and	x10, x9, #0xfffffffffffffffe
    ff8c100c:	d51e100a 	msr	sctlr_el3, x10
    ff8c1010:	d5033fdf 	isb
    ff8c1014:	d5033f9f 	dsb	sy
    ff8c1018:	d2bfe625 	mov	x5, #0xff310000            	// #4281401344
    ff8c101c:	b94024a0 	ldr	w0, [x5, #36]
    ff8c1020:	32180000 	orr	w0, w0, #0x100
    ff8c1024:	32140000 	orr	w0, w0, #0x1000
    ff8c1028:	b90024a0 	str	w0, [x5, #36]

00000000ff8c102c <check_ddrc0_1_sref_enter>:
    ff8c102c:	b94098a1 	ldr	w1, [x5, #152]
    ff8c1030:	12000022 	and	w2, w1, #0x1
    ff8c1034:	121e0023 	and	w3, w1, #0x4
    ff8c1038:	2a030042 	orr	w2, w2, w3
    ff8c103c:	7100145f 	cmp	w2, #0x5
    ff8c1040:	54ffff60 	b.eq	ff8c102c <check_ddrc0_1_sref_enter>  // b.none
    ff8c1044:	d2bfeec5 	mov	x5, #0xff760000            	// #4285923328
    ff8c1048:	531c6d00 	lsl	w0, w8, #4
    ff8c104c:	320c0400 	orr	w0, w0, #0x300000
    ff8c1050:	b90118a0 	str	w0, [x5, #280]
    ff8c1054:	d2bfe625 	mov	x5, #0xff310000            	// #4281401344
    ff8c1058:	b94024a0 	ldr	w0, [x5, #36]
    ff8c105c:	12177800 	and	w0, w0, #0xfffffeff
    ff8c1060:	12137800 	and	w0, w0, #0xffffefff
    ff8c1064:	b90024a0 	str	w0, [x5, #36]

00000000ff8c1068 <check_ddrc0_1_sref_exit>:
    ff8c1068:	b94098a1 	ldr	w1, [x5, #152]
    ff8c106c:	12000022 	and	w2, w1, #0x1
    ff8c1070:	121e0023 	and	w3, w1, #0x4
    ff8c1074:	2a030042 	orr	w2, w2, w3
    ff8c1078:	7100005f 	cmp	w2, #0x0
    ff8c107c:	54ffff60 	b.eq	ff8c1068 <check_ddrc0_1_sref_exit>  // b.none
    ff8c1080:	d51e1009 	msr	sctlr_el3, x9
    ff8c1084:	d5033fdf 	isb
    ff8c1088:	d5033f9f 	dsb	sy
    ff8c108c:	d65f03c0 	ret

00000000ff8c1090 <__bl31_sram_text_real_end>:
	...

Disassembly of section .pmusram:

00000000ff3b0000 <pmu_cpuson_entrypoint>:
    ff3b0000:	580000c2 	ldr	x2, ff3b0018 <sys_resume+0x8>
    ff3b0004:	9100005f 	mov	sp, x2
    ff3b0008:	9400018e 	bl	ff3b0640 <dmc_resume>
    ff3b000c:	94000007 	bl	ff3b0028 <__sram_restore_veneer>

00000000ff3b0010 <sys_resume>:
    ff3b0010:	9400000a 	bl	ff3b0038 <__bl31_warm_entrypoint_veneer>
    ff3b0014:	00000000 	.inst	0x00000000 ; undefined
    ff3b0018:	ff8c3000 	.word	0xff8c3000
    ff3b001c:	00000000 	.word	0x00000000
    ff3b0020:	1400000e 	b	ff3b0058 <sram_regcpy>
    ff3b0024:	d503201f 	nop

00000000ff3b0028 <__sram_restore_veneer>:
    ff3b0028:	b0806550 	adrp	x16, 59000 <pmu_power_domain_ctr+0x20>
    ff3b002c:	911d6210 	add	x16, x16, #0x758
    ff3b0030:	d61f0200 	br	x16
    ff3b0034:	00000000 	.inst	0x00000000 ; undefined

00000000ff3b0038 <__bl31_warm_entrypoint_veneer>:
    ff3b0038:	90806490 	adrp	x16, 40000 <bl31_entrypoint>
    ff3b003c:	9104e210 	add	x16, x16, #0x138
    ff3b0040:	d61f0200 	br	x16
	...

00000000ff3b0058 <sram_regcpy>:
    ff3b0058:	cb010000 	sub	x0, x0, x1
    ff3b005c:	51000442 	sub	w2, w2, #0x1
    ff3b0060:	3100045f 	cmn	w2, #0x1
    ff3b0064:	54000041 	b.ne	ff3b006c <sram_regcpy+0x14>  // b.any
    ff3b0068:	d65f03c0 	ret
    ff3b006c:	b9400023 	ldr	w3, [x1]
    ff3b0070:	b8216803 	str	w3, [x0, x1]
    ff3b0074:	91001021 	add	x1, x1, #0x4
    ff3b0078:	17fffff9 	b	ff3b005c <sram_regcpy+0x4>

00000000ff3b007c <sram_udelay>:
    ff3b007c:	d53be021 	mrs	x1, cntpct_el0
    ff3b0080:	52800302 	mov	w2, #0x18                  	// #24
    ff3b0084:	2a2103e1 	mvn	w1, w1
    ff3b0088:	1b027c00 	mul	w0, w0, w2
    ff3b008c:	d53be022 	mrs	x2, cntpct_el0
    ff3b0090:	2a2203e4 	mvn	w4, w2
    ff3b0094:	0b020022 	add	w2, w1, w2
    ff3b0098:	6b040023 	subs	w3, w1, w4
    ff3b009c:	1a822062 	csel	w2, w3, w2, cs  // cs = hs, nlast
    ff3b00a0:	6b00005f 	cmp	w2, w0
    ff3b00a4:	54ffff49 	b.ls	ff3b008c <sram_udelay+0x10>  // b.plast
    ff3b00a8:	d65f03c0 	ret

00000000ff3b00ac <rkclk_ddr_reset>:
    ff3b00ac:	12000000 	and	w0, w0, #0x1
    ff3b00b0:	11001800 	add	w0, w0, #0x6
    ff3b00b4:	531e7400 	lsl	w0, w0, #2
    ff3b00b8:	51004003 	sub	w3, w0, #0x10
    ff3b00bc:	1ac32021 	lsl	w1, w1, w3
    ff3b00c0:	51003c03 	sub	w3, w0, #0xf
    ff3b00c4:	1ac32042 	lsl	w2, w2, w3
    ff3b00c8:	2a020021 	orr	w1, w1, w2
    ff3b00cc:	11000402 	add	w2, w0, #0x1
    ff3b00d0:	52800023 	mov	w3, #0x1                   	// #1
    ff3b00d4:	1ac02060 	lsl	w0, w3, w0
    ff3b00d8:	1ac22062 	lsl	w2, w3, w2
    ff3b00dc:	2a000040 	orr	w0, w2, w0
    ff3b00e0:	2a000021 	orr	w1, w1, w0
    ff3b00e4:	d2808200 	mov	x0, #0x410                 	// #1040
    ff3b00e8:	f2bfeec0 	movk	x0, #0xff76, lsl #16
    ff3b00ec:	b9000001 	str	w1, [x0]
    ff3b00f0:	d65f03c0 	ret

00000000ff3b00f4 <select_per_cs_training_index>:
    ff3b00f4:	11407c00 	add	w0, w0, #0x1f, lsl #12
    ff3b00f8:	52842a03 	mov	w3, #0x2150                	// #8528
    ff3b00fc:	113d4000 	add	w0, w0, #0xf50
    ff3b0100:	53114002 	lsl	w2, w0, #15
    ff3b0104:	0b003c60 	add	w0, w3, w0, lsl #15
    ff3b0108:	b9400000 	ldr	w0, [x0]
    ff3b010c:	368001c0 	tbz	w0, #16, ff3b0144 <select_per_cs_training_index+0x50>
    ff3b0110:	52840400 	mov	w0, #0x2020                	// #8224
    ff3b0114:	52850404 	mov	w4, #0x2820                	// #10272
    ff3b0118:	0b000043 	add	w3, w2, w0
    ff3b011c:	53081c21 	lsl	w1, w1, #24
    ff3b0120:	0b040042 	add	w2, w2, w4
    ff3b0124:	2a0303e4 	mov	w4, w3
    ff3b0128:	11080063 	add	w3, w3, #0x200
    ff3b012c:	6b02007f 	cmp	w3, w2
    ff3b0130:	b9400080 	ldr	w0, [x4]
    ff3b0134:	12077800 	and	w0, w0, #0xfeffffff
    ff3b0138:	2a010000 	orr	w0, w0, w1
    ff3b013c:	b9000080 	str	w0, [x4]
    ff3b0140:	54ffff21 	b.ne	ff3b0124 <select_per_cs_training_index+0x30>  // b.any
    ff3b0144:	d65f03c0 	ret

00000000ff3b0148 <data_training.constprop.0>:
    ff3b0148:	2a0003e1 	mov	w1, w0
    ff3b014c:	d2800482 	mov	x2, #0x24                  	// #36
    ff3b0150:	a9be7bfd 	stp	x29, x30, [sp, #-32]!
    ff3b0154:	aa0103e8 	mov	x8, x1
    ff3b0158:	b0000000 	adrp	x0, ff3b1000 <rk3399m0pmu_bin>
    ff3b015c:	9b027c21 	mul	x1, x1, x2
    ff3b0160:	91090000 	add	x0, x0, #0x240
    ff3b0164:	910003fd 	mov	x29, sp
    ff3b0168:	a90153f3 	stp	x19, x20, [sp, #16]
    ff3b016c:	3861680b 	ldrb	w11, [x0, x1]
    ff3b0170:	39413001 	ldrb	w1, [x0, #76]
    ff3b0174:	71001c3f 	cmp	w1, #0x7
    ff3b0178:	540008a1 	b.ne	ff3b028c <data_training.constprop.0+0x144>  // b.any
    ff3b017c:	7100057f 	cmp	w11, #0x1
    ff3b0180:	528000a9 	mov	w9, #0x5                   	// #5
    ff3b0184:	528001e1 	mov	w1, #0xf                   	// #15
    ff3b0188:	1a810129 	csel	w9, w9, w1, eq  // eq = none
    ff3b018c:	11407d07 	add	w7, w8, #0x1f, lsl #12
    ff3b0190:	5285cf81 	mov	w1, #0x2e7c                	// #11900
    ff3b0194:	113d40e7 	add	w7, w7, #0xf50
    ff3b0198:	531140e5 	lsl	w5, w7, #15
    ff3b019c:	0b073c27 	add	w7, w1, w7, lsl #15
    ff3b01a0:	b94000e1 	ldr	w1, [x7]
    ff3b01a4:	320a0021 	orr	w1, w1, #0x400000
    ff3b01a8:	b90000e1 	str	w1, [x7]
    ff3b01ac:	39413000 	ldrb	w0, [x0, #76]
    ff3b01b0:	71001c1f 	cmp	w0, #0x7
    ff3b01b4:	54000740 	b.eq	ff3b029c <data_training.constprop.0+0x154>  // b.none
    ff3b01b8:	7100181f 	cmp	w0, #0x6
    ff3b01bc:	54000740 	b.eq	ff3b02a4 <data_training.constprop.0+0x15c>  // b.none
    ff3b01c0:	71000c1f 	cmp	w0, #0x3
    ff3b01c4:	52801fea 	mov	w10, #0xff                  	// #255
    ff3b01c8:	528001c0 	mov	w0, #0xe                   	// #14
    ff3b01cc:	1a80114a 	csel	w10, w10, w0, ne  // ne = any
    ff3b01d0:	3600084a 	tbz	w10, #0, ff3b02d8 <data_training.constprop.0+0x190>
    ff3b01d4:	52850a0d 	mov	w13, #0x2850                	// #10320
    ff3b01d8:	112640a6 	add	w6, w5, #0x990
    ff3b01dc:	0b0d00ad 	add	w13, w5, w13
    ff3b01e0:	5280000c 	mov	w12, #0x0                   	// #0
    ff3b01e4:	5280002e 	mov	w14, #0x1                   	// #1
    ff3b01e8:	1acc21c0 	lsl	w0, w14, w12
    ff3b01ec:	6a09001f 	tst	w0, w9
    ff3b01f0:	54000680 	b.eq	ff3b02c0 <data_training.constprop.0+0x178>  // b.none
    ff3b01f4:	2a0803e0 	mov	w0, w8
    ff3b01f8:	2a0c03e1 	mov	w1, w12
    ff3b01fc:	97ffffbe 	bl	ff3b00f4 <select_per_cs_training_index>
    ff3b0200:	b94000c0 	ldr	w0, [x6]
    ff3b0204:	1125c0a1 	add	w1, w5, #0x970
    ff3b0208:	12a06022 	mov	w2, #0xfcfeffff            	// #-50397185
    ff3b020c:	12167400 	and	w0, w0, #0xfffffcff
    ff3b0210:	52854a03 	mov	w3, #0x2a50                	// #10832
    ff3b0214:	32170000 	orr	w0, w0, #0x200
    ff3b0218:	b90000c0 	str	w0, [x6]
    ff3b021c:	52858a04 	mov	w4, #0x2c50                	// #11344
    ff3b0220:	0b0300a3 	add	w3, w5, w3
    ff3b0224:	b9400020 	ldr	w0, [x1]
    ff3b0228:	0b0400a4 	add	w4, w5, w4
    ff3b022c:	52850411 	mov	w17, #0x2820                	// #10272
    ff3b0230:	52850012 	mov	w18, #0x2800                	// #10240
    ff3b0234:	0a020000 	and	w0, w0, w2
    ff3b0238:	112ae0a2 	add	w2, w5, #0xab8
    ff3b023c:	2a0c6000 	orr	w0, w0, w12, lsl #24
    ff3b0240:	32100000 	orr	w0, w0, #0x10000
    ff3b0244:	b9000020 	str	w0, [x1]
    ff3b0248:	b9400041 	ldr	w1, [x2]
    ff3b024c:	b94001af 	ldr	w15, [x13]
    ff3b0250:	b9400070 	ldr	w16, [x3]
    ff3b0254:	b9400080 	ldr	w0, [x4]
    ff3b0258:	53087c33 	lsr	w19, w1, #8
    ff3b025c:	0a412221 	and	w1, w17, w1, lsr #8
    ff3b0260:	531e7e10 	lsr	w16, w16, #30
    ff3b0264:	6b12003f 	cmp	w1, w18
    ff3b0268:	2a4f7a0f 	orr	w15, w16, w15, lsr #30
    ff3b026c:	2a4079e0 	orr	w0, w15, w0, lsr #30
    ff3b0270:	54000041 	b.ne	ff3b0278 <data_training.constprop.0+0x130>  // b.any
    ff3b0274:	34000200 	cbz	w0, ff3b02b4 <data_training.constprop.0+0x16c>
    ff3b0278:	362801b3 	tbz	w19, #5, ff3b02ac <data_training.constprop.0+0x164>
    ff3b027c:	12800000 	mov	w0, #0xffffffff            	// #-1
    ff3b0280:	a94153f3 	ldp	x19, x20, [sp, #16]
    ff3b0284:	a8c27bfd 	ldp	x29, x30, [sp], #32
    ff3b0288:	d65f03c0 	ret
    ff3b028c:	7100057f 	cmp	w11, #0x1
    ff3b0290:	52800069 	mov	w9, #0x3                   	// #3
    ff3b0294:	1a9f1529 	csinc	w9, w9, wzr, ne  // ne = any
    ff3b0298:	17ffffbd 	b	ff3b018c <data_training.constprop.0+0x44>
    ff3b029c:	528003ca 	mov	w10, #0x1e                  	// #30
    ff3b02a0:	17ffffcc 	b	ff3b01d0 <data_training.constprop.0+0x88>
    ff3b02a4:	528000ea 	mov	w10, #0x7                   	// #7
    ff3b02a8:	17ffffca 	b	ff3b01d0 <data_training.constprop.0+0x88>
    ff3b02ac:	34fffce0 	cbz	w0, ff3b0248 <data_training.constprop.0+0x100>
    ff3b02b0:	17fffff3 	b	ff3b027c <data_training.constprop.0+0x134>
    ff3b02b4:	112af0a0 	add	w0, w5, #0xabc
    ff3b02b8:	5287ef81 	mov	w1, #0x3f7c                	// #16252
    ff3b02bc:	b9000001 	str	w1, [x0]
    ff3b02c0:	1100058c 	add	w12, w12, #0x1
    ff3b02c4:	7100119f 	cmp	w12, #0x4
    ff3b02c8:	54fff901 	b.ne	ff3b01e8 <data_training.constprop.0+0xa0>  // b.any
    ff3b02cc:	b94000c0 	ldr	w0, [x6]
    ff3b02d0:	12167400 	and	w0, w0, #0xfffffcff
    ff3b02d4:	b90000c0 	str	w0, [x6]
    ff3b02d8:	529fdfee 	mov	w14, #0xfeff                	// #65279
    ff3b02dc:	52841400 	mov	w0, #0x20a0                	// #8352
    ff3b02e0:	1123c0a6 	add	w6, w5, #0x8f0
    ff3b02e4:	0b0000ad 	add	w13, w5, w0
    ff3b02e8:	5280000c 	mov	w12, #0x0                   	// #0
    ff3b02ec:	72bfff8e 	movk	w14, #0xfffc, lsl #16
    ff3b02f0:	6b0c017f 	cmp	w11, w12
    ff3b02f4:	540008c8 	b.hi	ff3b040c <data_training.constprop.0+0x2c4>  // b.pmore
    ff3b02f8:	52840411 	mov	w17, #0x2020                	// #8224
    ff3b02fc:	52850412 	mov	w18, #0x2820                	// #10272
    ff3b0300:	0b1100a0 	add	w0, w5, w17
    ff3b0304:	0b1200a3 	add	w3, w5, w18
    ff3b0308:	2a0003e2 	mov	w2, w0
    ff3b030c:	b9400041 	ldr	w1, [x2]
    ff3b0310:	32100021 	orr	w1, w1, #0x10000
    ff3b0314:	b9000041 	str	w1, [x2]
    ff3b0318:	11037002 	add	w2, w0, #0xdc
    ff3b031c:	11080000 	add	w0, w0, #0x200
    ff3b0320:	6b00007f 	cmp	w3, w0
    ff3b0324:	b9400041 	ldr	w1, [x2]
    ff3b0328:	12003c21 	and	w1, w1, #0xffff
    ff3b032c:	32070021 	orr	w1, w1, #0x2000000
    ff3b0330:	b9000041 	str	w1, [x2]
    ff3b0334:	54fffea1 	b.ne	ff3b0308 <data_training.constprop.0+0x1c0>  // b.any
    ff3b0338:	110c80a0 	add	w0, w5, #0x320
    ff3b033c:	52841590 	mov	w16, #0x20ac                	// #8364
    ff3b0340:	1124a0ae 	add	w14, w5, #0x928
    ff3b0344:	0b1000ad 	add	w13, w5, w16
    ff3b0348:	5280000c 	mov	w12, #0x0                   	// #0
    ff3b034c:	b9400001 	ldr	w1, [x0]
    ff3b0350:	32180021 	orr	w1, w1, #0x100
    ff3b0354:	b9000001 	str	w1, [x0]
    ff3b0358:	b94000c0 	ldr	w0, [x6]
    ff3b035c:	12167400 	and	w0, w0, #0xfffffcff
    ff3b0360:	b90000c0 	str	w0, [x6]
    ff3b0364:	112500a6 	add	w6, w5, #0x940
    ff3b0368:	6b0c017f 	cmp	w11, w12
    ff3b036c:	54000a88 	b.hi	ff3b04bc <data_training.constprop.0+0x374>  // b.pmore
    ff3b0370:	b94000c0 	ldr	w0, [x6]
    ff3b0374:	12067400 	and	w0, w0, #0xfcffffff
    ff3b0378:	b90000c0 	str	w0, [x6]
    ff3b037c:	371813aa 	tbnz	w10, #3, ff3b05f0 <data_training.constprop.0+0x4a8>
    ff3b0380:	3620156a 	tbz	w10, #4, ff3b062c <data_training.constprop.0+0x4e4>
    ff3b0384:	1127c0a6 	add	w6, w5, #0x9f0
    ff3b0388:	112b50ab 	add	w11, w5, #0xad4
    ff3b038c:	112790ac 	add	w12, w5, #0x9e4
    ff3b0390:	5280000a 	mov	w10, #0x0                   	// #0
    ff3b0394:	52800020 	mov	w0, #0x1                   	// #1
    ff3b0398:	1aca2000 	lsl	w0, w0, w10
    ff3b039c:	6a09001f 	tst	w0, w9
    ff3b03a0:	540013a0 	b.eq	ff3b0614 <data_training.constprop.0+0x4cc>  // b.none
    ff3b03a4:	2a0803e0 	mov	w0, w8
    ff3b03a8:	2a0a03e1 	mov	w1, w10
    ff3b03ac:	97ffff52 	bl	ff3b00f4 <select_per_cs_training_index>
    ff3b03b0:	b9400160 	ldr	w0, [x11]
    ff3b03b4:	529fdfe1 	mov	w1, #0xfeff                	// #65279
    ff3b03b8:	52860803 	mov	w3, #0x3040                	// #12352
    ff3b03bc:	12177800 	and	w0, w0, #0xfffffeff
    ff3b03c0:	b9000160 	str	w0, [x11]
    ff3b03c4:	72bfff81 	movk	w1, #0xfffc, lsl #16
    ff3b03c8:	b94000c0 	ldr	w0, [x6]
    ff3b03cc:	120e7400 	and	w0, w0, #0xfffcffff
    ff3b03d0:	320f0000 	orr	w0, w0, #0x20000
    ff3b03d4:	b90000c0 	str	w0, [x6]
    ff3b03d8:	b9400180 	ldr	w0, [x12]
    ff3b03dc:	0a010000 	and	w0, w0, w1
    ff3b03e0:	112ae0a1 	add	w1, w5, #0xab8
    ff3b03e4:	2a0a4000 	orr	w0, w0, w10, lsl #16
    ff3b03e8:	32180000 	orr	w0, w0, #0x100
    ff3b03ec:	b9000180 	str	w0, [x12]
    ff3b03f0:	b9400020 	ldr	w0, [x1]
    ff3b03f4:	53087c02 	lsr	w2, w0, #8
    ff3b03f8:	0a402060 	and	w0, w3, w0, lsr #8
    ff3b03fc:	71400c1f 	cmp	w0, #0x3, lsl #12
    ff3b0400:	54001040 	b.eq	ff3b0608 <data_training.constprop.0+0x4c0>  // b.none
    ff3b0404:	3637ff62 	tbz	w2, #6, ff3b03f0 <data_training.constprop.0+0x2a8>
    ff3b0408:	17ffff9d 	b	ff3b027c <data_training.constprop.0+0x134>
    ff3b040c:	2a0803e0 	mov	w0, w8
    ff3b0410:	2a0c03e1 	mov	w1, w12
    ff3b0414:	97ffff38 	bl	ff3b00f4 <select_per_cs_training_index>
    ff3b0418:	b94000c0 	ldr	w0, [x6]
    ff3b041c:	1123b0a1 	add	w1, w5, #0x8ec
    ff3b0420:	52845413 	mov	w19, #0x22a0                	// #8864
    ff3b0424:	12167400 	and	w0, w0, #0xfffffcff
    ff3b0428:	52849414 	mov	w20, #0x24a0                	// #9376
    ff3b042c:	32170000 	orr	w0, w0, #0x200
    ff3b0430:	b90000c0 	str	w0, [x6]
    ff3b0434:	5284d41e 	mov	w30, #0x26a0                	// #9888
    ff3b0438:	112ae0a2 	add	w2, w5, #0xab8
    ff3b043c:	b9400020 	ldr	w0, [x1]
    ff3b0440:	0b1300a3 	add	w3, w5, w19
    ff3b0444:	0b1400a4 	add	w4, w5, w20
    ff3b0448:	0b1e00af 	add	w15, w5, w30
    ff3b044c:	0a0e0000 	and	w0, w0, w14
    ff3b0450:	52848211 	mov	w17, #0x2410                	// #9232
    ff3b0454:	2a0c4000 	orr	w0, w0, w12, lsl #16
    ff3b0458:	52848012 	mov	w18, #0x2400                	// #9216
    ff3b045c:	32180000 	orr	w0, w0, #0x100
    ff3b0460:	b9000020 	str	w0, [x1]
    ff3b0464:	b9400041 	ldr	w1, [x2]
    ff3b0468:	b94001a0 	ldr	w0, [x13]
    ff3b046c:	b940007e 	ldr	w30, [x3]
    ff3b0470:	b9400090 	ldr	w16, [x4]
    ff3b0474:	53087c33 	lsr	w19, w1, #8
    ff3b0478:	b94001f4 	ldr	w20, [x15]
    ff3b047c:	2a1e0000 	orr	w0, w0, w30
    ff3b0480:	0a412221 	and	w1, w17, w1, lsr #8
    ff3b0484:	2a140210 	orr	w16, w16, w20
    ff3b0488:	6b12003f 	cmp	w1, w18
    ff3b048c:	2a100000 	orr	w0, w0, w16
    ff3b0490:	12140000 	and	w0, w0, #0x1000
    ff3b0494:	54000041 	b.ne	ff3b049c <data_training.constprop.0+0x354>  // b.any
    ff3b0498:	34000080 	cbz	w0, ff3b04a8 <data_training.constprop.0+0x360>
    ff3b049c:	3727ef13 	tbnz	w19, #4, ff3b027c <data_training.constprop.0+0x134>
    ff3b04a0:	34fffe20 	cbz	w0, ff3b0464 <data_training.constprop.0+0x31c>
    ff3b04a4:	17ffff76 	b	ff3b027c <data_training.constprop.0+0x134>
    ff3b04a8:	112af0a0 	add	w0, w5, #0xabc
    ff3b04ac:	5287ef81 	mov	w1, #0x3f7c                	// #16252
    ff3b04b0:	1100058c 	add	w12, w12, #0x1
    ff3b04b4:	b9000001 	str	w1, [x0]
    ff3b04b8:	17ffff8e 	b	ff3b02f0 <data_training.constprop.0+0x1a8>
    ff3b04bc:	2a0c03e1 	mov	w1, w12
    ff3b04c0:	2a0803e0 	mov	w0, w8
    ff3b04c4:	97ffff0c 	bl	ff3b00f4 <select_per_cs_training_index>
    ff3b04c8:	2a0e03e1 	mov	w1, w14
    ff3b04cc:	52845580 	mov	w0, #0x22ac                	// #8876
    ff3b04d0:	0b0000a3 	add	w3, w5, w0
    ff3b04d4:	b94000c0 	ldr	w0, [x6]
    ff3b04d8:	12a06022 	mov	w2, #0xfcfeffff            	// #-50397185
    ff3b04dc:	52849584 	mov	w4, #0x24ac                	// #9388
    ff3b04e0:	5284d58f 	mov	w15, #0x26ac                	// #9900
    ff3b04e4:	12067400 	and	w0, w0, #0xfcffffff
    ff3b04e8:	0b0400a4 	add	w4, w5, w4
    ff3b04ec:	32070000 	orr	w0, w0, #0x2000000
    ff3b04f0:	b90000c0 	str	w0, [x6]
    ff3b04f4:	0b0f00af 	add	w15, w5, w15
    ff3b04f8:	52844112 	mov	w18, #0x2208                	// #8712
    ff3b04fc:	b9400020 	ldr	w0, [x1]
    ff3b0500:	5284401e 	mov	w30, #0x2200                	// #8704
    ff3b0504:	0a020000 	and	w0, w0, w2
    ff3b0508:	112ae0a2 	add	w2, w5, #0xab8
    ff3b050c:	2a0c6000 	orr	w0, w0, w12, lsl #24
    ff3b0510:	32100000 	orr	w0, w0, #0x10000
    ff3b0514:	b9000020 	str	w0, [x1]
    ff3b0518:	b9400041 	ldr	w1, [x2]
    ff3b051c:	b94001a0 	ldr	w0, [x13]
    ff3b0520:	b9400074 	ldr	w20, [x3]
    ff3b0524:	b9400090 	ldr	w16, [x4]
    ff3b0528:	53087c33 	lsr	w19, w1, #8
    ff3b052c:	b94001f1 	ldr	w17, [x15]
    ff3b0530:	2a140000 	orr	w0, w0, w20
    ff3b0534:	0a412241 	and	w1, w18, w1, lsr #8
    ff3b0538:	6b1e003f 	cmp	w1, w30
    ff3b053c:	53167e31 	lsr	w17, w17, #22
    ff3b0540:	2a505a30 	orr	w16, w17, w16, lsr #22
    ff3b0544:	2a405a00 	orr	w0, w16, w0, lsr #22
    ff3b0548:	12000400 	and	w0, w0, #0x3
    ff3b054c:	54000041 	b.ne	ff3b0554 <data_training.constprop.0+0x40c>  // b.any
    ff3b0550:	34000080 	cbz	w0, ff3b0560 <data_training.constprop.0+0x418>
    ff3b0554:	371fe953 	tbnz	w19, #3, ff3b027c <data_training.constprop.0+0x134>
    ff3b0558:	34fffe00 	cbz	w0, ff3b0518 <data_training.constprop.0+0x3d0>
    ff3b055c:	17ffff48 	b	ff3b027c <data_training.constprop.0+0x134>
    ff3b0560:	112af0a0 	add	w0, w5, #0xabc
    ff3b0564:	5287ef81 	mov	w1, #0x3f7c                	// #16252
    ff3b0568:	1100058c 	add	w12, w12, #0x1
    ff3b056c:	b9000001 	str	w1, [x0]
    ff3b0570:	17ffff7e 	b	ff3b0368 <data_training.constprop.0+0x220>
    ff3b0574:	2a0803e0 	mov	w0, w8
    ff3b0578:	2a0c03e1 	mov	w1, w12
    ff3b057c:	97fffede 	bl	ff3b00f4 <select_per_cs_training_index>
    ff3b0580:	b94000c0 	ldr	w0, [x6]
    ff3b0584:	52842082 	mov	w2, #0x2104                	// #8452
    ff3b0588:	52842003 	mov	w3, #0x2100                	// #8448
    ff3b058c:	120e7400 	and	w0, w0, #0xfffcffff
    ff3b0590:	320f0000 	orr	w0, w0, #0x20000
    ff3b0594:	b90000c0 	str	w0, [x6]
    ff3b0598:	b94001a0 	ldr	w0, [x13]
    ff3b059c:	0a0f0000 	and	w0, w0, w15
    ff3b05a0:	2a0c6000 	orr	w0, w0, w12, lsl #24
    ff3b05a4:	32180000 	orr	w0, w0, #0x100
    ff3b05a8:	b90001a0 	str	w0, [x13]
    ff3b05ac:	b94001c0 	ldr	w0, [x14]
    ff3b05b0:	53087c01 	lsr	w1, w0, #8
    ff3b05b4:	0a402040 	and	w0, w2, w0, lsr #8
    ff3b05b8:	6b03001f 	cmp	w0, w3
    ff3b05bc:	54000060 	b.eq	ff3b05c8 <data_training.constprop.0+0x480>  // b.none
    ff3b05c0:	3617ff61 	tbz	w1, #2, ff3b05ac <data_training.constprop.0+0x464>
    ff3b05c4:	17ffff2e 	b	ff3b027c <data_training.constprop.0+0x134>
    ff3b05c8:	112af0a0 	add	w0, w5, #0xabc
    ff3b05cc:	1100058c 	add	w12, w12, #0x1
    ff3b05d0:	5287ef81 	mov	w1, #0x3f7c                	// #16252
    ff3b05d4:	b9000001 	str	w1, [x0]
    ff3b05d8:	6b0c017f 	cmp	w11, w12
    ff3b05dc:	54fffcc8 	b.hi	ff3b0574 <data_training.constprop.0+0x42c>  // b.pmore
    ff3b05e0:	b94000c0 	ldr	w0, [x6]
    ff3b05e4:	120e7400 	and	w0, w0, #0xfffcffff
    ff3b05e8:	b90000c0 	str	w0, [x6]
    ff3b05ec:	17ffff65 	b	ff3b0380 <data_training.constprop.0+0x238>
    ff3b05f0:	529fdfef 	mov	w15, #0xfeff                	// #65279
    ff3b05f4:	1124a0ad 	add	w13, w5, #0x928
    ff3b05f8:	112ae0ae 	add	w14, w5, #0xab8
    ff3b05fc:	5280000c 	mov	w12, #0x0                   	// #0
    ff3b0600:	72bf9fef 	movk	w15, #0xfcff, lsl #16
    ff3b0604:	17fffff5 	b	ff3b05d8 <data_training.constprop.0+0x490>
    ff3b0608:	112af0a0 	add	w0, w5, #0xabc
    ff3b060c:	5287ef81 	mov	w1, #0x3f7c                	// #16252
    ff3b0610:	b9000001 	str	w1, [x0]
    ff3b0614:	1100054a 	add	w10, w10, #0x1
    ff3b0618:	7100115f 	cmp	w10, #0x4
    ff3b061c:	54ffebc1 	b.ne	ff3b0394 <data_training.constprop.0+0x24c>  // b.any
    ff3b0620:	b94000c0 	ldr	w0, [x6]
    ff3b0624:	120e7400 	and	w0, w0, #0xfffcffff
    ff3b0628:	b90000c0 	str	w0, [x6]
    ff3b062c:	b94000e0 	ldr	w0, [x7]
    ff3b0630:	12097800 	and	w0, w0, #0xffbfffff
    ff3b0634:	b90000e0 	str	w0, [x7]
    ff3b0638:	52800000 	mov	w0, #0x0                   	// #0
    ff3b063c:	17ffff11 	b	ff3b0280 <data_training.constprop.0+0x138>

00000000ff3b0640 <dmc_resume>:
    ff3b0640:	a9ba7bfd 	stp	x29, x30, [sp, #-96]!
    ff3b0644:	d280a200 	mov	x0, #0x510                 	// #1296
    ff3b0648:	f2bfeec0 	movk	x0, #0xff76, lsl #16
    ff3b064c:	910003fd 	mov	x29, sp
    ff3b0650:	a90153f3 	stp	x19, x20, [sp, #16]
    ff3b0654:	52800041 	mov	w1, #0x2                   	// #2
    ff3b0658:	a9025bf5 	stp	x21, x22, [sp, #32]
    ff3b065c:	a90363f7 	stp	x23, x24, [sp, #48]
    ff3b0660:	a9046bf9 	stp	x25, x26, [sp, #64]
    ff3b0664:	f9002bfb 	str	x27, [sp, #80]
    ff3b0668:	b9000001 	str	w1, [x0]
    ff3b066c:	d2900080 	mov	x0, #0x8004                	// #32772
    ff3b0670:	f2bff080 	movk	x0, #0xff84, lsl #16
    ff3b0674:	52800121 	mov	w1, #0x9                   	// #9
    ff3b0678:	b9000001 	str	w1, [x0]
    ff3b067c:	d2900001 	mov	x1, #0x8000                	// #32768
    ff3b0680:	f2bff081 	movk	x1, #0xff84, lsl #16
    ff3b0684:	b9400020 	ldr	w0, [x1]
    ff3b0688:	32000000 	orr	w0, w0, #0x1
    ff3b068c:	b9000020 	str	w0, [x1]
    ff3b0690:	d2900180 	mov	x0, #0x800c                	// #32780
    ff3b0694:	52800ec1 	mov	w1, #0x76                  	// #118
    ff3b0698:	f2bff080 	movk	x0, #0xff84, lsl #16
    ff3b069c:	b9000001 	str	w1, [x0]
    ff3b06a0:	940001ad 	bl	ff3b0d54 <secure_watchdog_ungate>
    ff3b06a4:	d2800b81 	mov	x1, #0x5c                  	// #92
    ff3b06a8:	12800282 	mov	w2, #0xffffffeb            	// #-21
    ff3b06ac:	f2bfe621 	movk	x1, #0xff31, lsl #16
    ff3b06b0:	b9400020 	ldr	w0, [x1]
    ff3b06b4:	0a020000 	and	w0, w0, w2
    ff3b06b8:	b9000020 	str	w0, [x1]
    ff3b06bc:	940001b7 	bl	ff3b0d98 <pmu_sgrf_rst_hld_release>
    ff3b06c0:	940001bb 	bl	ff3b0dac <restore_pmu_rsthold>
    ff3b06c4:	940001a9 	bl	ff3b0d68 <sram_secure_timer_init>
    ff3b06c8:	b0000000 	adrp	x0, ff3b1000 <rk3399m0pmu_bin>
    ff3b06cc:	d2802302 	mov	x2, #0x118                 	// #280
    ff3b06d0:	913cc001 	add	x1, x0, #0xf30
    ff3b06d4:	f2bfeec2 	movk	x2, #0xff76, lsl #16
    ff3b06d8:	b94f3000 	ldr	w0, [x0, #3888]
    ff3b06dc:	d2800983 	mov	x3, #0x4c                  	// #76
    ff3b06e0:	f2bfeec3 	movk	x3, #0xff76, lsl #16
    ff3b06e4:	d2800a04 	mov	x4, #0x50                  	// #80
    ff3b06e8:	32103c00 	orr	w0, w0, #0xffff0000
    ff3b06ec:	b9000040 	str	w0, [x2]
    ff3b06f0:	52a06000 	mov	w0, #0x3000000             	// #50331648
    ff3b06f4:	b9000060 	str	w0, [x3]
    ff3b06f8:	d2800802 	mov	x2, #0x40                  	// #64
    ff3b06fc:	91001020 	add	x0, x1, #0x4
    ff3b0700:	f2bfeec2 	movk	x2, #0xff76, lsl #16
    ff3b0704:	b9400421 	ldr	w1, [x1, #4]
    ff3b0708:	f2bfeec4 	movk	x4, #0xff76, lsl #16
    ff3b070c:	32103c21 	orr	w1, w1, #0xffff0000
    ff3b0710:	b9000041 	str	w1, [x2]
    ff3b0714:	b9400401 	ldr	w1, [x0, #4]
    ff3b0718:	32103c21 	orr	w1, w1, #0xffff0000
    ff3b071c:	b9000441 	str	w1, [x2, #4]
    ff3b0720:	d2800901 	mov	x1, #0x48                  	// #72
    ff3b0724:	f2bfeec1 	movk	x1, #0xff76, lsl #16
    ff3b0728:	b9400802 	ldr	w2, [x0, #8]
    ff3b072c:	b9000022 	str	w2, [x1]
    ff3b0730:	b9401002 	ldr	w2, [x0, #16]
    ff3b0734:	32103c42 	orr	w2, w2, #0xffff0000
    ff3b0738:	b9000082 	str	w2, [x4]
    ff3b073c:	b9401402 	ldr	w2, [x0, #20]
    ff3b0740:	32103c42 	orr	w2, w2, #0xffff0000
    ff3b0744:	b9000482 	str	w2, [x4, #4]
    ff3b0748:	b9400c00 	ldr	w0, [x0, #12]
    ff3b074c:	32103c00 	orr	w0, w0, #0xffff0000
    ff3b0750:	b9000060 	str	w0, [x3]
    ff3b0754:	b9400020 	ldr	w0, [x1]
    ff3b0758:	36ffffe0 	tbz	w0, #31, ff3b0754 <dmc_resume+0x114>
    ff3b075c:	d2800800 	mov	x0, #0x40                  	// #64
    ff3b0760:	52984001 	mov	w1, #0xc200                	// #49664
    ff3b0764:	f2bfe660 	movk	x0, #0xff33, lsl #16
    ff3b0768:	b0000013 	adrp	x19, ff3b1000 <rk3399m0pmu_bin>
    ff3b076c:	b0000016 	adrp	x22, ff3b1000 <rk3399m0pmu_bin>
    ff3b0770:	d2802215 	mov	x21, #0x110                 	// #272
    ff3b0774:	91090273 	add	x19, x19, #0x240
    ff3b0778:	910a52d6 	add	x22, x22, #0x294
    ff3b077c:	72b84001 	movk	w1, #0xc200, lsl #16
    ff3b0780:	52800014 	mov	w20, #0x0                   	// #0
    ff3b0784:	f2bff515 	movk	x21, #0xffa8, lsl #16
    ff3b0788:	b9000001 	str	w1, [x0]
    ff3b078c:	52850005 	mov	w5, #0x2800                	// #10240
    ff3b0790:	52800006 	mov	w6, #0x0                   	// #0
    ff3b0794:	72bff505 	movk	w5, #0xffa8, lsl #16
    ff3b0798:	39413660 	ldrb	w0, [x19, #77]
    ff3b079c:	6b06001f 	cmp	w0, w6
    ff3b07a0:	54000528 	b.hi	ff3b0844 <dmc_resume+0x204>  // b.pmore
    ff3b07a4:	39400660 	ldrb	w0, [x19, #1]
    ff3b07a8:	34000040 	cbz	w0, ff3b07b0 <dmc_resume+0x170>
    ff3b07ac:	32000294 	orr	w20, w20, #0x1
    ff3b07b0:	39409660 	ldrb	w0, [x19, #37]
    ff3b07b4:	34000040 	cbz	w0, ff3b07bc <dmc_resume+0x17c>
    ff3b07b8:	321f0294 	orr	w20, w20, #0x2
    ff3b07bc:	b94002a0 	ldr	w0, [x21]
    ff3b07c0:	d2902201 	mov	x1, #0x8110                	// #33040
    ff3b07c4:	f2bff501 	movk	x1, #0xffa8, lsl #16
    ff3b07c8:	32100000 	orr	w0, w0, #0x10000
    ff3b07cc:	b90002a0 	str	w0, [x21]
    ff3b07d0:	b9400020 	ldr	w0, [x1]
    ff3b07d4:	32100000 	orr	w0, w0, #0x10000
    ff3b07d8:	b9000020 	str	w0, [x1]
    ff3b07dc:	12000281 	and	w1, w20, #0x1
    ff3b07e0:	360000d4 	tbz	w20, #0, ff3b07f8 <dmc_resume+0x1b8>
    ff3b07e4:	d2800402 	mov	x2, #0x20                  	// #32
    ff3b07e8:	f2bfe622 	movk	x2, #0xff31, lsl #16
    ff3b07ec:	b9400040 	ldr	w0, [x2]
    ff3b07f0:	320d0000 	orr	w0, w0, #0x80000
    ff3b07f4:	b9000040 	str	w0, [x2]
    ff3b07f8:	121f0286 	and	w6, w20, #0x2
    ff3b07fc:	36080f34 	tbz	w20, #1, ff3b09e0 <dmc_resume+0x3a0>
    ff3b0800:	d2800402 	mov	x2, #0x20                  	// #32
    ff3b0804:	f2bfe622 	movk	x2, #0xff31, lsl #16
    ff3b0808:	b9400040 	ldr	w0, [x2]
    ff3b080c:	32090000 	orr	w0, w0, #0x800000
    ff3b0810:	b9000040 	str	w0, [x2]
    ff3b0814:	35000e81 	cbnz	w1, ff3b09e4 <dmc_resume+0x3a4>
    ff3b0818:	d295de82 	mov	x2, #0xaef4                	// #44788
    ff3b081c:	f2bff502 	movk	x2, #0xffa8, lsl #16
    ff3b0820:	b9400040 	ldr	w0, [x2]
    ff3b0824:	12067400 	and	w0, w0, #0xfcffffff
    ff3b0828:	32070000 	orr	w0, w0, #0x2000000
    ff3b082c:	b9000040 	str	w0, [x2]
    ff3b0830:	35000e81 	cbnz	w1, ff3b0a00 <dmc_resume+0x3c0>
    ff3b0834:	d2906586 	mov	x6, #0x832c                	// #33580
    ff3b0838:	52800cc5 	mov	w5, #0x66                  	// #102
    ff3b083c:	f2bff506 	movk	x6, #0xffa8, lsl #16
    ff3b0840:	140000fa 	b	ff3b0c28 <dmc_resume+0x5e8>
    ff3b0844:	52800022 	mov	w2, #0x1                   	// #1
    ff3b0848:	2a0203e1 	mov	w1, w2
    ff3b084c:	2a0603e0 	mov	w0, w6
    ff3b0850:	97fffe17 	bl	ff3b00ac <rkclk_ddr_reset>
    ff3b0854:	52800140 	mov	w0, #0xa                   	// #10
    ff3b0858:	97fffe09 	bl	ff3b007c <sram_udelay>
    ff3b085c:	2a0603e0 	mov	w0, w6
    ff3b0860:	52800002 	mov	w2, #0x0                   	// #0
    ff3b0864:	52800021 	mov	w1, #0x1                   	// #1
    ff3b0868:	97fffe11 	bl	ff3b00ac <rkclk_ddr_reset>
    ff3b086c:	52800140 	mov	w0, #0xa                   	// #10
    ff3b0870:	97fffe03 	bl	ff3b007c <sram_udelay>
    ff3b0874:	52800002 	mov	w2, #0x0                   	// #0
    ff3b0878:	52800001 	mov	w1, #0x0                   	// #0
    ff3b087c:	2a0603e0 	mov	w0, w6
    ff3b0880:	97fffe0b 	bl	ff3b00ac <rkclk_ddr_reset>
    ff3b0884:	52800140 	mov	w0, #0xa                   	// #10
    ff3b0888:	97fffdfd 	bl	ff3b007c <sram_udelay>
    ff3b088c:	aa1603e1 	mov	x1, x22
    ff3b0890:	52802962 	mov	w2, #0x14b                 	// #331
    ff3b0894:	1284ff60 	mov	w0, #0xffffd804            	// #-10236
    ff3b0898:	0b0000a0 	add	w0, w5, w0
    ff3b089c:	97fffdef 	bl	ff3b0058 <sram_regcpy>
    ff3b08a0:	514008a4 	sub	w4, w5, #0x2, lsl #12
    ff3b08a4:	1284ffe1 	mov	w1, #0xffffd800            	// #-10240
    ff3b08a8:	0b0100a7 	add	w7, w5, w1
    ff3b08ac:	b9405260 	ldr	w0, [x19, #80]
    ff3b08b0:	52801902 	mov	w2, #0xc8                  	// #200
    ff3b08b4:	b0000001 	adrp	x1, ff3b1000 <rk3399m0pmu_bin>
    ff3b08b8:	911f0021 	add	x1, x1, #0x7c0
    ff3b08bc:	b90000e0 	str	w0, [x7]
    ff3b08c0:	aa0403e0 	mov	x0, x4
    ff3b08c4:	97fffde5 	bl	ff3b0058 <sram_regcpy>
    ff3b08c8:	1118e0a0 	add	w0, w5, #0x638
    ff3b08cc:	52800062 	mov	w2, #0x3                   	// #3
    ff3b08d0:	b0000001 	adrp	x1, ff3b1000 <rk3399m0pmu_bin>
    ff3b08d4:	91393021 	add	x1, x1, #0xe4c
    ff3b08d8:	97fffde0 	bl	ff3b0058 <sram_regcpy>
    ff3b08dc:	1284dde2 	mov	w2, #0xffffd910            	// #-9968
    ff3b08e0:	0b0200a1 	add	w1, w5, w2
    ff3b08e4:	b9400020 	ldr	w0, [x1]
    ff3b08e8:	32100000 	orr	w0, w0, #0x10000
    ff3b08ec:	b9000020 	str	w0, [x1]
    ff3b08f0:	111bd0a1 	add	w1, w5, #0x6f4
    ff3b08f4:	b9400020 	ldr	w0, [x1]
    ff3b08f8:	12067400 	and	w0, w0, #0xfcffffff
    ff3b08fc:	32080000 	orr	w0, w0, #0x1000000
    ff3b0900:	b9000020 	str	w0, [x1]
    ff3b0904:	d5033ebf 	dmb	st
    ff3b0908:	b9400080 	ldr	w0, [x4]
    ff3b090c:	111980a2 	add	w2, w5, #0x660
    ff3b0910:	111990a3 	add	w3, w5, #0x664
    ff3b0914:	1118f0a1 	add	w1, w5, #0x63c
    ff3b0918:	32000000 	orr	w0, w0, #0x1
    ff3b091c:	b9000080 	str	w0, [x4]
    ff3b0920:	1119a0a4 	add	w4, w5, #0x668
    ff3b0924:	b94000e0 	ldr	w0, [x7]
    ff3b0928:	32000000 	orr	w0, w0, #0x1
    ff3b092c:	b90000e0 	str	w0, [x7]
    ff3b0930:	320083e7 	mov	w7, #0x10001               	// #65537
    ff3b0934:	b9400049 	ldr	w9, [x2]
    ff3b0938:	b9400060 	ldr	w0, [x3]
    ff3b093c:	b9400088 	ldr	w8, [x4]
    ff3b0940:	368000a9 	tbz	w9, #16, ff3b0954 <dmc_resume+0x314>
    ff3b0944:	12008000 	and	w0, w0, #0x10001
    ff3b0948:	6b07001f 	cmp	w0, w7
    ff3b094c:	54000041 	b.ne	ff3b0954 <dmc_resume+0x314>  // b.any
    ff3b0950:	37000068 	tbnz	w8, #0, ff3b095c <dmc_resume+0x31c>
    ff3b0954:	b9400020 	ldr	w0, [x1]
    ff3b0958:	3607fee0 	tbz	w0, #0, ff3b0934 <dmc_resume+0x2f4>
    ff3b095c:	111800a0 	add	w0, w5, #0x600
    ff3b0960:	528007e2 	mov	w2, #0x3f                  	// #63
    ff3b0964:	b0000001 	adrp	x1, ff3b1000 <rk3399m0pmu_bin>
    ff3b0968:	91385021 	add	x1, x1, #0xe14
    ff3b096c:	97fffdbb 	bl	ff3b0058 <sram_regcpy>
    ff3b0970:	512000a4 	sub	w4, w5, #0x800
    ff3b0974:	b0000007 	adrp	x7, ff3b1000 <rk3399m0pmu_bin>
    ff3b0978:	912b80e7 	add	x7, x7, #0xae0
    ff3b097c:	2a0403e0 	mov	w0, w4
    ff3b0980:	aa0703e1 	mov	x1, x7
    ff3b0984:	52800b62 	mov	w2, #0x5b                  	// #91
    ff3b0988:	97fffdb4 	bl	ff3b0058 <sram_regcpy>
    ff3b098c:	11080084 	add	w4, w4, #0x200
    ff3b0990:	6b0400bf 	cmp	w5, w4
    ff3b0994:	54ffff41 	b.ne	ff3b097c <dmc_resume+0x33c>  // b.any
    ff3b0998:	2a0503e0 	mov	w0, w5
    ff3b099c:	528004c2 	mov	w2, #0x26                  	// #38
    ff3b09a0:	b0000001 	adrp	x1, ff3b1000 <rk3399m0pmu_bin>
    ff3b09a4:	91313021 	add	x1, x1, #0xc4c
    ff3b09a8:	97fffdac 	bl	ff3b0058 <sram_regcpy>
    ff3b09ac:	110800a0 	add	w0, w5, #0x200
    ff3b09b0:	528004c2 	mov	w2, #0x26                  	// #38
    ff3b09b4:	b0000001 	adrp	x1, ff3b1000 <rk3399m0pmu_bin>
    ff3b09b8:	91339021 	add	x1, x1, #0xce4
    ff3b09bc:	97fffda7 	bl	ff3b0058 <sram_regcpy>
    ff3b09c0:	528004c2 	mov	w2, #0x26                  	// #38
    ff3b09c4:	111000a0 	add	w0, w5, #0x400
    ff3b09c8:	b0000001 	adrp	x1, ff3b1000 <rk3399m0pmu_bin>
    ff3b09cc:	9135f021 	add	x1, x1, #0xd7c
    ff3b09d0:	97fffda2 	bl	ff3b0058 <sram_regcpy>
    ff3b09d4:	110004c6 	add	w6, w6, #0x1
    ff3b09d8:	114020a5 	add	w5, w5, #0x8, lsl #12
    ff3b09dc:	17ffff6f 	b	ff3b0798 <dmc_resume+0x158>
    ff3b09e0:	340003e1 	cbz	w1, ff3b0a5c <dmc_resume+0x41c>
    ff3b09e4:	d285de82 	mov	x2, #0x2ef4                	// #12020
    ff3b09e8:	f2bff502 	movk	x2, #0xffa8, lsl #16
    ff3b09ec:	b9400040 	ldr	w0, [x2]
    ff3b09f0:	12067400 	and	w0, w0, #0xfcffffff
    ff3b09f4:	32070000 	orr	w0, w0, #0x2000000
    ff3b09f8:	b9000040 	str	w0, [x2]
    ff3b09fc:	35fff0e6 	cbnz	w6, ff3b0818 <dmc_resume+0x1d8>
    ff3b0a00:	d2806587 	mov	x7, #0x32c                 	// #812
    ff3b0a04:	52800cc5 	mov	w5, #0x66                  	// #102
    ff3b0a08:	f2bff507 	movk	x7, #0xffa8, lsl #16
    ff3b0a0c:	b94000e0 	ldr	w0, [x7]
    ff3b0a10:	36180fa0 	tbz	w0, #3, ff3b0c04 <dmc_resume+0x5c4>
    ff3b0a14:	b94002a0 	ldr	w0, [x21]
    ff3b0a18:	b0000002 	adrp	x2, ff3b1000 <rk3399m0pmu_bin>
    ff3b0a1c:	d2851c83 	mov	x3, #0x28e4                	// #10468
    ff3b0a20:	913c4042 	add	x2, x2, #0xf10
    ff3b0a24:	120f7800 	and	w0, w0, #0xfffeffff
    ff3b0a28:	b90002a0 	str	w0, [x21]
    ff3b0a2c:	d2841c80 	mov	x0, #0x20e4                	// #8420
    ff3b0a30:	f2bff503 	movk	x3, #0xffa8, lsl #16
    ff3b0a34:	f2bff500 	movk	x0, #0xffa8, lsl #16
    ff3b0a38:	b9400001 	ldr	w1, [x0]
    ff3b0a3c:	b8404444 	ldr	w4, [x2], #4
    ff3b0a40:	12044c21 	and	w1, w1, #0xf000ffff
    ff3b0a44:	2a040021 	orr	w1, w1, w4
    ff3b0a48:	b9000001 	str	w1, [x0]
    ff3b0a4c:	91080000 	add	x0, x0, #0x200
    ff3b0a50:	eb03001f 	cmp	x0, x3
    ff3b0a54:	54ffff21 	b.ne	ff3b0a38 <dmc_resume+0x3f8>  // b.any
    ff3b0a58:	35ffeee6 	cbnz	w6, ff3b0834 <dmc_resume+0x1f4>
    ff3b0a5c:	d288011b 	mov	x27, #0x4008                	// #16392
    ff3b0a60:	aa1303f9 	mov	x25, x19
    ff3b0a64:	f2bff51b 	movk	x27, #0xffa8, lsl #16
    ff3b0a68:	5280001a 	mov	w26, #0x0                   	// #0
    ff3b0a6c:	52800037 	mov	w23, #0x1                   	// #1
    ff3b0a70:	52800078 	mov	w24, #0x3                   	// #3
    ff3b0a74:	39413660 	ldrb	w0, [x19, #77]
    ff3b0a78:	6b1a001f 	cmp	w0, w26
    ff3b0a7c:	54001028 	b.hi	ff3b0c80 <dmc_resume+0x640>  // b.pmore
    ff3b0a80:	39400660 	ldrb	w0, [x19, #1]
    ff3b0a84:	340002a0 	cbz	w0, ff3b0ad8 <dmc_resume+0x498>
    ff3b0a88:	d2880200 	mov	x0, #0x4010                	// #16400
    ff3b0a8c:	b9400e61 	ldr	w1, [x19, #12]
    ff3b0a90:	f2bff500 	movk	x0, #0xffa8, lsl #16
    ff3b0a94:	b9000001 	str	w1, [x0]
    ff3b0a98:	b9401261 	ldr	w1, [x19, #16]
    ff3b0a9c:	b9000401 	str	w1, [x0, #4]
    ff3b0aa0:	b9401661 	ldr	w1, [x19, #20]
    ff3b0aa4:	b9000801 	str	w1, [x0, #8]
    ff3b0aa8:	b9401a61 	ldr	w1, [x19, #24]
    ff3b0aac:	b9000c01 	str	w1, [x0, #12]
    ff3b0ab0:	b9401e61 	ldr	w1, [x19, #28]
    ff3b0ab4:	b9010001 	str	w1, [x0, #256]
    ff3b0ab8:	39400260 	ldrb	w0, [x19]
    ff3b0abc:	7100041f 	cmp	w0, #0x1
    ff3b0ac0:	540000c1 	b.ne	ff3b0ad8 <dmc_resume+0x498>  // b.any
    ff3b0ac4:	d2808a01 	mov	x1, #0x450                 	// #1104
    ff3b0ac8:	f2bff501 	movk	x1, #0xffa8, lsl #16
    ff3b0acc:	b9400020 	ldr	w0, [x1]
    ff3b0ad0:	320f0000 	orr	w0, w0, #0x20000
    ff3b0ad4:	b9000020 	str	w0, [x1]
    ff3b0ad8:	39409660 	ldrb	w0, [x19, #37]
    ff3b0adc:	340002a0 	cbz	w0, ff3b0b30 <dmc_resume+0x4f0>
    ff3b0ae0:	d2980200 	mov	x0, #0xc010                	// #49168
    ff3b0ae4:	b9403261 	ldr	w1, [x19, #48]
    ff3b0ae8:	f2bff500 	movk	x0, #0xffa8, lsl #16
    ff3b0aec:	b9000001 	str	w1, [x0]
    ff3b0af0:	b9403661 	ldr	w1, [x19, #52]
    ff3b0af4:	b9000401 	str	w1, [x0, #4]
    ff3b0af8:	b9403a61 	ldr	w1, [x19, #56]
    ff3b0afc:	b9000801 	str	w1, [x0, #8]
    ff3b0b00:	b9403e61 	ldr	w1, [x19, #60]
    ff3b0b04:	b9000c01 	str	w1, [x0, #12]
    ff3b0b08:	b9404261 	ldr	w1, [x19, #64]
    ff3b0b0c:	b9010001 	str	w1, [x0, #256]
    ff3b0b10:	39409260 	ldrb	w0, [x19, #36]
    ff3b0b14:	7100041f 	cmp	w0, #0x1
    ff3b0b18:	540000c1 	b.ne	ff3b0b30 <dmc_resume+0x4f0>  // b.any
    ff3b0b1c:	d2908a01 	mov	x1, #0x8450                	// #33872
    ff3b0b20:	f2bff501 	movk	x1, #0xffa8, lsl #16
    ff3b0b24:	b9400020 	ldr	w0, [x1]
    ff3b0b28:	320f0000 	orr	w0, w0, #0x20000
    ff3b0b2c:	b9000020 	str	w0, [x1]
    ff3b0b30:	39413a60 	ldrb	w0, [x19, #78]
    ff3b0b34:	d29c0201 	mov	x1, #0xe010                	// #57360
    ff3b0b38:	f2bfe661 	movk	x1, #0xff33, lsl #16
    ff3b0b3c:	53165400 	lsl	w0, w0, #10
    ff3b0b40:	32061000 	orr	w0, w0, #0x7c000000
    ff3b0b44:	b9000020 	str	w0, [x1]
    ff3b0b48:	d2802480 	mov	x0, #0x124                 	// #292
    ff3b0b4c:	52803001 	mov	w1, #0x180                 	// #384
    ff3b0b50:	f2bfeea0 	movk	x0, #0xff75, lsl #16
    ff3b0b54:	72a03801 	movk	w1, #0x1c0, lsl #16
    ff3b0b58:	b9000001 	str	w1, [x0]
    ff3b0b5c:	d280a201 	mov	x1, #0x510                 	// #1296
    ff3b0b60:	f2bfeec1 	movk	x1, #0xff76, lsl #16
    ff3b0b64:	b9400020 	ldr	w0, [x1]
    ff3b0b68:	32000400 	orr	w0, w0, #0x3
    ff3b0b6c:	b9000020 	str	w0, [x1]
    ff3b0b70:	d2803780 	mov	x0, #0x1bc                 	// #444
    ff3b0b74:	528000a1 	mov	w1, #0x5                   	// #5
    ff3b0b78:	f2bff500 	movk	x0, #0xffa8, lsl #16
    ff3b0b7c:	72a006a1 	movk	w1, #0x35, lsl #16
    ff3b0b80:	b9400000 	ldr	w0, [x0]
    ff3b0b84:	53107c00 	lsr	w0, w0, #16
    ff3b0b88:	11000400 	add	w0, w0, #0x1
    ff3b0b8c:	12000014 	and	w20, w0, #0x1
    ff3b0b90:	531c0000 	ubfiz	w0, w0, #4, #1
    ff3b0b94:	2a010000 	orr	w0, w0, w1
    ff3b0b98:	d2bfec41 	mov	x1, #0xff620000            	// #4284612608
    ff3b0b9c:	b9000020 	str	w0, [x1]
    ff3b0ba0:	d2800200 	mov	x0, #0x10                  	// #16
    ff3b0ba4:	f2bfec40 	movk	x0, #0xff62, lsl #16
    ff3b0ba8:	aa0003e1 	mov	x1, x0
    ff3b0bac:	b9400002 	ldr	w2, [x0]
    ff3b0bb0:	3617ffe2 	tbz	w2, #2, ff3b0bac <dmc_resume+0x56c>
    ff3b0bb4:	d2bfec40 	mov	x0, #0xff620000            	// #4284612608
    ff3b0bb8:	320f83e2 	mov	w2, #0x20002               	// #131074
    ff3b0bbc:	b9000002 	str	w2, [x0]
    ff3b0bc0:	b9400020 	ldr	w0, [x1]
    ff3b0bc4:	3607ffe0 	tbz	w0, #0, ff3b0bc0 <dmc_resume+0x580>
    ff3b0bc8:	5285c016 	mov	w22, #0x2e00                	// #11776
    ff3b0bcc:	53185e94 	lsl	w20, w20, #8
    ff3b0bd0:	39413675 	ldrb	w21, [x19, #77]
    ff3b0bd4:	72bff516 	movk	w22, #0xffa8, lsl #16
    ff3b0bd8:	52800013 	mov	w19, #0x0                   	// #0
    ff3b0bdc:	12806037 	mov	w23, #0xfffffcfe            	// #-770
    ff3b0be0:	6b1302bf 	cmp	w21, w19
    ff3b0be4:	54000a48 	b.hi	ff3b0d2c <dmc_resume+0x6ec>  // b.pmore
    ff3b0be8:	a94153f3 	ldp	x19, x20, [sp, #16]
    ff3b0bec:	a9425bf5 	ldp	x21, x22, [sp, #32]
    ff3b0bf0:	a94363f7 	ldp	x23, x24, [sp, #48]
    ff3b0bf4:	a9446bf9 	ldp	x25, x26, [sp, #64]
    ff3b0bf8:	f9402bfb 	ldr	x27, [sp, #80]
    ff3b0bfc:	a8c67bfd 	ldp	x29, x30, [sp], #96
    ff3b0c00:	d65f03c0 	ret
    ff3b0c04:	710004a5 	subs	w5, w5, #0x1
    ff3b0c08:	54ffdc20 	b.eq	ff3b078c <dmc_resume+0x14c>  // b.none
    ff3b0c0c:	52800c80 	mov	w0, #0x64                  	// #100
    ff3b0c10:	97fffd1b 	bl	ff3b007c <sram_udelay>
    ff3b0c14:	17ffff7e 	b	ff3b0a0c <dmc_resume+0x3cc>
    ff3b0c18:	710004a5 	subs	w5, w5, #0x1
    ff3b0c1c:	54ffdb80 	b.eq	ff3b078c <dmc_resume+0x14c>  // b.none
    ff3b0c20:	52800c80 	mov	w0, #0x64                  	// #100
    ff3b0c24:	97fffd16 	bl	ff3b007c <sram_udelay>
    ff3b0c28:	b94000c0 	ldr	w0, [x6]
    ff3b0c2c:	361fff60 	tbz	w0, #3, ff3b0c18 <dmc_resume+0x5d8>
    ff3b0c30:	d2902201 	mov	x1, #0x8110                	// #33040
    ff3b0c34:	b0000002 	adrp	x2, ff3b1000 <rk3399m0pmu_bin>
    ff3b0c38:	f2bff501 	movk	x1, #0xffa8, lsl #16
    ff3b0c3c:	d2951c83 	mov	x3, #0xa8e4                	// #43236
    ff3b0c40:	913c8042 	add	x2, x2, #0xf20
    ff3b0c44:	f2bff503 	movk	x3, #0xffa8, lsl #16
    ff3b0c48:	b9400020 	ldr	w0, [x1]
    ff3b0c4c:	120f7800 	and	w0, w0, #0xfffeffff
    ff3b0c50:	b9000020 	str	w0, [x1]
    ff3b0c54:	d2941c80 	mov	x0, #0xa0e4                	// #41188
    ff3b0c58:	f2bff500 	movk	x0, #0xffa8, lsl #16
    ff3b0c5c:	b9400001 	ldr	w1, [x0]
    ff3b0c60:	b8404444 	ldr	w4, [x2], #4
    ff3b0c64:	12044c21 	and	w1, w1, #0xf000ffff
    ff3b0c68:	2a040021 	orr	w1, w1, w4
    ff3b0c6c:	b9000001 	str	w1, [x0]
    ff3b0c70:	91080000 	add	x0, x0, #0x200
    ff3b0c74:	eb03001f 	cmp	x0, x3
    ff3b0c78:	54ffff21 	b.ne	ff3b0c5c <dmc_resume+0x61c>  // b.any
    ff3b0c7c:	17ffff78 	b	ff3b0a5c <dmc_resume+0x41c>
    ff3b0c80:	39413260 	ldrb	w0, [x19, #76]
    ff3b0c84:	7100181f 	cmp	w0, #0x6
    ff3b0c88:	54000061 	b.ne	ff3b0c94 <dmc_resume+0x654>  // b.any
    ff3b0c8c:	52800140 	mov	w0, #0xa                   	// #10
    ff3b0c90:	97fffcfb 	bl	ff3b007c <sram_udelay>
    ff3b0c94:	2a1a03e0 	mov	w0, w26
    ff3b0c98:	97fffd2c 	bl	ff3b0148 <data_training.constprop.0>
    ff3b0c9c:	35ffd780 	cbnz	w0, ff3b078c <dmc_resume+0x14c>
    ff3b0ca0:	39401b20 	ldrb	w0, [x25, #6]
    ff3b0ca4:	39400721 	ldrb	w1, [x25, #1]
    ff3b0ca8:	39400b22 	ldrb	w2, [x25, #2]
    ff3b0cac:	0b000021 	add	w1, w1, w0
    ff3b0cb0:	39400324 	ldrb	w4, [x25]
    ff3b0cb4:	0b020021 	add	w1, w1, w2
    ff3b0cb8:	39400f22 	ldrb	w2, [x25, #3]
    ff3b0cbc:	b9400b23 	ldr	w3, [x25, #8]
    ff3b0cc0:	7100049f 	cmp	w4, #0x1
    ff3b0cc4:	0b020021 	add	w1, w1, w2
    ff3b0cc8:	51005021 	sub	w1, w1, #0x14
    ff3b0ccc:	1ac122e2 	lsl	w2, w23, w1
    ff3b0cd0:	540002a9 	b.ls	ff3b0d24 <dmc_resume+0x6e4>  // b.plast
    ff3b0cd4:	39401f24 	ldrb	w4, [x25, #7]
    ff3b0cd8:	4b040000 	sub	w0, w0, w4
    ff3b0cdc:	1ac02440 	lsr	w0, w2, w0
    ff3b0ce0:	39401724 	ldrb	w4, [x25, #5]
    ff3b0ce4:	340000a4 	cbz	w4, ff3b0cf8 <dmc_resume+0x6b8>
    ff3b0ce8:	0b000400 	add	w0, w0, w0, lsl #1
    ff3b0cec:	1ac12301 	lsl	w1, w24, w1
    ff3b0cf0:	53027c22 	lsr	w2, w1, #2
    ff3b0cf4:	53027c00 	lsr	w0, w0, #2
    ff3b0cf8:	53057c00 	lsr	w0, w0, #5
    ff3b0cfc:	2a031863 	orr	w3, w3, w3, lsl #6
    ff3b0d00:	d3453041 	ubfx	x1, x2, #5, #8
    ff3b0d04:	b9000363 	str	w3, [x27]
    ff3b0d08:	53181c00 	ubfiz	w0, w0, #8, #8
    ff3b0d0c:	1100075a 	add	w26, w26, #0x1
    ff3b0d10:	2a010000 	orr	w0, w0, w1
    ff3b0d14:	91009339 	add	x25, x25, #0x24
    ff3b0d18:	b9000760 	str	w0, [x27, #4]
    ff3b0d1c:	9140237b 	add	x27, x27, #0x8, lsl #12
    ff3b0d20:	17ffff55 	b	ff3b0a74 <dmc_resume+0x434>
    ff3b0d24:	52800000 	mov	w0, #0x0                   	// #0
    ff3b0d28:	17ffffee 	b	ff3b0ce0 <dmc_resume+0x6a0>
    ff3b0d2c:	0b133ec1 	add	w1, w22, w19, lsl #15
    ff3b0d30:	b9400020 	ldr	w0, [x1]
    ff3b0d34:	0a170000 	and	w0, w0, w23
    ff3b0d38:	2a140000 	orr	w0, w0, w20
    ff3b0d3c:	b9000020 	str	w0, [x1]
    ff3b0d40:	2a1303e0 	mov	w0, w19
    ff3b0d44:	97fffd01 	bl	ff3b0148 <data_training.constprop.0>
    ff3b0d48:	35fff500 	cbnz	w0, ff3b0be8 <dmc_resume+0x5a8>
    ff3b0d4c:	11000673 	add	w19, w19, #0x1
    ff3b0d50:	17ffffa4 	b	ff3b0be0 <dmc_resume+0x5a0>

00000000ff3b0d54 <secure_watchdog_ungate>:
    ff3b0d54:	d29c0180 	mov	x0, #0xe00c                	// #57356
    ff3b0d58:	52a0a001 	mov	w1, #0x5000000             	// #83886080
    ff3b0d5c:	f2bfe660 	movk	x0, #0xff33, lsl #16
    ff3b0d60:	b9000001 	str	w1, [x0]
    ff3b0d64:	d65f03c0 	ret

00000000ff3b0d68 <sram_secure_timer_init>:
    ff3b0d68:	d2901401 	mov	x1, #0x80a0                	// #32928
    ff3b0d6c:	12800000 	mov	w0, #0xffffffff            	// #-1
    ff3b0d70:	f2bff0c1 	movk	x1, #0xff86, lsl #16
    ff3b0d74:	b9000020 	str	w0, [x1]
    ff3b0d78:	b9000420 	str	w0, [x1, #4]
    ff3b0d7c:	d2901600 	mov	x0, #0x80b0                	// #32944
    ff3b0d80:	f2bff0c0 	movk	x0, #0xff86, lsl #16
    ff3b0d84:	52800021 	mov	w1, #0x1                   	// #1
    ff3b0d88:	b900001f 	str	wzr, [x0]
    ff3b0d8c:	b900001f 	str	wzr, [x0]
    ff3b0d90:	b9000c01 	str	w1, [x0, #12]
    ff3b0d94:	d65f03c0 	ret

00000000ff3b0d98 <pmu_sgrf_rst_hld_release>:
    ff3b0d98:	d2802480 	mov	x0, #0x124                 	// #292
    ff3b0d9c:	52a00801 	mov	w1, #0x400000              	// #4194304
    ff3b0da0:	f2bfeea0 	movk	x0, #0xff75, lsl #16
    ff3b0da4:	b9000001 	str	w1, [x0]
    ff3b0da8:	d65f03c0 	ret

00000000ff3b0dac <restore_pmu_rsthold>:
    ff3b0dac:	b0000000 	adrp	x0, ff3b1000 <rk3399m0pmu_bin>
    ff3b0db0:	d2802402 	mov	x2, #0x120                 	// #288
    ff3b0db4:	913d3001 	add	x1, x0, #0xf4c
    ff3b0db8:	f2bfeea2 	movk	x2, #0xff75, lsl #16
    ff3b0dbc:	b94f4c00 	ldr	w0, [x0, #3916]
    ff3b0dc0:	32103c00 	orr	w0, w0, #0xffff0000
    ff3b0dc4:	b9000040 	str	w0, [x2]
    ff3b0dc8:	b9400420 	ldr	w0, [x1, #4]
    ff3b0dcc:	d2802481 	mov	x1, #0x124                 	// #292
    ff3b0dd0:	f2bfeea1 	movk	x1, #0xff75, lsl #16
    ff3b0dd4:	32103c00 	orr	w0, w0, #0xffff0000
    ff3b0dd8:	b9000020 	str	w0, [x1]
    ff3b0ddc:	d65f03c0 	ret

00000000ff3b0de0 <__bl31_pmusram_text_end>:
	...

00000000ff3b1000 <rk3399m0pmu_bin>:
    ff3b1000:	00000240 00000135 00000131 00000131     @...5...1...1...
	...
    ff3b102c:	00000131 00000000 00000000 00000131     1...........1...
    ff3b103c:	00000131 00000000 00000000 00000000     1...............
	...
    ff3b10e8:	681a4b0e d0fc2a00 4a0d2101 438b6813     .K.h.*...!.J.h.C
    ff3b10f8:	4b0a6013 2a10681a 2102d9fc 68134a09     .`.K.h.*...!.J.h
    ff3b1108:	6013430b 681a4b05 d9fc2a19 4a052102     .C.`.K.h.*...!.J
    ff3b1118:	438b6813 bf306013 46c0e7fd 47310078     .h.C.`0....Fx.1G
    ff3b1128:	47310020 47310024 46c0e7fe f7ffb510      .1G$.1G...F....
    ff3b1138:	bd10ffd7 00000000 00000000 00000000     ................
	...

00000000ff3b1240 <sdram_config>:
	...

00000000ff3b1f30 <cru_clksel_con6>:
    ff3b1f30:	00000000                                ....

00000000ff3b1f34 <dpll_data>:
	...

00000000ff3b1f4c <pmu_slp_data>:
	...

Disassembly of section ro:

0000000000040000 <bl31_entrypoint>:
   40000:	aa0003f4 	mov	x20, x0
   40004:	aa0103f5 	mov	x21, x1
   40008:	aa0203f6 	mov	x22, x2
   4000c:	aa0303f7 	mov	x23, x3
   40010:	10103f80 	adr	x0, 60800 <sync_exception_sp_el0>
   40014:	d51ec000 	msr	vbar_el3, x0
   40018:	d5033fdf 	isb
   4001c:	94007703 	bl	5dc28 <reset_handler>
   40020:	d2820141 	mov	x1, #0x100a                	// #4106
   40024:	d53e1000 	mrs	x0, sctlr_el3
   40028:	aa010000 	orr	x0, x0, x1
   4002c:	d51e1000 	msr	sctlr_el3, x0
   40030:	d5033fdf 	isb
   40034:	940077ad 	bl	5dee8 <init_cpu_data_ptr>
   40038:	d2804700 	mov	x0, #0x238                 	// #568
   4003c:	d51e1100 	msr	scr_el3, x0
   40040:	d2900000 	mov	x0, #0x8000                	// #32768
   40044:	f2a01020 	movk	x0, #0x81, lsl #16
   40048:	d51e1320 	msr	mdcr_el3, x0
   4004c:	d2801c00 	mov	x0, #0xe0                  	// #224
   40050:	d51b9c00 	msr	pmcr_el0, x0
   40054:	d50344ff 	msr	daifclr, #0x4
   40058:	d2800000 	mov	x0, #0x0                   	// #0
   4005c:	d51e1140 	msr	cptr_el3, x0
   40060:	d5380400 	mrs	x0, id_aa64pfr0_el1
   40064:	d370cc00 	ubfx	x0, x0, #48, #4
   40068:	f100041f 	cmp	x0, #0x1
   4006c:	54000061 	b.ne	40078 <bl31_entrypoint+0x78>  // b.any
   40070:	d2a02000 	mov	x0, #0x1000000             	// #16777216
   40074:	d51b42a0 	msr	dit, x0
   40078:	d0000100 	adrp	x0, 62000 <__RO_END__>
   4007c:	91000000 	add	x0, x0, #0x0
   40080:	d0000301 	adrp	x1, a2000 <__BL31_END__>
   40084:	91000021 	add	x1, x1, #0x0
   40088:	cb000021 	sub	x1, x1, x0
   4008c:	94007823 	bl	5e118 <inv_dcache_range>
   40090:	b0000120 	adrp	x0, 65000 <__STACKS_START__+0x2f80>
   40094:	91020000 	add	x0, x0, #0x80
   40098:	90000261 	adrp	x1, 8c000 <store_sram+0x2413>
   4009c:	91300021 	add	x1, x1, #0xc00
   400a0:	cb000021 	sub	x1, x1, x0
   400a4:	9400786a 	bl	5e24c <zeromem>
   400a8:	b0000300 	adrp	x0, a1000 <psci_locks>
   400ac:	91000000 	add	x0, x0, #0x0
   400b0:	b0000301 	adrp	x1, a1000 <psci_locks>
   400b4:	91048021 	add	x1, x1, #0x120
   400b8:	cb000021 	sub	x1, x1, x0
   400bc:	94007864 	bl	5e24c <zeromem>
   400c0:	d50040bf 	msr	spsel, #0x0
   400c4:	940077c4 	bl	5dfd4 <plat_set_my_stack>
   400c8:	aa1403e0 	mov	x0, x20
   400cc:	aa1503e1 	mov	x1, x21
   400d0:	aa1603e2 	mov	x2, x22
   400d4:	aa1703e3 	mov	x3, x23
   400d8:	94004003 	bl	500e4 <bl31_setup>
   400dc:	9400401f 	bl	50158 <bl31_main>
   400e0:	d0000100 	adrp	x0, 62000 <__RO_END__>
   400e4:	91000000 	add	x0, x0, #0x0
   400e8:	d0000101 	adrp	x1, 62000 <__RO_END__>
   400ec:	91018821 	add	x1, x1, #0x62
   400f0:	cb000021 	sub	x1, x1, x0
   400f4:	940077fb 	bl	5e0e0 <clean_dcache_range>
   400f8:	b0000120 	adrp	x0, 65000 <__STACKS_START__+0x2f80>
   400fc:	91020000 	add	x0, x0, #0x80
   40100:	90000261 	adrp	x1, 8c000 <store_sram+0x2413>
   40104:	91300021 	add	x1, x1, #0xc00
   40108:	cb000021 	sub	x1, x1, x0
   4010c:	940077f5 	bl	5e0e0 <clean_dcache_range>
   40110:	14007767 	b	5deac <el3_exit>
   40114:	00000000 	.inst	0x00000000 ; undefined
   40118:	14000008 	b	40138 <bl31_warm_entrypoint>
   4011c:	d503201f 	nop

0000000000040120 <__sram_func_set_ddrctl_pll_veneer>:
   40120:	b07fc410 	adrp	x16, ff8c1000 <sram_func_set_ddrctl_pll>
   40124:	91000210 	add	x16, x16, #0x0
   40128:	d61f0200 	br	x16
	...

0000000000040138 <bl31_warm_entrypoint>:
   40138:	10103640 	adr	x0, 60800 <sync_exception_sp_el0>
   4013c:	d51ec000 	msr	vbar_el3, x0
   40140:	d5033fdf 	isb
   40144:	940076b9 	bl	5dc28 <reset_handler>
   40148:	d2820141 	mov	x1, #0x100a                	// #4106
   4014c:	d53e1000 	mrs	x0, sctlr_el3
   40150:	aa010000 	orr	x0, x0, x1
   40154:	d51e1000 	msr	sctlr_el3, x0
   40158:	d5033fdf 	isb
   4015c:	94007763 	bl	5dee8 <init_cpu_data_ptr>
   40160:	d2804700 	mov	x0, #0x238                 	// #568
   40164:	d51e1100 	msr	scr_el3, x0
   40168:	d2900000 	mov	x0, #0x8000                	// #32768
   4016c:	f2a01020 	movk	x0, #0x81, lsl #16
   40170:	d51e1320 	msr	mdcr_el3, x0
   40174:	d2801c00 	mov	x0, #0xe0                  	// #224
   40178:	d51b9c00 	msr	pmcr_el0, x0
   4017c:	d50344ff 	msr	daifclr, #0x4
   40180:	d2800000 	mov	x0, #0x0                   	// #0
   40184:	d51e1140 	msr	cptr_el3, x0
   40188:	d5380400 	mrs	x0, id_aa64pfr0_el1
   4018c:	d370cc00 	ubfx	x0, x0, #48, #4
   40190:	f100041f 	cmp	x0, #0x1
   40194:	54000061 	b.ne	401a0 <bl31_warm_entrypoint+0x68>  // b.any
   40198:	d2a02000 	mov	x0, #0x1000000             	// #16777216
   4019c:	d51b42a0 	msr	dit, x0
   401a0:	d50040bf 	msr	spsel, #0x0
   401a4:	9400778c 	bl	5dfd4 <plat_set_my_stack>
   401a8:	d2800020 	mov	x0, #0x1                   	// #1
   401ac:	94007865 	bl	5e340 <bl31_plat_enable_mmu>
   401b0:	9400479e 	bl	52028 <psci_warmboot_entrypoint>
   401b4:	1400773e 	b	5deac <el3_exit>
	...

0000000000050000 <platform_cpu_warmboot>:
   50000:	d53800a0 	mrs	x0, mpidr_el1
   50004:	92401c13 	and	x19, x0, #0xff
   50008:	92781c14 	and	x20, x0, #0xff00
   5000c:	aa1403e0 	mov	x0, x20
   50010:	10288844 	adr	x4, a1118 <clst_warmboot_data>
   50014:	d346fc05 	lsr	x5, x0, #6
   50018:	b8656883 	ldr	w3, [x4, x5]
   5001c:	b825689f 	str	wzr, [x4, x5]
   50020:	7102947f 	cmp	w3, #0xa5
   50024:	540000a1 	b.ne	50038 <clst_warmboot_end>  // b.any
   50028:	18000246 	ldr	w6, 50070 <boot_entry+0x10>
   5002c:	58000267 	ldr	x7, 50078 <boot_entry+0x18>
   50030:	d343fc02 	lsr	x2, x0, #3
   50034:	b82268e6 	str	w6, [x7, x2]

0000000000050038 <clst_warmboot_end>:
   50038:	8b541a75 	add	x21, x19, x20, lsr #6
   5003c:	10288624 	adr	x4, a1100 <cpuson_flags>
   50040:	8b150884 	add	x4, x4, x21, lsl #2
   50044:	b9400081 	ldr	w1, [x4]
   50048:	7103c03f 	cmp	w1, #0xf0
   5004c:	540000a0 	b.eq	50060 <boot_entry>  // b.none
   50050:	713c003f 	cmp	w1, #0xf00
   50054:	54000060 	b.eq	50060 <boot_entry>  // b.none

0000000000050058 <wfe_loop>:
   50058:	d503205f 	wfe
   5005c:	17ffffff 	b	50058 <wfe_loop>

0000000000050060 <boot_entry>:
   50060:	b900009f 	str	wzr, [x4]
   50064:	10288365 	adr	x5, a10d0 <cpuson_entry_point>
   50068:	f87578a2 	ldr	x2, [x5, x21, lsl #3]
   5006c:	d61f0040 	br	x2
   50070:	03000100 	.word	0x03000100
   50074:	00000000 	.inst	0x00000000 ; undefined
   50078:	ff76000c 	.word	0xff76000c
   5007c:	00000000 	.word	0x00000000

0000000000050080 <cm_get_context>:
   50080:	d53ed041 	mrs	x1, tpidr_el3
   50084:	f8605820 	ldr	x0, [x1, w0, uxtw #3]
   50088:	d65f03c0 	ret

000000000005008c <cm_get_context_by_index>:
   5008c:	a9be7bfd 	stp	x29, x30, [sp, #-32]!
   50090:	910003fd 	mov	x29, sp
   50094:	f9000bf3 	str	x19, [sp, #16]
   50098:	2a0103f3 	mov	w19, w1
   5009c:	94003798 	bl	5defc <_cpu_data_by_index>
   500a0:	f8735800 	ldr	x0, [x0, w19, uxtw #3]
   500a4:	f9400bf3 	ldr	x19, [sp, #16]
   500a8:	a8c27bfd 	ldp	x29, x30, [sp], #32
   500ac:	d65f03c0 	ret

00000000000500b0 <cm_set_context_by_index>:
   500b0:	a9be7bfd 	stp	x29, x30, [sp, #-32]!
   500b4:	910003fd 	mov	x29, sp
   500b8:	a90153f3 	stp	x19, x20, [sp, #16]
   500bc:	2a0203f3 	mov	w19, w2
   500c0:	aa0103f4 	mov	x20, x1
   500c4:	9400378e 	bl	5defc <_cpu_data_by_index>
   500c8:	f8335814 	str	x20, [x0, w19, uxtw #3]
   500cc:	a94153f3 	ldp	x19, x20, [sp, #16]
   500d0:	a8c27bfd 	ldp	x29, x30, [sp], #32
   500d4:	d65f03c0 	ret

00000000000500d8 <get_arm_std_svc_args>:
   500d8:	f0000060 	adrp	x0, 5f000 <fdt_ro_probe_+0x20>
   500dc:	912a2000 	add	x0, x0, #0xa88
   500e0:	d65f03c0 	ret

00000000000500e4 <bl31_setup>:
   500e4:	a9bf7bfd 	stp	x29, x30, [sp, #-16]!
   500e8:	910003fd 	mov	x29, sp
   500ec:	94000c35 	bl	531c0 <bl31_early_platform_setup2>
   500f0:	a8c17bfd 	ldp	x29, x30, [sp], #16
   500f4:	14000c58 	b	53254 <bl31_plat_arch_setup>

00000000000500f8 <bl31_prepare_next_image_entry>:
   500f8:	a9be7bfd 	stp	x29, x30, [sp, #-32]!
   500fc:	910003fd 	mov	x29, sp
   50100:	a90153f3 	stp	x19, x20, [sp, #16]
   50104:	d5380400 	mrs	x0, id_aa64pfr0_el1
   50108:	d3441c00 	ubfx	x0, x0, #4, #4
   5010c:	f100041f 	cmp	x0, #0x1
   50110:	540000c1 	b.ne	50128 <bl31_prepare_next_image_entry+0x30>  // b.any
   50114:	f0000060 	adrp	x0, 5f000 <fdt_ro_probe_+0x20>
   50118:	913ed800 	add	x0, x0, #0xfb6
   5011c:	9400335d 	bl	5ce90 <tf_log>
   50120:	940033c3 	bl	5d02c <console_flush>
   50124:	940037d5 	bl	5e078 <do_panic>
   50128:	d0000080 	adrp	x0, 62000 <__RO_END__>
   5012c:	b9402814 	ldr	w20, [x0, #40]
   50130:	2a1403e0 	mov	w0, w20
   50134:	94000c19 	bl	53198 <bl31_plat_get_next_image_ep_info>
   50138:	aa0003f3 	mov	x19, x0
   5013c:	94003354 	bl	5ce8c <print_entry_point_info>
   50140:	aa1303e0 	mov	x0, x19
   50144:	94000549 	bl	51668 <cm_init_my_context>
   50148:	2a1403e0 	mov	w0, w20
   5014c:	a94153f3 	ldp	x19, x20, [sp, #16]
   50150:	a8c27bfd 	ldp	x29, x30, [sp], #32
   50154:	14000577 	b	51730 <cm_prepare_el3_exit>

0000000000050158 <bl31_main>:
   50158:	a9be7bfd 	stp	x29, x30, [sp, #-32]!
   5015c:	f0000061 	adrp	x1, 5f000 <fdt_ro_probe_+0x20>
   50160:	913e5021 	add	x1, x1, #0xf94
   50164:	910003fd 	mov	x29, sp
   50168:	f9000bf3 	str	x19, [sp, #16]
   5016c:	90000093 	adrp	x19, 60000 <version_string+0x6c>
   50170:	91001a73 	add	x19, x19, #0x6
   50174:	aa1303e0 	mov	x0, x19
   50178:	94003346 	bl	5ce90 <tf_log>
   5017c:	aa1303e0 	mov	x0, x19
   50180:	f0000061 	adrp	x1, 5f000 <fdt_ro_probe_+0x20>
   50184:	913dd821 	add	x1, x1, #0xf76
   50188:	94003342 	bl	5ce90 <tf_log>
   5018c:	94000c2a 	bl	53234 <bl31_platform_setup>
   50190:	940004b9 	bl	51474 <cm_init>
   50194:	9400001f 	bl	50210 <runtime_svc_init>
   50198:	b00000a0 	adrp	x0, 65000 <__STACKS_START__+0x2f80>
   5019c:	f947a000 	ldr	x0, [x0, #3904]
   501a0:	b4000040 	cbz	x0, 501a8 <bl31_main+0x50>
   501a4:	d63f0000 	blr	x0
   501a8:	97ffffd4 	bl	500f8 <bl31_prepare_next_image_entry>
   501ac:	940033a0 	bl	5d02c <console_flush>
   501b0:	f9400bf3 	ldr	x19, [sp, #16]
   501b4:	a8c27bfd 	ldp	x29, x30, [sp], #32
   501b8:	140033c4 	b	5d0c8 <bl31_plat_runtime_setup>

00000000000501bc <get_scr_el3_from_routing_model>:
   501bc:	b00000a1 	adrp	x1, 65000 <__STACKS_START__+0x2f80>
   501c0:	913d2022 	add	x2, x1, #0xf48
   501c4:	2a0003e1 	mov	w1, w0
   501c8:	8b010c40 	add	x0, x2, x1, lsl #3
   501cc:	8b010c43 	add	x3, x2, x1, lsl #3
   501d0:	8b010c41 	add	x1, x2, x1, lsl #3
   501d4:	f9400463 	ldr	x3, [x3, #8]
   501d8:	f9402400 	ldr	x0, [x0, #72]
   501dc:	f9401421 	ldr	x1, [x1, #40]
   501e0:	aa030000 	orr	x0, x0, x3
   501e4:	aa010000 	orr	x0, x0, x1
   501e8:	d65f03c0 	ret

00000000000501ec <get_interrupt_type_handler>:
   501ec:	7100081f 	cmp	w0, #0x2
   501f0:	540000c8 	b.hi	50208 <get_interrupt_type_handler+0x1c>  // b.pmore
   501f4:	d37b7c00 	ubfiz	x0, x0, #5, #32
   501f8:	b00000a1 	adrp	x1, 65000 <__STACKS_START__+0x2f80>
   501fc:	913d2021 	add	x1, x1, #0xf48
   50200:	f8606820 	ldr	x0, [x1, x0]
   50204:	d65f03c0 	ret
   50208:	d2800000 	mov	x0, #0x0                   	// #0
   5020c:	17fffffe 	b	50204 <get_interrupt_type_handler+0x18>

0000000000050210 <runtime_svc_init>:
   50210:	a9bb7bfd 	stp	x29, x30, [sp, #-80]!
   50214:	910003fd 	mov	x29, sp
   50218:	a90153f3 	stp	x19, x20, [sp, #16]
   5021c:	90000093 	adrp	x19, 60000 <version_string+0x6c>
   50220:	91110273 	add	x19, x19, #0x440
   50224:	a9025bf5 	stp	x21, x22, [sp, #32]
   50228:	90000096 	adrp	x22, 60000 <version_string+0x6c>
   5022c:	910f82d6 	add	x22, x22, #0x3e0
   50230:	a90363f7 	stp	x23, x24, [sp, #48]
   50234:	cb160273 	sub	x19, x19, x22
   50238:	f1007e7f 	cmp	x19, #0x1f
   5023c:	f90023f9 	str	x25, [sp, #64]
   50240:	540001a9 	b.ls	50274 <runtime_svc_init+0x64>  // b.plast
   50244:	90000098 	adrp	x24, 60000 <version_string+0x6c>
   50248:	d345fe73 	lsr	x19, x19, #5
   5024c:	9100e718 	add	x24, x24, #0x39
   50250:	52800015 	mov	w21, #0x0                   	// #0
   50254:	b00000d7 	adrp	x23, 69000 <pmu_slpdata+0x40>
   50258:	912d82f7 	add	x23, x23, #0xb60
   5025c:	aa1703e0 	mov	x0, x23
   50260:	d2801002 	mov	x2, #0x80                  	// #128
   50264:	12800001 	mov	w1, #0xffffffff            	// #-1
   50268:	94003c83 	bl	5f474 <memset>
   5026c:	eb35027f 	cmp	x19, w21, uxtb
   50270:	540000e8 	b.hi	5028c <runtime_svc_init+0x7c>  // b.pmore
   50274:	a94153f3 	ldp	x19, x20, [sp, #16]
   50278:	a9425bf5 	ldp	x21, x22, [sp, #32]
   5027c:	a94363f7 	ldp	x23, x24, [sp, #48]
   50280:	f94023f9 	ldr	x25, [sp, #64]
   50284:	a8c57bfd 	ldp	x29, x30, [sp], #80
   50288:	d65f03c0 	ret
   5028c:	d37b1eb9 	ubfiz	x25, x21, #5, #8
   50290:	8b1902d4 	add	x20, x22, x25
   50294:	38796ac1 	ldrb	w1, [x22, x25]
   50298:	39400680 	ldrb	w0, [x20, #1]
   5029c:	6b00003f 	cmp	w1, w0
   502a0:	54000148 	b.hi	502c8 <runtime_svc_init+0xb8>  // b.pmore
   502a4:	7100fc1f 	cmp	w0, #0x3f
   502a8:	54000108 	b.hi	502c8 <runtime_svc_init+0xb8>  // b.pmore
   502ac:	39400a80 	ldrb	w0, [x20, #2]
   502b0:	7100041f 	cmp	w0, #0x1
   502b4:	540000a8 	b.hi	502c8 <runtime_svc_init+0xb8>  // b.pmore
   502b8:	f9400a80 	ldr	x0, [x20, #16]
   502bc:	b5000120 	cbnz	x0, 502e0 <runtime_svc_init+0xd0>
   502c0:	f9400e80 	ldr	x0, [x20, #24]
   502c4:	b50001e0 	cbnz	x0, 50300 <runtime_svc_init+0xf0>
   502c8:	aa1403e1 	mov	x1, x20
   502cc:	90000080 	adrp	x0, 60000 <version_string+0x6c>
   502d0:	91004400 	add	x0, x0, #0x11
   502d4:	940032ef 	bl	5ce90 <tf_log>
   502d8:	94003355 	bl	5d02c <console_flush>
   502dc:	94003767 	bl	5e078 <do_panic>
   502e0:	d63f0000 	blr	x0
   502e4:	340000e0 	cbz	w0, 50300 <runtime_svc_init+0xf0>
   502e8:	f9400681 	ldr	x1, [x20, #8]
   502ec:	aa1803e0 	mov	x0, x24
   502f0:	940032e8 	bl	5ce90 <tf_log>
   502f4:	110006b5 	add	w21, w21, #0x1
   502f8:	12001eb5 	and	w21, w21, #0xff
   502fc:	17ffffdc 	b	5026c <runtime_svc_init+0x5c>
   50300:	39400a82 	ldrb	w2, [x20, #2]
   50304:	38796ac0 	ldrb	w0, [x22, x25]
   50308:	531a0043 	ubfiz	w3, w2, #6, #1
   5030c:	39400682 	ldrb	w2, [x20, #1]
   50310:	12001400 	and	w0, w0, #0x3f
   50314:	2a030001 	orr	w1, w0, w3
   50318:	12001442 	and	w2, w2, #0x3f
   5031c:	2a0103e0 	mov	w0, w1
   50320:	2a030042 	orr	w2, w2, w3
   50324:	8b0102e1 	add	x1, x23, x1
   50328:	6b02001f 	cmp	w0, w2
   5032c:	54fffe48 	b.hi	502f4 <runtime_svc_init+0xe4>  // b.pmore
   50330:	11000400 	add	w0, w0, #0x1
   50334:	38001435 	strb	w21, [x1], #1
   50338:	12001c00 	and	w0, w0, #0xff
   5033c:	17fffffb 	b	50328 <runtime_svc_init+0x118>

0000000000050340 <cci_init>:
   50340:	b00000a2 	adrp	x2, 65000 <__STACKS_START__+0x2f80>
   50344:	f907d440 	str	x0, [x2, #4008]
   50348:	b00000a0 	adrp	x0, 65000 <__STACKS_START__+0x2f80>
   5034c:	f907d801 	str	x1, [x0, #4016]
   50350:	d65f03c0 	ret

0000000000050354 <cci_enable_snoop_dvm_reqs>:
   50354:	b00000a1 	adrp	x1, 65000 <__STACKS_START__+0x2f80>
   50358:	52800063 	mov	w3, #0x3                   	// #3
   5035c:	f947d821 	ldr	x1, [x1, #4016]
   50360:	b8a05820 	ldrsw	x0, [x1, w0, uxtw #2]
   50364:	b00000a1 	adrp	x1, 65000 <__STACKS_START__+0x2f80>
   50368:	91000400 	add	x0, x0, #0x1
   5036c:	f947d422 	ldr	x2, [x1, #4008]
   50370:	d374cc00 	lsl	x0, x0, #12
   50374:	b8226803 	str	w3, [x0, x2]
   50378:	d5033b9f 	dsb	ish
   5037c:	f947d420 	ldr	x0, [x1, #4008]
   50380:	91003000 	add	x0, x0, #0xc
   50384:	b9400001 	ldr	w1, [x0]
   50388:	3707ffe1 	tbnz	w1, #0, 50384 <cci_enable_snoop_dvm_reqs+0x30>
   5038c:	d65f03c0 	ret

0000000000050390 <cci_disable_snoop_dvm_reqs>:
   50390:	b00000a1 	adrp	x1, 65000 <__STACKS_START__+0x2f80>
   50394:	12800063 	mov	w3, #0xfffffffc            	// #-4
   50398:	f947d821 	ldr	x1, [x1, #4016]
   5039c:	b8a05820 	ldrsw	x0, [x1, w0, uxtw #2]
   503a0:	b00000a1 	adrp	x1, 65000 <__STACKS_START__+0x2f80>
   503a4:	91000400 	add	x0, x0, #0x1
   503a8:	f947d422 	ldr	x2, [x1, #4008]
   503ac:	d374cc00 	lsl	x0, x0, #12
   503b0:	b8226803 	str	w3, [x0, x2]
   503b4:	d5033b9f 	dsb	ish
   503b8:	f947d420 	ldr	x0, [x1, #4008]
   503bc:	91003000 	add	x0, x0, #0xc
   503c0:	b9400001 	ldr	w1, [x0]
   503c4:	3707ffe1 	tbnz	w1, #0, 503c0 <cci_disable_snoop_dvm_reqs+0x30>
   503c8:	d65f03c0 	ret

00000000000503cc <arm_gicv3_distif_pre_save>:
   503cc:	b00000a1 	adrp	x1, 65000 <__STACKS_START__+0x2f80>
   503d0:	f947dc21 	ldr	x1, [x1, #4024]
   503d4:	f9401021 	ldr	x1, [x1, #32]
   503d8:	f8605820 	ldr	x0, [x1, w0, uxtw #3]
   503dc:	91005002 	add	x2, x0, #0x14
   503e0:	b9401401 	ldr	w1, [x0, #20]
   503e4:	32000021 	orr	w1, w1, #0x1
   503e8:	b9001401 	str	w1, [x0, #20]
   503ec:	b9400040 	ldr	w0, [x2]
   503f0:	36ffffe0 	tbz	w0, #31, 503ec <arm_gicv3_distif_pre_save+0x20>
   503f4:	d65f03c0 	ret

00000000000503f8 <arm_gicv3_distif_post_restore>:
   503f8:	b00000a1 	adrp	x1, 65000 <__STACKS_START__+0x2f80>
   503fc:	f947dc21 	ldr	x1, [x1, #4024]
   50400:	f9401021 	ldr	x1, [x1, #32]
   50404:	f8605820 	ldr	x0, [x1, w0, uxtw #3]
   50408:	91005002 	add	x2, x0, #0x14
   5040c:	b9401401 	ldr	w1, [x0, #20]
   50410:	360000c1 	tbz	w1, #0, 50428 <arm_gicv3_distif_post_restore+0x30>
   50414:	b9401401 	ldr	w1, [x0, #20]
   50418:	121f7821 	and	w1, w1, #0xfffffffe
   5041c:	b9001401 	str	w1, [x0, #20]
   50420:	b9400040 	ldr	w0, [x2]
   50424:	37ffffe0 	tbnz	w0, #31, 50420 <arm_gicv3_distif_post_restore+0x28>
   50428:	d65f03c0 	ret

000000000005042c <gicv3_distif_pre_save>:
   5042c:	17ffffe8 	b	503cc <arm_gicv3_distif_pre_save>

0000000000050430 <gicv3_distif_post_restore>:
   50430:	17fffff2 	b	503f8 <arm_gicv3_distif_post_restore>

0000000000050434 <gicv3_rdistif_on>:
   50434:	d65f03c0 	ret

0000000000050438 <gicd_set_icfgr>:
   50438:	531f0c24 	ubfiz	w4, w1, #1, #4
   5043c:	53047c21 	lsr	w1, w1, #4
   50440:	91300000 	add	x0, x0, #0xc00
   50444:	12000442 	and	w2, w2, #0x3
   50448:	d37ef421 	lsl	x1, x1, #2
   5044c:	52800063 	mov	w3, #0x3                   	// #3
   50450:	1ac42063 	lsl	w3, w3, w4
   50454:	1ac42042 	lsl	w2, w2, w4
   50458:	b8606825 	ldr	w5, [x1, x0]
   5045c:	0a2300a3 	bic	w3, w5, w3
   50460:	2a020063 	orr	w3, w3, w2
   50464:	b8206823 	str	w3, [x1, x0]
   50468:	d65f03c0 	ret

000000000005046c <gicd_clr_igroupr>:
   5046c:	53057c23 	lsr	w3, w1, #5
   50470:	91020000 	add	x0, x0, #0x80
   50474:	52800022 	mov	w2, #0x1                   	// #1
   50478:	d37ef463 	lsl	x3, x3, #2
   5047c:	1ac12041 	lsl	w1, w2, w1
   50480:	b8606864 	ldr	w4, [x3, x0]
   50484:	0a210081 	bic	w1, w4, w1
   50488:	b8206861 	str	w1, [x3, x0]
   5048c:	d65f03c0 	ret

0000000000050490 <gicd_set_igrpmodr>:
   50490:	53057c23 	lsr	w3, w1, #5
   50494:	91340000 	add	x0, x0, #0xd00
   50498:	52800022 	mov	w2, #0x1                   	// #1
   5049c:	d37ef463 	lsl	x3, x3, #2
   504a0:	1ac12041 	lsl	w1, w2, w1
   504a4:	b8606864 	ldr	w4, [x3, x0]
   504a8:	2a040021 	orr	w1, w1, w4
   504ac:	b8206861 	str	w1, [x3, x0]
   504b0:	d65f03c0 	ret

00000000000504b4 <gicd_clr_igrpmodr>:
   504b4:	53057c23 	lsr	w3, w1, #5
   504b8:	91340000 	add	x0, x0, #0xd00
   504bc:	52800022 	mov	w2, #0x1                   	// #1
   504c0:	d37ef463 	lsl	x3, x3, #2
   504c4:	1ac12041 	lsl	w1, w2, w1
   504c8:	b8606864 	ldr	w4, [x3, x0]
   504cc:	0a210081 	bic	w1, w4, w1
   504d0:	b8206861 	str	w1, [x3, x0]
   504d4:	d65f03c0 	ret

00000000000504d8 <gicd_set_isenabler>:
   504d8:	52800022 	mov	w2, #0x1                   	// #1
   504dc:	91040000 	add	x0, x0, #0x100
   504e0:	1ac12042 	lsl	w2, w2, w1
   504e4:	53057c21 	lsr	w1, w1, #5
   504e8:	d37ef421 	lsl	x1, x1, #2
   504ec:	b8206822 	str	w2, [x1, x0]
   504f0:	d65f03c0 	ret

00000000000504f4 <gicd_set_ipriorityr>:
   504f4:	91100000 	add	x0, x0, #0x400
   504f8:	2a0103e1 	mov	w1, w1
   504fc:	12001c42 	and	w2, w2, #0xff
   50500:	38216802 	strb	w2, [x0, x1]
   50504:	d65f03c0 	ret

0000000000050508 <gicd_read_icfgr>:
   50508:	53047c21 	lsr	w1, w1, #4
   5050c:	91300000 	add	x0, x0, #0xc00
   50510:	d37ef421 	lsl	x1, x1, #2
   50514:	b8606820 	ldr	w0, [x1, x0]
   50518:	d65f03c0 	ret

000000000005051c <gicd_write_icfgr>:
   5051c:	53047c21 	lsr	w1, w1, #4
   50520:	91300000 	add	x0, x0, #0xc00
   50524:	d37ef421 	lsl	x1, x1, #2
   50528:	b8206822 	str	w2, [x1, x0]
   5052c:	d65f03c0 	ret

0000000000050530 <gicd_read_igroupr>:
   50530:	53057c21 	lsr	w1, w1, #5
   50534:	91020000 	add	x0, x0, #0x80
   50538:	d37ef421 	lsl	x1, x1, #2
   5053c:	b8606820 	ldr	w0, [x1, x0]
   50540:	d65f03c0 	ret

0000000000050544 <gicd_write_igroupr>:
   50544:	53057c21 	lsr	w1, w1, #5
   50548:	91020000 	add	x0, x0, #0x80
   5054c:	d37ef421 	lsl	x1, x1, #2
   50550:	b8206822 	str	w2, [x1, x0]
   50554:	d65f03c0 	ret

0000000000050558 <gicd_read_igrpmodr>:
   50558:	53057c21 	lsr	w1, w1, #5
   5055c:	91340000 	add	x0, x0, #0xd00
   50560:	d37ef421 	lsl	x1, x1, #2
   50564:	b8606820 	ldr	w0, [x1, x0]
   50568:	d65f03c0 	ret

000000000005056c <gicd_write_igrpmodr>:
   5056c:	53057c21 	lsr	w1, w1, #5
   50570:	91340000 	add	x0, x0, #0xd00
   50574:	d37ef421 	lsl	x1, x1, #2
   50578:	b8206822 	str	w2, [x1, x0]
   5057c:	d65f03c0 	ret

0000000000050580 <gicd_read_ipriorityr>:
   50580:	927e7421 	and	x1, x1, #0xfffffffc
   50584:	91100000 	add	x0, x0, #0x400
   50588:	b8606820 	ldr	w0, [x1, x0]
   5058c:	d65f03c0 	ret

0000000000050590 <gicd_write_ipriorityr>:
   50590:	927e7421 	and	x1, x1, #0xfffffffc
   50594:	91100000 	add	x0, x0, #0x400
   50598:	b8206822 	str	w2, [x1, x0]
   5059c:	d65f03c0 	ret

00000000000505a0 <gicd_read_isactiver>:
   505a0:	53057c21 	lsr	w1, w1, #5
   505a4:	910c0000 	add	x0, x0, #0x300
   505a8:	d37ef421 	lsl	x1, x1, #2
   505ac:	b8606820 	ldr	w0, [x1, x0]
   505b0:	d65f03c0 	ret

00000000000505b4 <gicd_write_isactiver>:
   505b4:	53057c21 	lsr	w1, w1, #5
   505b8:	910c0000 	add	x0, x0, #0x300
   505bc:	d37ef421 	lsl	x1, x1, #2
   505c0:	b8206822 	str	w2, [x1, x0]
   505c4:	d65f03c0 	ret

00000000000505c8 <gicd_read_isenabler>:
   505c8:	53057c21 	lsr	w1, w1, #5
   505cc:	91040000 	add	x0, x0, #0x100
   505d0:	d37ef421 	lsl	x1, x1, #2
   505d4:	b8606820 	ldr	w0, [x1, x0]
   505d8:	d65f03c0 	ret

00000000000505dc <gicd_write_isenabler>:
   505dc:	53057c21 	lsr	w1, w1, #5
   505e0:	91040000 	add	x0, x0, #0x100
   505e4:	d37ef421 	lsl	x1, x1, #2
   505e8:	b8206822 	str	w2, [x1, x0]
   505ec:	d65f03c0 	ret

00000000000505f0 <gicd_read_ispendr>:
   505f0:	53057c21 	lsr	w1, w1, #5
   505f4:	91080000 	add	x0, x0, #0x200
   505f8:	d37ef421 	lsl	x1, x1, #2
   505fc:	b8606820 	ldr	w0, [x1, x0]
   50600:	d65f03c0 	ret

0000000000050604 <gicd_write_ispendr>:
   50604:	53057c21 	lsr	w1, w1, #5
   50608:	91080000 	add	x0, x0, #0x200
   5060c:	d37ef421 	lsl	x1, x1, #2
   50610:	b8206822 	str	w2, [x1, x0]
   50614:	d65f03c0 	ret

0000000000050618 <gicd_read_nsacr>:
   50618:	53047c21 	lsr	w1, w1, #4
   5061c:	91380000 	add	x0, x0, #0xe00
   50620:	d37ef421 	lsl	x1, x1, #2
   50624:	b8606820 	ldr	w0, [x1, x0]
   50628:	d65f03c0 	ret

000000000005062c <gicd_write_nsacr>:
   5062c:	53047c21 	lsr	w1, w1, #4
   50630:	91380000 	add	x0, x0, #0xe00
   50634:	d37ef421 	lsl	x1, x1, #2
   50638:	b8206822 	str	w2, [x1, x0]
   5063c:	d65f03c0 	ret

0000000000050640 <gicr_write_ipriorityr>:
   50640:	91404000 	add	x0, x0, #0x10, lsl #12
   50644:	927e7421 	and	x1, x1, #0xfffffffc
   50648:	91100000 	add	x0, x0, #0x400
   5064c:	b8206822 	str	w2, [x1, x0]
   50650:	d65f03c0 	ret

0000000000050654 <gicr_set_ipriorityr>:
   50654:	91404000 	add	x0, x0, #0x10, lsl #12
   50658:	2a0103e1 	mov	w1, w1
   5065c:	91100000 	add	x0, x0, #0x400
   50660:	12001c42 	and	w2, w2, #0xff
   50664:	38216802 	strb	w2, [x0, x1]
   50668:	d65f03c0 	ret

000000000005066c <gicr_clr_igroupr>:
   5066c:	53057c23 	lsr	w3, w1, #5
   50670:	91404000 	add	x0, x0, #0x10, lsl #12
   50674:	91020000 	add	x0, x0, #0x80
   50678:	52800022 	mov	w2, #0x1                   	// #1
   5067c:	d37ef463 	lsl	x3, x3, #2
   50680:	1ac12041 	lsl	w1, w2, w1
   50684:	b8606864 	ldr	w4, [x3, x0]
   50688:	0a210081 	bic	w1, w4, w1
   5068c:	b8206861 	str	w1, [x3, x0]
   50690:	d65f03c0 	ret

0000000000050694 <gicr_set_igrpmodr>:
   50694:	53057c23 	lsr	w3, w1, #5
   50698:	91404000 	add	x0, x0, #0x10, lsl #12
   5069c:	91340000 	add	x0, x0, #0xd00
   506a0:	52800022 	mov	w2, #0x1                   	// #1
   506a4:	d37ef463 	lsl	x3, x3, #2
   506a8:	1ac12041 	lsl	w1, w2, w1
   506ac:	b8606864 	ldr	w4, [x3, x0]
   506b0:	2a040021 	orr	w1, w1, w4
   506b4:	b8206861 	str	w1, [x3, x0]
   506b8:	d65f03c0 	ret

00000000000506bc <gicr_clr_igrpmodr>:
   506bc:	53057c23 	lsr	w3, w1, #5
   506c0:	91404000 	add	x0, x0, #0x10, lsl #12
   506c4:	91340000 	add	x0, x0, #0xd00
   506c8:	52800022 	mov	w2, #0x1                   	// #1
   506cc:	d37ef463 	lsl	x3, x3, #2
   506d0:	1ac12041 	lsl	w1, w2, w1
   506d4:	b8606864 	ldr	w4, [x3, x0]
   506d8:	0a210081 	bic	w1, w4, w1
   506dc:	b8206861 	str	w1, [x3, x0]
   506e0:	d65f03c0 	ret

00000000000506e4 <gicr_set_isenabler>:
   506e4:	52800022 	mov	w2, #0x1                   	// #1
   506e8:	91404000 	add	x0, x0, #0x10, lsl #12
   506ec:	1ac12042 	lsl	w2, w2, w1
   506f0:	53057c21 	lsr	w1, w1, #5
   506f4:	91040000 	add	x0, x0, #0x100
   506f8:	d37ef421 	lsl	x1, x1, #2
   506fc:	b8206822 	str	w2, [x1, x0]
   50700:	d65f03c0 	ret

0000000000050704 <gicr_set_icfgr>:
   50704:	531f0c24 	ubfiz	w4, w1, #1, #4
   50708:	53047c21 	lsr	w1, w1, #4
   5070c:	91404000 	add	x0, x0, #0x10, lsl #12
   50710:	12000442 	and	w2, w2, #0x3
   50714:	d37ef421 	lsl	x1, x1, #2
   50718:	91300000 	add	x0, x0, #0xc00
   5071c:	52800063 	mov	w3, #0x3                   	// #3
   50720:	1ac42042 	lsl	w2, w2, w4
   50724:	1ac42063 	lsl	w3, w3, w4
   50728:	b8606825 	ldr	w5, [x1, x0]
   5072c:	0a2300a3 	bic	w3, w5, w3
   50730:	2a020063 	orr	w3, w3, w2
   50734:	b8206823 	str	w3, [x1, x0]
   50738:	d65f03c0 	ret

000000000005073c <gicv3_rdistif_mark_core_awake>:
   5073c:	b9401401 	ldr	w1, [x0, #20]
   50740:	91005002 	add	x2, x0, #0x14
   50744:	121e7821 	and	w1, w1, #0xfffffffd
   50748:	b9001401 	str	w1, [x0, #20]
   5074c:	b9400040 	ldr	w0, [x2]
   50750:	3717ffe0 	tbnz	w0, #2, 5074c <gicv3_rdistif_mark_core_awake+0x10>
   50754:	d65f03c0 	ret

0000000000050758 <gicv3_rdistif_mark_core_asleep>:
   50758:	b9401401 	ldr	w1, [x0, #20]
   5075c:	91005002 	add	x2, x0, #0x14
   50760:	321f0021 	orr	w1, w1, #0x2
   50764:	b9001401 	str	w1, [x0, #20]
   50768:	b9400040 	ldr	w0, [x2]
   5076c:	3617ffe0 	tbz	w0, #2, 50768 <gicv3_rdistif_mark_core_asleep+0x10>
   50770:	d65f03c0 	ret

0000000000050774 <gicv3_rdistif_base_addrs_probe>:
   50774:	a9bc7bfd 	stp	x29, x30, [sp, #-64]!
   50778:	910003fd 	mov	x29, sp
   5077c:	a90153f3 	stp	x19, x20, [sp, #16]
   50780:	aa0203f3 	mov	x19, x2
   50784:	a9025bf5 	stp	x21, x22, [sp, #32]
   50788:	aa0003f6 	mov	x22, x0
   5078c:	aa0303f5 	mov	x21, x3
   50790:	f9001bf7 	str	x23, [sp, #48]
   50794:	2a0103f7 	mov	w23, w1
   50798:	f9400674 	ldr	x20, [x19, #8]
   5079c:	b40001f5 	cbz	x21, 507d8 <gicv3_rdistif_base_addrs_probe+0x64>
   507a0:	d360de81 	ubfx	x1, x20, #32, #24
   507a4:	d378fe80 	lsr	x0, x20, #56
   507a8:	aa008020 	orr	x0, x1, x0, lsl #32
   507ac:	d63f02a0 	blr	x21
   507b0:	6b17001f 	cmp	w0, w23
   507b4:	54000042 	b.cs	507bc <gicv3_rdistif_base_addrs_probe+0x48>  // b.hs, b.nlast
   507b8:	f8205ad3 	str	x19, [x22, w0, uxtw #3]
   507bc:	91408273 	add	x19, x19, #0x20, lsl #12
   507c0:	3627fed4 	tbz	w20, #4, 50798 <gicv3_rdistif_base_addrs_probe+0x24>
   507c4:	a94153f3 	ldp	x19, x20, [sp, #16]
   507c8:	a9425bf5 	ldp	x21, x22, [sp, #32]
   507cc:	f9401bf7 	ldr	x23, [sp, #48]
   507d0:	a8c47bfd 	ldp	x29, x30, [sp], #64
   507d4:	d65f03c0 	ret
   507d8:	53085e80 	ubfx	w0, w20, #8, #16
   507dc:	17fffff5 	b	507b0 <gicv3_rdistif_base_addrs_probe+0x3c>

00000000000507e0 <gicv3_spis_config_defaults>:
   507e0:	a9bd7bfd 	stp	x29, x30, [sp, #-48]!
   507e4:	910003fd 	mov	x29, sp
   507e8:	a90153f3 	stp	x19, x20, [sp, #16]
   507ec:	aa0003f4 	mov	x20, x0
   507f0:	b9400413 	ldr	w19, [x0, #4]
   507f4:	52807f80 	mov	w0, #0x3fc                 	// #1020
   507f8:	f90013f5 	str	x21, [sp, #32]
   507fc:	52800415 	mov	w21, #0x20                  	// #32
   50800:	531b1273 	ubfiz	w19, w19, #5, #5
   50804:	11008273 	add	w19, w19, #0x20
   50808:	710ff27f 	cmp	w19, #0x3fc
   5080c:	1a809273 	csel	w19, w19, w0, ls  // ls = plast
   50810:	6b1302bf 	cmp	w21, w19
   50814:	54000163 	b.cc	50840 <gicv3_spis_config_defaults+0x60>  // b.lo, b.ul, b.last
   50818:	52800415 	mov	w21, #0x20                  	// #32
   5081c:	6b1302bf 	cmp	w21, w19
   50820:	540001c3 	b.cc	50858 <gicv3_spis_config_defaults+0x78>  // b.lo, b.ul, b.last
   50824:	52800415 	mov	w21, #0x20                  	// #32
   50828:	6b1302bf 	cmp	w21, w19
   5082c:	54000223 	b.cc	50870 <gicv3_spis_config_defaults+0x90>  // b.lo, b.ul, b.last
   50830:	a94153f3 	ldp	x19, x20, [sp, #16]
   50834:	f94013f5 	ldr	x21, [sp, #32]
   50838:	a8c37bfd 	ldp	x29, x30, [sp], #48
   5083c:	d65f03c0 	ret
   50840:	2a1503e1 	mov	w1, w21
   50844:	aa1403e0 	mov	x0, x20
   50848:	12800002 	mov	w2, #0xffffffff            	// #-1
   5084c:	110082b5 	add	w21, w21, #0x20
   50850:	97ffff3d 	bl	50544 <gicd_write_igroupr>
   50854:	17ffffef 	b	50810 <gicv3_spis_config_defaults+0x30>
   50858:	2a1503e1 	mov	w1, w21
   5085c:	aa1403e0 	mov	x0, x20
   50860:	3201c3e2 	mov	w2, #0x80808080            	// #-2139062144
   50864:	110012b5 	add	w21, w21, #0x4
   50868:	97ffff4a 	bl	50590 <gicd_write_ipriorityr>
   5086c:	17ffffec 	b	5081c <gicv3_spis_config_defaults+0x3c>
   50870:	2a1503e1 	mov	w1, w21
   50874:	aa1403e0 	mov	x0, x20
   50878:	52800002 	mov	w2, #0x0                   	// #0
   5087c:	110042b5 	add	w21, w21, #0x10
   50880:	97ffff27 	bl	5051c <gicd_write_icfgr>
   50884:	17ffffe9 	b	50828 <gicv3_spis_config_defaults+0x48>

0000000000050888 <gicv3_secure_spis_config_props>:
   50888:	a9bb7bfd 	stp	x29, x30, [sp, #-80]!
   5088c:	910003fd 	mov	x29, sp
   50890:	a90153f3 	stp	x19, x20, [sp, #16]
   50894:	aa0103f3 	mov	x19, x1
   50898:	a9025bf5 	stp	x21, x22, [sp, #32]
   5089c:	aa0003f5 	mov	x21, x0
   508a0:	52800016 	mov	w22, #0x0                   	// #0
   508a4:	a90363f7 	stp	x23, x24, [sp, #48]
   508a8:	8b224837 	add	x23, x1, w2, uxtw #2
   508ac:	f90023f9 	str	x25, [sp, #64]
   508b0:	91401819 	add	x25, x0, #0x6, lsl #12
   508b4:	eb17027f 	cmp	x19, x23
   508b8:	54000101 	b.ne	508d8 <gicv3_secure_spis_config_props+0x50>  // b.any
   508bc:	2a1603e0 	mov	w0, w22
   508c0:	a94153f3 	ldp	x19, x20, [sp, #16]
   508c4:	a9425bf5 	ldp	x21, x22, [sp, #32]
   508c8:	a94363f7 	ldp	x23, x24, [sp, #48]
   508cc:	f94023f9 	ldr	x25, [sp, #64]
   508d0:	a8c57bfd 	ldp	x29, x30, [sp], #80
   508d4:	d65f03c0 	ret
   508d8:	79400274 	ldrh	w20, [x19]
   508dc:	d3402698 	ubfx	x24, x20, #0, #10
   508e0:	12002694 	and	w20, w20, #0x3ff
   508e4:	51008280 	sub	w0, w20, #0x20
   508e8:	710f6c1f 	cmp	w0, #0x3db
   508ec:	54000388 	b.hi	5095c <gicv3_secure_spis_config_props+0xd4>  // b.pmore
   508f0:	2a1403e1 	mov	w1, w20
   508f4:	aa1503e0 	mov	x0, x21
   508f8:	97fffedd 	bl	5046c <gicd_clr_igroupr>
   508fc:	39400a60 	ldrb	w0, [x19, #2]
   50900:	2a1403e1 	mov	w1, w20
   50904:	721e041f 	tst	w0, #0xc
   50908:	aa1503e0 	mov	x0, x21
   5090c:	540002c1 	b.ne	50964 <gicv3_secure_spis_config_props+0xdc>  // b.any
   50910:	321e02d6 	orr	w22, w22, #0x4
   50914:	97fffedf 	bl	50490 <gicd_set_igrpmodr>
   50918:	39400a62 	ldrb	w2, [x19, #2]
   5091c:	2a1403e1 	mov	w1, w20
   50920:	aa1503e0 	mov	x0, x21
   50924:	d3441442 	ubfx	x2, x2, #4, #2
   50928:	97fffec4 	bl	50438 <gicd_set_icfgr>
   5092c:	b9400262 	ldr	w2, [x19]
   50930:	2a1403e1 	mov	w1, w20
   50934:	aa1503e0 	mov	x0, x21
   50938:	d34a4442 	ubfx	x2, x2, #10, #8
   5093c:	97fffeee 	bl	504f4 <gicd_set_ipriorityr>
   50940:	d53800a0 	mrs	x0, mpidr_el1
   50944:	d37d2718 	ubfiz	x24, x24, #3, #10
   50948:	92405c00 	and	x0, x0, #0xffffff
   5094c:	2a1403e1 	mov	w1, w20
   50950:	f8386b20 	str	x0, [x25, x24]
   50954:	aa1503e0 	mov	x0, x21
   50958:	97fffee0 	bl	504d8 <gicd_set_isenabler>
   5095c:	91001273 	add	x19, x19, #0x4
   50960:	17ffffd5 	b	508b4 <gicv3_secure_spis_config_props+0x2c>
   50964:	320002d6 	orr	w22, w22, #0x1
   50968:	97fffed3 	bl	504b4 <gicd_clr_igrpmodr>
   5096c:	17ffffeb 	b	50918 <gicv3_secure_spis_config_props+0x90>

0000000000050970 <gicv3_ppi_sgi_config_defaults>:
   50970:	a9be7bfd 	stp	x29, x30, [sp, #-32]!
   50974:	12800001 	mov	w1, #0xffffffff            	// #-1
   50978:	910003fd 	mov	x29, sp
   5097c:	a90153f3 	stp	x19, x20, [sp, #16]
   50980:	aa0003f3 	mov	x19, x0
   50984:	d2803000 	mov	x0, #0x180                 	// #384
   50988:	f2a00020 	movk	x0, #0x1, lsl #16
   5098c:	b8206a61 	str	w1, [x19, x0]
   50990:	b9400260 	ldr	w0, [x19]
   50994:	121d0014 	and	w20, w0, #0x8
   50998:	371fffc0 	tbnz	w0, #3, 50990 <gicv3_ppi_sgi_config_defaults+0x20>
   5099c:	d2801000 	mov	x0, #0x80                  	// #128
   509a0:	12800001 	mov	w1, #0xffffffff            	// #-1
   509a4:	f2a00020 	movk	x0, #0x1, lsl #16
   509a8:	b8206a61 	str	w1, [x19, x0]
   509ac:	2a1403e1 	mov	w1, w20
   509b0:	aa1303e0 	mov	x0, x19
   509b4:	11000694 	add	w20, w20, #0x1
   509b8:	3201c3e2 	mov	w2, #0x80808080            	// #-2139062144
   509bc:	97ffff21 	bl	50640 <gicr_write_ipriorityr>
   509c0:	7100229f 	cmp	w20, #0x8
   509c4:	54ffff41 	b.ne	509ac <gicv3_ppi_sgi_config_defaults+0x3c>  // b.any
   509c8:	d2818080 	mov	x0, #0xc04                 	// #3076
   509cc:	f2a00020 	movk	x0, #0x1, lsl #16
   509d0:	b8206a7f 	str	wzr, [x19, x0]
   509d4:	a94153f3 	ldp	x19, x20, [sp, #16]
   509d8:	a8c27bfd 	ldp	x29, x30, [sp], #32
   509dc:	d65f03c0 	ret

00000000000509e0 <gicv3_secure_ppi_sgi_config_props>:
   509e0:	a9bc7bfd 	stp	x29, x30, [sp, #-64]!
   509e4:	910003fd 	mov	x29, sp
   509e8:	a90153f3 	stp	x19, x20, [sp, #16]
   509ec:	aa0103f3 	mov	x19, x1
   509f0:	a9025bf5 	stp	x21, x22, [sp, #32]
   509f4:	aa0003f5 	mov	x21, x0
   509f8:	52800016 	mov	w22, #0x0                   	// #0
   509fc:	f9001bf7 	str	x23, [sp, #48]
   50a00:	8b224837 	add	x23, x1, w2, uxtw #2
   50a04:	eb17027f 	cmp	x19, x23
   50a08:	540000e1 	b.ne	50a24 <gicv3_secure_ppi_sgi_config_props+0x44>  // b.any
   50a0c:	2a1603e0 	mov	w0, w22
   50a10:	a94153f3 	ldp	x19, x20, [sp, #16]
   50a14:	a9425bf5 	ldp	x21, x22, [sp, #32]
   50a18:	f9401bf7 	ldr	x23, [sp, #48]
   50a1c:	a8c47bfd 	ldp	x29, x30, [sp], #64
   50a20:	d65f03c0 	ret
   50a24:	79400274 	ldrh	w20, [x19]
   50a28:	12002694 	and	w20, w20, #0x3ff
   50a2c:	71007e9f 	cmp	w20, #0x1f
   50a30:	54000348 	b.hi	50a98 <gicv3_secure_ppi_sgi_config_props+0xb8>  // b.pmore
   50a34:	2a1403e1 	mov	w1, w20
   50a38:	aa1503e0 	mov	x0, x21
   50a3c:	97ffff0c 	bl	5066c <gicr_clr_igroupr>
   50a40:	39400a60 	ldrb	w0, [x19, #2]
   50a44:	2a1403e1 	mov	w1, w20
   50a48:	721e041f 	tst	w0, #0xc
   50a4c:	aa1503e0 	mov	x0, x21
   50a50:	54000281 	b.ne	50aa0 <gicv3_secure_ppi_sgi_config_props+0xc0>  // b.any
   50a54:	321e02d6 	orr	w22, w22, #0x4
   50a58:	97ffff0f 	bl	50694 <gicr_set_igrpmodr>
   50a5c:	b9400262 	ldr	w2, [x19]
   50a60:	2a1403e1 	mov	w1, w20
   50a64:	aa1503e0 	mov	x0, x21
   50a68:	d34a4442 	ubfx	x2, x2, #10, #8
   50a6c:	97fffefa 	bl	50654 <gicr_set_ipriorityr>
   50a70:	71003e9f 	cmp	w20, #0xf
   50a74:	540000c9 	b.ls	50a8c <gicv3_secure_ppi_sgi_config_props+0xac>  // b.plast
   50a78:	39400a62 	ldrb	w2, [x19, #2]
   50a7c:	2a1403e1 	mov	w1, w20
   50a80:	aa1503e0 	mov	x0, x21
   50a84:	d3441442 	ubfx	x2, x2, #4, #2
   50a88:	97ffff1f 	bl	50704 <gicr_set_icfgr>
   50a8c:	2a1403e1 	mov	w1, w20
   50a90:	aa1503e0 	mov	x0, x21
   50a94:	97ffff14 	bl	506e4 <gicr_set_isenabler>
   50a98:	91001273 	add	x19, x19, #0x4
   50a9c:	17ffffda 	b	50a04 <gicv3_secure_ppi_sgi_config_props+0x24>
   50aa0:	320002d6 	orr	w22, w22, #0x1
   50aa4:	97ffff06 	bl	506bc <gicr_clr_igrpmodr>
   50aa8:	17ffffed 	b	50a5c <gicv3_secure_ppi_sgi_config_props+0x7c>

0000000000050aac <gicd_wait_for_pending_write>:
   50aac:	b9400001 	ldr	w1, [x0]
   50ab0:	37ffffe1 	tbnz	w1, #31, 50aac <gicd_wait_for_pending_write>
   50ab4:	d65f03c0 	ret

0000000000050ab8 <gicr_wait_for_pending_write>:
   50ab8:	b9400001 	ldr	w1, [x0]
   50abc:	371fffe1 	tbnz	w1, #3, 50ab8 <gicr_wait_for_pending_write>
   50ac0:	d65f03c0 	ret

0000000000050ac4 <gicv3_driver_init>:
   50ac4:	a9be7bfd 	stp	x29, x30, [sp, #-32]!
   50ac8:	d29ffd01 	mov	x1, #0xffe8                	// #65512
   50acc:	910003fd 	mov	x29, sp
   50ad0:	a90153f3 	stp	x19, x20, [sp, #16]
   50ad4:	aa0003f3 	mov	x19, x0
   50ad8:	f9400000 	ldr	x0, [x0]
   50adc:	f9400662 	ldr	x2, [x19, #8]
   50ae0:	b8616801 	ldr	w1, [x0, x1]
   50ae4:	b9400000 	ldr	w0, [x0]
   50ae8:	b4000102 	cbz	x2, 50b08 <gicv3_driver_init+0x44>
   50aec:	a9420e60 	ldp	x0, x3, [x19, #32]
   50af0:	b9401e61 	ldr	w1, [x19, #28]
   50af4:	97ffff20 	bl	50774 <gicv3_rdistif_base_addrs_probe>
   50af8:	f9401260 	ldr	x0, [x19, #32]
   50afc:	b9401e61 	ldr	w1, [x19, #28]
   50b00:	d37df021 	lsl	x1, x1, #3
   50b04:	94003569 	bl	5e0a8 <flush_dcache_range>
   50b08:	b00000b4 	adrp	x20, 65000 <__STACKS_START__+0x2f80>
   50b0c:	d2800101 	mov	x1, #0x8                   	// #8
   50b10:	913ee280 	add	x0, x20, #0xfb8
   50b14:	f907de93 	str	x19, [x20, #4024]
   50b18:	94003564 	bl	5e0a8 <flush_dcache_range>
   50b1c:	f947de80 	ldr	x0, [x20, #4024]
   50b20:	d2800601 	mov	x1, #0x30                  	// #48
   50b24:	a94153f3 	ldp	x19, x20, [sp, #16]
   50b28:	a8c27bfd 	ldp	x29, x30, [sp], #32
   50b2c:	1400355f 	b	5e0a8 <flush_dcache_range>

0000000000050b30 <gicv3_distif_init>:
   50b30:	a9be7bfd 	stp	x29, x30, [sp, #-32]!
   50b34:	910003fd 	mov	x29, sp
   50b38:	f9000bf3 	str	x19, [sp, #16]
   50b3c:	b00000b3 	adrp	x19, 65000 <__STACKS_START__+0x2f80>
   50b40:	f947de60 	ldr	x0, [x19, #4024]
   50b44:	f9400000 	ldr	x0, [x0]
   50b48:	b9400001 	ldr	w1, [x0]
   50b4c:	121d7021 	and	w1, w1, #0xfffffff8
   50b50:	b9000001 	str	w1, [x0]
   50b54:	97ffffd6 	bl	50aac <gicd_wait_for_pending_write>
   50b58:	f947de60 	ldr	x0, [x19, #4024]
   50b5c:	f9400000 	ldr	x0, [x0]
   50b60:	b9400001 	ldr	w1, [x0]
   50b64:	321c0421 	orr	w1, w1, #0x30
   50b68:	b9000001 	str	w1, [x0]
   50b6c:	97ffffd0 	bl	50aac <gicd_wait_for_pending_write>
   50b70:	f947de60 	ldr	x0, [x19, #4024]
   50b74:	f9400000 	ldr	x0, [x0]
   50b78:	97ffff1a 	bl	507e0 <gicv3_spis_config_defaults>
   50b7c:	f947de60 	ldr	x0, [x19, #4024]
   50b80:	b9401802 	ldr	w2, [x0, #24]
   50b84:	f9400801 	ldr	x1, [x0, #16]
   50b88:	f9400000 	ldr	x0, [x0]
   50b8c:	97ffff3f 	bl	50888 <gicv3_secure_spis_config_props>
   50b90:	f947de61 	ldr	x1, [x19, #4024]
   50b94:	f9400bf3 	ldr	x19, [sp, #16]
   50b98:	f9400021 	ldr	x1, [x1]
   50b9c:	b9400022 	ldr	w2, [x1]
   50ba0:	2a020000 	orr	w0, w0, w2
   50ba4:	b9000020 	str	w0, [x1]
   50ba8:	aa0103e0 	mov	x0, x1
   50bac:	a8c27bfd 	ldp	x29, x30, [sp], #32
   50bb0:	17ffffbf 	b	50aac <gicd_wait_for_pending_write>

0000000000050bb4 <gicv3_rdistif_init>:
   50bb4:	a9bd7bfd 	stp	x29, x30, [sp, #-48]!
   50bb8:	910003fd 	mov	x29, sp
   50bbc:	a90153f3 	stp	x19, x20, [sp, #16]
   50bc0:	b00000b3 	adrp	x19, 65000 <__STACKS_START__+0x2f80>
   50bc4:	2a0003f4 	mov	w20, w0
   50bc8:	f947de61 	ldr	x1, [x19, #4024]
   50bcc:	f9400021 	ldr	x1, [x1]
   50bd0:	f90013f5 	str	x21, [sp, #32]
   50bd4:	b9400035 	ldr	w21, [x1]
   50bd8:	97fffe17 	bl	50434 <gicv3_rdistif_on>
   50bdc:	f947de60 	ldr	x0, [x19, #4024]
   50be0:	f9401000 	ldr	x0, [x0, #32]
   50be4:	f8745814 	ldr	x20, [x0, w20, uxtw #3]
   50be8:	aa1403e0 	mov	x0, x20
   50bec:	97ffff61 	bl	50970 <gicv3_ppi_sgi_config_defaults>
   50bf0:	f947de60 	ldr	x0, [x19, #4024]
   50bf4:	b9401802 	ldr	w2, [x0, #24]
   50bf8:	f9400801 	ldr	x1, [x0, #16]
   50bfc:	aa1403e0 	mov	x0, x20
   50c00:	97ffff78 	bl	509e0 <gicv3_secure_ppi_sgi_config_props>
   50c04:	6a35001f 	bics	wzr, w0, w21
   50c08:	54000160 	b.eq	50c34 <gicv3_rdistif_init+0x80>  // b.none
   50c0c:	2a0003e1 	mov	w1, w0
   50c10:	f947de60 	ldr	x0, [x19, #4024]
   50c14:	a94153f3 	ldp	x19, x20, [sp, #16]
   50c18:	f9400000 	ldr	x0, [x0]
   50c1c:	f94013f5 	ldr	x21, [sp, #32]
   50c20:	b9400002 	ldr	w2, [x0]
   50c24:	2a020021 	orr	w1, w1, w2
   50c28:	b9000001 	str	w1, [x0]
   50c2c:	a8c37bfd 	ldp	x29, x30, [sp], #48
   50c30:	17ffff9f 	b	50aac <gicd_wait_for_pending_write>
   50c34:	a94153f3 	ldp	x19, x20, [sp, #16]
   50c38:	f94013f5 	ldr	x21, [sp, #32]
   50c3c:	a8c37bfd 	ldp	x29, x30, [sp], #48
   50c40:	d65f03c0 	ret

0000000000050c44 <gicv3_cpuif_enable>:
   50c44:	a9bf7bfd 	stp	x29, x30, [sp, #-16]!
   50c48:	b00000a1 	adrp	x1, 65000 <__STACKS_START__+0x2f80>
   50c4c:	910003fd 	mov	x29, sp
   50c50:	f947dc21 	ldr	x1, [x1, #4024]
   50c54:	f9401021 	ldr	x1, [x1, #32]
   50c58:	f8605820 	ldr	x0, [x1, w0, uxtw #3]
   50c5c:	97fffeb8 	bl	5073c <gicv3_rdistif_mark_core_awake>
   50c60:	d53ecca0 	mrs	x0, s3_6_c12_c12_5
   50c64:	b2400c00 	orr	x0, x0, #0xf
   50c68:	d51ecca0 	msr	s3_6_c12_c12_5, x0
   50c6c:	d53e1100 	mrs	x0, scr_el3
   50c70:	b2400001 	orr	x1, x0, #0x1
   50c74:	d51e1101 	msr	scr_el3, x1
   50c78:	d5033fdf 	isb
   50c7c:	d53cc9a1 	mrs	x1, s3_4_c12_c9_5
   50c80:	b2400c21 	orr	x1, x1, #0xf
   50c84:	d51cc9a1 	msr	s3_4_c12_c9_5, x1
   50c88:	d2800021 	mov	x1, #0x1                   	// #1
   50c8c:	d518cca1 	msr	s3_0_c12_c12_5, x1
   50c90:	d5033fdf 	isb
   50c94:	927ff800 	and	x0, x0, #0xfffffffffffffffe
   50c98:	d51e1100 	msr	scr_el3, x0
   50c9c:	d5033fdf 	isb
   50ca0:	d518cca1 	msr	s3_0_c12_c12_5, x1
   50ca4:	d5033fdf 	isb
   50ca8:	d2801fe0 	mov	x0, #0xff                  	// #255
   50cac:	d5184600 	msr	s3_0_c4_c6_0, x0
   50cb0:	d518ccc1 	msr	s3_0_c12_c12_6, x1
   50cb4:	d53ecce0 	mrs	x0, s3_6_c12_c12_7
   50cb8:	b27f0000 	orr	x0, x0, #0x2
   50cbc:	d51ecce0 	msr	s3_6_c12_c12_7, x0
   50cc0:	d5033fdf 	isb
   50cc4:	a8c17bfd 	ldp	x29, x30, [sp], #16
   50cc8:	d65f03c0 	ret

0000000000050ccc <gicv3_cpuif_disable>:
   50ccc:	d53ecca1 	mrs	x1, s3_6_c12_c12_5
   50cd0:	b27f0421 	orr	x1, x1, #0x6
   50cd4:	d51ecca1 	msr	s3_6_c12_c12_5, x1
   50cd8:	d538ccc1 	mrs	x1, s3_0_c12_c12_6
   50cdc:	927f7821 	and	x1, x1, #0xfffffffe
   50ce0:	d518ccc1 	msr	s3_0_c12_c12_6, x1
   50ce4:	d53ecce1 	mrs	x1, s3_6_c12_c12_7
   50ce8:	927e7421 	and	x1, x1, #0xfffffffc
   50cec:	d51ecce1 	msr	s3_6_c12_c12_7, x1
   50cf0:	d5033fdf 	isb
   50cf4:	b00000a1 	adrp	x1, 65000 <__STACKS_START__+0x2f80>
   50cf8:	f947dc21 	ldr	x1, [x1, #4024]
   50cfc:	f9401021 	ldr	x1, [x1, #32]
   50d00:	f8605820 	ldr	x0, [x1, w0, uxtw #3]
   50d04:	17fffe95 	b	50758 <gicv3_rdistif_mark_core_asleep>

0000000000050d08 <gicv3_get_pending_interrupt_type>:
   50d08:	d538c840 	mrs	x0, s3_0_c12_c8_2
   50d0c:	12005c00 	and	w0, w0, #0xffffff
   50d10:	d65f03c0 	ret

0000000000050d14 <gicv3_rdistif_save>:
   50d14:	a9bf7bfd 	stp	x29, x30, [sp, #-16]!
   50d18:	2a0003e3 	mov	w3, w0
   50d1c:	b00000a0 	adrp	x0, 65000 <__STACKS_START__+0x2f80>
   50d20:	910003fd 	mov	x29, sp
   50d24:	f947dc00 	ldr	x0, [x0, #4024]
   50d28:	aa0103e2 	mov	x2, x1
   50d2c:	f9401000 	ldr	x0, [x0, #32]
   50d30:	f8635800 	ldr	x0, [x0, w3, uxtw #3]
   50d34:	97ffff61 	bl	50ab8 <gicr_wait_for_pending_write>
   50d38:	b9400001 	ldr	w1, [x0]
   50d3c:	b9001041 	str	w1, [x2, #16]
   50d40:	91404004 	add	x4, x0, #0x10, lsl #12
   50d44:	f9403801 	ldr	x1, [x0, #112]
   50d48:	f9000041 	str	x1, [x2]
   50d4c:	91108084 	add	x4, x4, #0x420
   50d50:	f9403c01 	ldr	x1, [x0, #120]
   50d54:	f9000441 	str	x1, [x2, #8]
   50d58:	d2801001 	mov	x1, #0x80                  	// #128
   50d5c:	f2a00021 	movk	x1, #0x1, lsl #16
   50d60:	b8616801 	ldr	w1, [x0, x1]
   50d64:	b9001441 	str	w1, [x2, #20]
   50d68:	d2802001 	mov	x1, #0x100                 	// #256
   50d6c:	f2a00021 	movk	x1, #0x1, lsl #16
   50d70:	b8616801 	ldr	w1, [x0, x1]
   50d74:	b9001841 	str	w1, [x2, #24]
   50d78:	d2804001 	mov	x1, #0x200                 	// #512
   50d7c:	f2a00021 	movk	x1, #0x1, lsl #16
   50d80:	b8616801 	ldr	w1, [x0, x1]
   50d84:	b9001c41 	str	w1, [x2, #28]
   50d88:	d2806001 	mov	x1, #0x300                 	// #768
   50d8c:	f2a00021 	movk	x1, #0x1, lsl #16
   50d90:	b8616801 	ldr	w1, [x0, x1]
   50d94:	b9002041 	str	w1, [x2, #32]
   50d98:	d281a001 	mov	x1, #0xd00                 	// #3328
   50d9c:	f2a00021 	movk	x1, #0x1, lsl #16
   50da0:	b8616801 	ldr	w1, [x0, x1]
   50da4:	b9004c41 	str	w1, [x2, #76]
   50da8:	d2818001 	mov	x1, #0xc00                 	// #3072
   50dac:	f2a00021 	movk	x1, #0x1, lsl #16
   50db0:	b8616801 	ldr	w1, [x0, x1]
   50db4:	b9004441 	str	w1, [x2, #68]
   50db8:	d2818081 	mov	x1, #0xc04                 	// #3076
   50dbc:	f2a00021 	movk	x1, #0x1, lsl #16
   50dc0:	b8616801 	ldr	w1, [x0, x1]
   50dc4:	b9004841 	str	w1, [x2, #72]
   50dc8:	d281c001 	mov	x1, #0xe00                 	// #3584
   50dcc:	f2a00021 	movk	x1, #0x1, lsl #16
   50dd0:	b8616801 	ldr	w1, [x0, x1]
   50dd4:	b9005041 	str	w1, [x2, #80]
   50dd8:	cb000042 	sub	x2, x2, x0
   50ddc:	91404001 	add	x1, x0, #0x10, lsl #12
   50de0:	d1404042 	sub	x2, x2, #0x10, lsl #12
   50de4:	91100021 	add	x1, x1, #0x400
   50de8:	d10f7042 	sub	x2, x2, #0x3dc
   50dec:	b9400020 	ldr	w0, [x1]
   50df0:	b8216840 	str	w0, [x2, x1]
   50df4:	91001021 	add	x1, x1, #0x4
   50df8:	eb04003f 	cmp	x1, x4
   50dfc:	54ffff81 	b.ne	50dec <gicv3_rdistif_save+0xd8>  // b.any
   50e00:	a8c17bfd 	ldp	x29, x30, [sp], #16
   50e04:	2a0303e0 	mov	w0, w3
   50e08:	17fffd89 	b	5042c <gicv3_distif_pre_save>

0000000000050e0c <gicv3_rdistif_init_restore>:
   50e0c:	a9bd7bfd 	stp	x29, x30, [sp, #-48]!
   50e10:	910003fd 	mov	x29, sp
   50e14:	a90153f3 	stp	x19, x20, [sp, #16]
   50e18:	aa0103f4 	mov	x20, x1
   50e1c:	b00000a1 	adrp	x1, 65000 <__STACKS_START__+0x2f80>
   50e20:	f947dc21 	ldr	x1, [x1, #4024]
   50e24:	f9401021 	ldr	x1, [x1, #32]
   50e28:	f90013f5 	str	x21, [sp, #32]
   50e2c:	2a0003f5 	mov	w21, w0
   50e30:	f8755833 	ldr	x19, [x1, w21, uxtw #3]
   50e34:	97fffd80 	bl	50434 <gicv3_rdistif_on>
   50e38:	2a1503e0 	mov	w0, w21
   50e3c:	97fffd7d 	bl	50430 <gicv3_distif_post_restore>
   50e40:	d2803000 	mov	x0, #0x180                 	// #384
   50e44:	12800001 	mov	w1, #0xffffffff            	// #-1
   50e48:	f2a00020 	movk	x0, #0x1, lsl #16
   50e4c:	b8206a61 	str	w1, [x19, x0]
   50e50:	aa1303e0 	mov	x0, x19
   50e54:	97ffff19 	bl	50ab8 <gicr_wait_for_pending_write>
   50e58:	b9401280 	ldr	w0, [x20, #16]
   50e5c:	91404262 	add	x2, x19, #0x10, lsl #12
   50e60:	91108042 	add	x2, x2, #0x420
   50e64:	121f7800 	and	w0, w0, #0xfffffffe
   50e68:	b9000260 	str	w0, [x19]
   50e6c:	f9400280 	ldr	x0, [x20]
   50e70:	b9401681 	ldr	w1, [x20, #20]
   50e74:	f9003a60 	str	x0, [x19, #112]
   50e78:	f9400680 	ldr	x0, [x20, #8]
   50e7c:	f9003e60 	str	x0, [x19, #120]
   50e80:	d2801000 	mov	x0, #0x80                  	// #128
   50e84:	f2a00020 	movk	x0, #0x1, lsl #16
   50e88:	b8206a61 	str	w1, [x19, x0]
   50e8c:	91320000 	add	x0, x0, #0xc80
   50e90:	b9404e81 	ldr	w1, [x20, #76]
   50e94:	b8206a61 	str	w1, [x19, x0]
   50e98:	cb130281 	sub	x1, x20, x19
   50e9c:	91404260 	add	x0, x19, #0x10, lsl #12
   50ea0:	d1404021 	sub	x1, x1, #0x10, lsl #12
   50ea4:	91100000 	add	x0, x0, #0x400
   50ea8:	d10f7021 	sub	x1, x1, #0x3dc
   50eac:	b8606823 	ldr	w3, [x1, x0]
   50eb0:	b8004403 	str	w3, [x0], #4
   50eb4:	eb02001f 	cmp	x0, x2
   50eb8:	54ffffa1 	b.ne	50eac <gicv3_rdistif_init_restore+0xa0>  // b.any
   50ebc:	d2818000 	mov	x0, #0xc00                 	// #3072
   50ec0:	b9404681 	ldr	w1, [x20, #68]
   50ec4:	f2a00020 	movk	x0, #0x1, lsl #16
   50ec8:	b8206a61 	str	w1, [x19, x0]
   50ecc:	91001000 	add	x0, x0, #0x4
   50ed0:	b9404a81 	ldr	w1, [x20, #72]
   50ed4:	b8206a61 	str	w1, [x19, x0]
   50ed8:	9107f000 	add	x0, x0, #0x1fc
   50edc:	b9405281 	ldr	w1, [x20, #80]
   50ee0:	b8206a61 	str	w1, [x19, x0]
   50ee4:	d2804000 	mov	x0, #0x200                 	// #512
   50ee8:	f2a00020 	movk	x0, #0x1, lsl #16
   50eec:	b9401e81 	ldr	w1, [x20, #28]
   50ef0:	b8206a61 	str	w1, [x19, x0]
   50ef4:	91040000 	add	x0, x0, #0x100
   50ef8:	b9402281 	ldr	w1, [x20, #32]
   50efc:	b8206a61 	str	w1, [x19, x0]
   50f00:	aa1303e0 	mov	x0, x19
   50f04:	97fffeea 	bl	50aac <gicd_wait_for_pending_write>
   50f08:	d2802000 	mov	x0, #0x100                 	// #256
   50f0c:	b9401a81 	ldr	w1, [x20, #24]
   50f10:	f2a00020 	movk	x0, #0x1, lsl #16
   50f14:	f94013f5 	ldr	x21, [sp, #32]
   50f18:	b8206a61 	str	w1, [x19, x0]
   50f1c:	b9401280 	ldr	w0, [x20, #16]
   50f20:	b9000260 	str	w0, [x19]
   50f24:	aa1303e0 	mov	x0, x19
   50f28:	a94153f3 	ldp	x19, x20, [sp, #16]
   50f2c:	a8c37bfd 	ldp	x29, x30, [sp], #48
   50f30:	17fffee2 	b	50ab8 <gicr_wait_for_pending_write>

0000000000050f34 <gicv3_distif_save>:
   50f34:	a9bd7bfd 	stp	x29, x30, [sp, #-48]!
   50f38:	910003fd 	mov	x29, sp
   50f3c:	a9025bf5 	stp	x21, x22, [sp, #32]
   50f40:	aa0003f5 	mov	x21, x0
   50f44:	b00000a0 	adrp	x0, 65000 <__STACKS_START__+0x2f80>
   50f48:	a90153f3 	stp	x19, x20, [sp, #16]
   50f4c:	52800416 	mov	w22, #0x20                  	// #32
   50f50:	f947dc00 	ldr	x0, [x0, #4024]
   50f54:	f9400014 	ldr	x20, [x0]
   50f58:	52807f80 	mov	w0, #0x3fc                 	// #1020
   50f5c:	b9400693 	ldr	w19, [x20, #4]
   50f60:	531b1273 	ubfiz	w19, w19, #5, #5
   50f64:	11008273 	add	w19, w19, #0x20
   50f68:	710ff27f 	cmp	w19, #0x3fc
   50f6c:	1a809273 	csel	w19, w19, w0, ls  // ls = plast
   50f70:	aa1403e0 	mov	x0, x20
   50f74:	97fffece 	bl	50aac <gicd_wait_for_pending_write>
   50f78:	b9400280 	ldr	w0, [x20]
   50f7c:	b91ee2a0 	str	w0, [x21, #7904]
   50f80:	6b1302df 	cmp	w22, w19
   50f84:	54000423 	b.cc	51008 <gicv3_distif_save+0xd4>  // b.lo, b.ul, b.last
   50f88:	52800416 	mov	w22, #0x20                  	// #32
   50f8c:	6b1302df 	cmp	w22, w19
   50f90:	540004e3 	b.cc	5102c <gicv3_distif_save+0xf8>  // b.lo, b.ul, b.last
   50f94:	52800416 	mov	w22, #0x20                  	// #32
   50f98:	6b1302df 	cmp	w22, w19
   50f9c:	540005a3 	b.cc	51050 <gicv3_distif_save+0x11c>  // b.lo, b.ul, b.last
   50fa0:	52800416 	mov	w22, #0x20                  	// #32
   50fa4:	6b1302df 	cmp	w22, w19
   50fa8:	54000663 	b.cc	51074 <gicv3_distif_save+0x140>  // b.lo, b.ul, b.last
   50fac:	52800416 	mov	w22, #0x20                  	// #32
   50fb0:	6b1302df 	cmp	w22, w19
   50fb4:	54000723 	b.cc	51098 <gicv3_distif_save+0x164>  // b.lo, b.ul, b.last
   50fb8:	52800416 	mov	w22, #0x20                  	// #32
   50fbc:	6b1302df 	cmp	w22, w19
   50fc0:	540007e3 	b.cc	510bc <gicv3_distif_save+0x188>  // b.lo, b.ul, b.last
   50fc4:	52800416 	mov	w22, #0x20                  	// #32
   50fc8:	6b1302df 	cmp	w22, w19
   50fcc:	540008a3 	b.cc	510e0 <gicv3_distif_save+0x1ac>  // b.lo, b.ul, b.last
   50fd0:	52800416 	mov	w22, #0x20                  	// #32
   50fd4:	6b1302df 	cmp	w22, w19
   50fd8:	54000963 	b.cc	51104 <gicv3_distif_save+0x1d0>  // b.lo, b.ul, b.last
   50fdc:	92801fe0 	mov	x0, #0xffffffffffffff00    	// #-256
   50fe0:	d28c2001 	mov	x1, #0x6100                	// #24832
   50fe4:	8b010294 	add	x20, x20, x1
   50fe8:	8b334c13 	add	x19, x0, w19, uxtw #3
   50fec:	d2800000 	mov	x0, #0x0                   	// #0
   50ff0:	eb13001f 	cmp	x0, x19
   50ff4:	540009a1 	b.ne	51128 <gicv3_distif_save+0x1f4>  // b.any
   50ff8:	a94153f3 	ldp	x19, x20, [sp, #16]
   50ffc:	a9425bf5 	ldp	x21, x22, [sp, #32]
   51000:	a8c37bfd 	ldp	x29, x30, [sp], #48
   51004:	d65f03c0 	ret
   51008:	2a1603e1 	mov	w1, w22
   5100c:	aa1403e0 	mov	x0, x20
   51010:	97fffd48 	bl	50530 <gicd_read_igroupr>
   51014:	510082c1 	sub	w1, w22, #0x20
   51018:	110082d6 	add	w22, w22, #0x20
   5101c:	53057c21 	lsr	w1, w1, #5
   51020:	8b010aa1 	add	x1, x21, x1, lsl #2
   51024:	b91ee420 	str	w0, [x1, #7908]
   51028:	17ffffd6 	b	50f80 <gicv3_distif_save+0x4c>
   5102c:	2a1603e1 	mov	w1, w22
   51030:	aa1403e0 	mov	x0, x20
   51034:	97fffd65 	bl	505c8 <gicd_read_isenabler>
   51038:	510082c1 	sub	w1, w22, #0x20
   5103c:	110082d6 	add	w22, w22, #0x20
   51040:	53057c21 	lsr	w1, w1, #5
   51044:	911f6021 	add	x1, x1, #0x7d8
   51048:	b8217aa0 	str	w0, [x21, x1, lsl #2]
   5104c:	17ffffd0 	b	50f8c <gicv3_distif_save+0x58>
   51050:	2a1603e1 	mov	w1, w22
   51054:	aa1403e0 	mov	x0, x20
   51058:	97fffd66 	bl	505f0 <gicd_read_ispendr>
   5105c:	510082c1 	sub	w1, w22, #0x20
   51060:	110082d6 	add	w22, w22, #0x20
   51064:	53057c21 	lsr	w1, w1, #5
   51068:	8b010aa1 	add	x1, x21, x1, lsl #2
   5106c:	b91fdc20 	str	w0, [x1, #8156]
   51070:	17ffffca 	b	50f98 <gicv3_distif_save+0x64>
   51074:	2a1603e1 	mov	w1, w22
   51078:	aa1403e0 	mov	x0, x20
   5107c:	97fffd49 	bl	505a0 <gicd_read_isactiver>
   51080:	510082c1 	sub	w1, w22, #0x20
   51084:	110082d6 	add	w22, w22, #0x20
   51088:	53057c21 	lsr	w1, w1, #5
   5108c:	8b010aa1 	add	x1, x21, x1, lsl #2
   51090:	b9205820 	str	w0, [x1, #8280]
   51094:	17ffffc4 	b	50fa4 <gicv3_distif_save+0x70>
   51098:	2a1603e1 	mov	w1, w22
   5109c:	aa1403e0 	mov	x0, x20
   510a0:	97fffd38 	bl	50580 <gicd_read_ipriorityr>
   510a4:	510082c1 	sub	w1, w22, #0x20
   510a8:	110012d6 	add	w22, w22, #0x4
   510ac:	927e7421 	and	x1, x1, #0xfffffffc
   510b0:	8b0102a1 	add	x1, x21, x1
   510b4:	b920d420 	str	w0, [x1, #8404]
   510b8:	17ffffbe 	b	50fb0 <gicv3_distif_save+0x7c>
   510bc:	2a1603e1 	mov	w1, w22
   510c0:	aa1403e0 	mov	x0, x20
   510c4:	97fffd11 	bl	50508 <gicd_read_icfgr>
   510c8:	510082c1 	sub	w1, w22, #0x20
   510cc:	110042d6 	add	w22, w22, #0x10
   510d0:	53047c21 	lsr	w1, w1, #4
   510d4:	9124b021 	add	x1, x1, #0x92c
   510d8:	b8217aa0 	str	w0, [x21, x1, lsl #2]
   510dc:	17ffffb8 	b	50fbc <gicv3_distif_save+0x88>
   510e0:	2a1603e1 	mov	w1, w22
   510e4:	aa1403e0 	mov	x0, x20
   510e8:	97fffd1c 	bl	50558 <gicd_read_igrpmodr>
   510ec:	510082c1 	sub	w1, w22, #0x20
   510f0:	110082d6 	add	w22, w22, #0x20
   510f4:	53057c21 	lsr	w1, w1, #5
   510f8:	8b010aa1 	add	x1, x21, x1, lsl #2
   510fc:	b925a820 	str	w0, [x1, #9640]
   51100:	17ffffb2 	b	50fc8 <gicv3_distif_save+0x94>
   51104:	2a1603e1 	mov	w1, w22
   51108:	aa1403e0 	mov	x0, x20
   5110c:	97fffd43 	bl	50618 <gicd_read_nsacr>
   51110:	510082c1 	sub	w1, w22, #0x20
   51114:	110042d6 	add	w22, w22, #0x10
   51118:	53047c21 	lsr	w1, w1, #4
   5111c:	8b010aa1 	add	x1, x21, x1, lsl #2
   51120:	b9262420 	str	w0, [x1, #9764]
   51124:	17ffffac 	b	50fd4 <gicv3_distif_save+0xa0>
   51128:	f8606a81 	ldr	x1, [x20, x0]
   5112c:	f8206aa1 	str	x1, [x21, x0]
   51130:	91002000 	add	x0, x0, #0x8
   51134:	17ffffaf 	b	50ff0 <gicv3_distif_save+0xbc>

0000000000051138 <gicv3_distif_init_restore>:
   51138:	a9bd7bfd 	stp	x29, x30, [sp, #-48]!
   5113c:	910003fd 	mov	x29, sp
   51140:	a9025bf5 	stp	x21, x22, [sp, #32]
   51144:	aa0003f5 	mov	x21, x0
   51148:	900000a0 	adrp	x0, 65000 <__STACKS_START__+0x2f80>
   5114c:	a90153f3 	stp	x19, x20, [sp, #16]
   51150:	52800416 	mov	w22, #0x20                  	// #32
   51154:	f947dc00 	ldr	x0, [x0, #4024]
   51158:	f9400013 	ldr	x19, [x0]
   5115c:	b9400260 	ldr	w0, [x19]
   51160:	121d7000 	and	w0, w0, #0xfffffff8
   51164:	b9000260 	str	w0, [x19]
   51168:	aa1303e0 	mov	x0, x19
   5116c:	97fffe50 	bl	50aac <gicd_wait_for_pending_write>
   51170:	b9400260 	ldr	w0, [x19]
   51174:	321c0400 	orr	w0, w0, #0x30
   51178:	b9000260 	str	w0, [x19]
   5117c:	aa1303e0 	mov	x0, x19
   51180:	97fffe4b 	bl	50aac <gicd_wait_for_pending_write>
   51184:	b9400674 	ldr	w20, [x19, #4]
   51188:	52807f80 	mov	w0, #0x3fc                 	// #1020
   5118c:	531b1294 	ubfiz	w20, w20, #5, #5
   51190:	11008294 	add	w20, w20, #0x20
   51194:	710ff29f 	cmp	w20, #0x3fc
   51198:	1a809294 	csel	w20, w20, w0, ls  // ls = plast
   5119c:	6b1402df 	cmp	w22, w20
   511a0:	54000463 	b.cc	5122c <gicv3_distif_init_restore+0xf4>  // b.lo, b.ul, b.last
   511a4:	52800416 	mov	w22, #0x20                  	// #32
   511a8:	6b1402df 	cmp	w22, w20
   511ac:	54000523 	b.cc	51250 <gicv3_distif_init_restore+0x118>  // b.lo, b.ul, b.last
   511b0:	52800416 	mov	w22, #0x20                  	// #32
   511b4:	6b1402df 	cmp	w22, w20
   511b8:	540005e3 	b.cc	51274 <gicv3_distif_init_restore+0x13c>  // b.lo, b.ul, b.last
   511bc:	52800416 	mov	w22, #0x20                  	// #32
   511c0:	6b1402df 	cmp	w22, w20
   511c4:	540006a3 	b.cc	51298 <gicv3_distif_init_restore+0x160>  // b.lo, b.ul, b.last
   511c8:	52800416 	mov	w22, #0x20                  	// #32
   511cc:	6b1402df 	cmp	w22, w20
   511d0:	54000763 	b.cc	512bc <gicv3_distif_init_restore+0x184>  // b.lo, b.ul, b.last
   511d4:	d28c2000 	mov	x0, #0x6100                	// #24832
   511d8:	8b000261 	add	x1, x19, x0
   511dc:	d2800000 	mov	x0, #0x0                   	// #0
   511e0:	11008002 	add	w2, w0, #0x20
   511e4:	6b02029f 	cmp	w20, w2
   511e8:	540007c8 	b.hi	512e0 <gicv3_distif_init_restore+0x1a8>  // b.pmore
   511ec:	52800416 	mov	w22, #0x20                  	// #32
   511f0:	6b1402df 	cmp	w22, w20
   511f4:	540007e3 	b.cc	512f0 <gicv3_distif_init_restore+0x1b8>  // b.lo, b.ul, b.last
   511f8:	52800416 	mov	w22, #0x20                  	// #32
   511fc:	6b1402df 	cmp	w22, w20
   51200:	540008a3 	b.cc	51314 <gicv3_distif_init_restore+0x1dc>  // b.lo, b.ul, b.last
   51204:	52800416 	mov	w22, #0x20                  	// #32
   51208:	6b1402df 	cmp	w22, w20
   5120c:	54000963 	b.cc	51338 <gicv3_distif_init_restore+0x200>  // b.lo, b.ul, b.last
   51210:	b95ee2a0 	ldr	w0, [x21, #7904]
   51214:	a9425bf5 	ldp	x21, x22, [sp, #32]
   51218:	b9000260 	str	w0, [x19]
   5121c:	aa1303e0 	mov	x0, x19
   51220:	a94153f3 	ldp	x19, x20, [sp, #16]
   51224:	a8c37bfd 	ldp	x29, x30, [sp], #48
   51228:	17fffe21 	b	50aac <gicd_wait_for_pending_write>
   5122c:	510082c0 	sub	w0, w22, #0x20
   51230:	2a1603e1 	mov	w1, w22
   51234:	110082d6 	add	w22, w22, #0x20
   51238:	53057c00 	lsr	w0, w0, #5
   5123c:	8b000aa0 	add	x0, x21, x0, lsl #2
   51240:	b95ee402 	ldr	w2, [x0, #7908]
   51244:	aa1303e0 	mov	x0, x19
   51248:	97fffcbf 	bl	50544 <gicd_write_igroupr>
   5124c:	17ffffd4 	b	5119c <gicv3_distif_init_restore+0x64>
   51250:	510082c0 	sub	w0, w22, #0x20
   51254:	2a1603e1 	mov	w1, w22
   51258:	927e7400 	and	x0, x0, #0xfffffffc
   5125c:	110012d6 	add	w22, w22, #0x4
   51260:	8b0002a0 	add	x0, x21, x0
   51264:	b960d402 	ldr	w2, [x0, #8404]
   51268:	aa1303e0 	mov	x0, x19
   5126c:	97fffcc9 	bl	50590 <gicd_write_ipriorityr>
   51270:	17ffffce 	b	511a8 <gicv3_distif_init_restore+0x70>
   51274:	510082c0 	sub	w0, w22, #0x20
   51278:	2a1603e1 	mov	w1, w22
   5127c:	110042d6 	add	w22, w22, #0x10
   51280:	53047c00 	lsr	w0, w0, #4
   51284:	9124b000 	add	x0, x0, #0x92c
   51288:	b8607aa2 	ldr	w2, [x21, x0, lsl #2]
   5128c:	aa1303e0 	mov	x0, x19
   51290:	97fffca3 	bl	5051c <gicd_write_icfgr>
   51294:	17ffffc8 	b	511b4 <gicv3_distif_init_restore+0x7c>
   51298:	510082c0 	sub	w0, w22, #0x20
   5129c:	2a1603e1 	mov	w1, w22
   512a0:	110082d6 	add	w22, w22, #0x20
   512a4:	53057c00 	lsr	w0, w0, #5
   512a8:	8b000aa0 	add	x0, x21, x0, lsl #2
   512ac:	b965a802 	ldr	w2, [x0, #9640]
   512b0:	aa1303e0 	mov	x0, x19
   512b4:	97fffcae 	bl	5056c <gicd_write_igrpmodr>
   512b8:	17ffffc2 	b	511c0 <gicv3_distif_init_restore+0x88>
   512bc:	510082c0 	sub	w0, w22, #0x20
   512c0:	2a1603e1 	mov	w1, w22
   512c4:	110042d6 	add	w22, w22, #0x10
   512c8:	53047c00 	lsr	w0, w0, #4
   512cc:	8b000aa0 	add	x0, x21, x0, lsl #2
   512d0:	b9662402 	ldr	w2, [x0, #9764]
   512d4:	aa1303e0 	mov	x0, x19
   512d8:	97fffcd5 	bl	5062c <gicd_write_nsacr>
   512dc:	17ffffbc 	b	511cc <gicv3_distif_init_restore+0x94>
   512e0:	f8607aa2 	ldr	x2, [x21, x0, lsl #3]
   512e4:	91000400 	add	x0, x0, #0x1
   512e8:	f8008422 	str	x2, [x1], #8
   512ec:	17ffffbd 	b	511e0 <gicv3_distif_init_restore+0xa8>
   512f0:	510082c0 	sub	w0, w22, #0x20
   512f4:	2a1603e1 	mov	w1, w22
   512f8:	110082d6 	add	w22, w22, #0x20
   512fc:	53057c00 	lsr	w0, w0, #5
   51300:	911f6000 	add	x0, x0, #0x7d8
   51304:	b8607aa2 	ldr	w2, [x21, x0, lsl #2]
   51308:	aa1303e0 	mov	x0, x19
   5130c:	97fffcb4 	bl	505dc <gicd_write_isenabler>
   51310:	17ffffb8 	b	511f0 <gicv3_distif_init_restore+0xb8>
   51314:	510082c0 	sub	w0, w22, #0x20
   51318:	2a1603e1 	mov	w1, w22
   5131c:	110082d6 	add	w22, w22, #0x20
   51320:	53057c00 	lsr	w0, w0, #5
   51324:	8b000aa0 	add	x0, x21, x0, lsl #2
   51328:	b95fdc02 	ldr	w2, [x0, #8156]
   5132c:	aa1303e0 	mov	x0, x19
   51330:	97fffcb5 	bl	50604 <gicd_write_ispendr>
   51334:	17ffffb2 	b	511fc <gicv3_distif_init_restore+0xc4>
   51338:	510082c0 	sub	w0, w22, #0x20
   5133c:	2a1603e1 	mov	w1, w22
   51340:	110082d6 	add	w22, w22, #0x20
   51344:	53057c00 	lsr	w0, w0, #5
   51348:	8b000aa0 	add	x0, x21, x0, lsl #2
   5134c:	b9605802 	ldr	w2, [x0, #8280]
   51350:	aa1303e0 	mov	x0, x19
   51354:	97fffc98 	bl	505b4 <gicd_write_isactiver>
   51358:	17ffffac 	b	51208 <gicv3_distif_init_restore+0xd0>

000000000005135c <udelay>:
   5135c:	a9bd7bfd 	stp	x29, x30, [sp, #-48]!
   51360:	910003fd 	mov	x29, sp
   51364:	a90153f3 	stp	x19, x20, [sp, #16]
   51368:	900000b4 	adrp	x20, 65000 <__STACKS_START__+0x2f80>
   5136c:	2a0003f3 	mov	w19, w0
   51370:	f947e280 	ldr	x0, [x20, #4032]
   51374:	f9400000 	ldr	x0, [x0]
   51378:	f90013f5 	str	x21, [sp, #32]
   5137c:	d63f0000 	blr	x0
   51380:	2a0003f5 	mov	w21, w0
   51384:	f947e282 	ldr	x2, [x20, #4032]
   51388:	29410841 	ldp	w1, w2, [x2, #8]
   5138c:	d1000420 	sub	x0, x1, #0x1
   51390:	9ba20273 	umaddl	x19, w19, w2, x0
   51394:	9ac10a73 	udiv	x19, x19, x1
   51398:	91000673 	add	x19, x19, #0x1
   5139c:	f947e280 	ldr	x0, [x20, #4032]
   513a0:	f9400000 	ldr	x0, [x0]
   513a4:	d63f0000 	blr	x0
   513a8:	4b0002a1 	sub	w1, w21, w0
   513ac:	eb13003f 	cmp	x1, x19
   513b0:	54ffff63 	b.cc	5139c <udelay+0x40>  // b.lo, b.ul, b.last
   513b4:	a94153f3 	ldp	x19, x20, [sp, #16]
   513b8:	f94013f5 	ldr	x21, [sp, #32]
   513bc:	a8c37bfd 	ldp	x29, x30, [sp], #48
   513c0:	d65f03c0 	ret

00000000000513c4 <timer_init>:
   513c4:	900000a1 	adrp	x1, 65000 <__STACKS_START__+0x2f80>
   513c8:	f907e020 	str	x0, [x1, #4032]
   513cc:	d65f03c0 	ret

00000000000513d0 <get_timer_value>:
   513d0:	d53be020 	mrs	x0, cntpct_el0
   513d4:	2a2003e0 	mvn	w0, w0
   513d8:	d65f03c0 	ret

00000000000513dc <generic_delay_timer_init_args>:
   513dc:	2a0003e4 	mov	w4, w0
   513e0:	900000a3 	adrp	x3, 65000 <__STACKS_START__+0x2f80>
   513e4:	913f2060 	add	x0, x3, #0xfc8
   513e8:	90000002 	adrp	x2, 51000 <gicv3_distif_save+0xcc>
   513ec:	910f4042 	add	x2, x2, #0x3d0
   513f0:	f907e462 	str	x2, [x3, #4040]
   513f4:	29010404 	stp	w4, w1, [x0, #8]
   513f8:	17fffff3 	b	513c4 <timer_init>

00000000000513fc <generic_delay_timer_init>:
   513fc:	a9bf7bfd 	stp	x29, x30, [sp, #-16]!
   51400:	910003fd 	mov	x29, sp
   51404:	94000757 	bl	53160 <plat_get_syscnt_freq2>
   51408:	2a0003e1 	mov	w1, w0
   5140c:	52884800 	mov	w0, #0x4240                	// #16960
   51410:	528000c3 	mov	w3, #0x6                   	// #6
   51414:	72a001e0 	movk	w0, #0xf, lsl #16
   51418:	52800142 	mov	w2, #0xa                   	// #10
   5141c:	1ac20824 	udiv	w4, w1, w2
   51420:	1b028485 	msub	w5, w4, w2, w1
   51424:	350000a5 	cbnz	w5, 51438 <generic_delay_timer_init+0x3c>
   51428:	1ac20800 	udiv	w0, w0, w2
   5142c:	2a0403e1 	mov	w1, w4
   51430:	71000463 	subs	w3, w3, #0x1
   51434:	54ffff41 	b.ne	5141c <generic_delay_timer_init+0x20>  // b.any
   51438:	a8c17bfd 	ldp	x29, x30, [sp], #16
   5143c:	17ffffe8 	b	513dc <generic_delay_timer_init_args>

0000000000051440 <gpio_set_direction>:
   51440:	900000a2 	adrp	x2, 65000 <__STACKS_START__+0x2f80>
   51444:	f947ec42 	ldr	x2, [x2, #4056]
   51448:	f9400442 	ldr	x2, [x2, #8]
   5144c:	aa0203f0 	mov	x16, x2
   51450:	d61f0200 	br	x16

0000000000051454 <gpio_set_value>:
   51454:	900000a2 	adrp	x2, 65000 <__STACKS_START__+0x2f80>
   51458:	f947ec42 	ldr	x2, [x2, #4056]
   5145c:	f9400c42 	ldr	x2, [x2, #24]
   51460:	aa0203f0 	mov	x16, x2
   51464:	d61f0200 	br	x16

0000000000051468 <gpio_init>:
   51468:	900000a1 	adrp	x1, 65000 <__STACKS_START__+0x2f80>
   5146c:	f907ec20 	str	x0, [x1, #4056]
   51470:	d65f03c0 	ret

0000000000051474 <cm_init>:
   51474:	d65f03c0 	ret

0000000000051478 <cm_setup_context>:
   51478:	a9bd7bfd 	stp	x29, x30, [sp, #-48]!
   5147c:	910003fd 	mov	x29, sp
   51480:	a9025bf5 	stp	x21, x22, [sp, #32]
   51484:	aa0003f6 	mov	x22, x0
   51488:	b9400435 	ldr	w21, [x1, #4]
   5148c:	a90153f3 	stp	x19, x20, [sp, #16]
   51490:	aa0103f4 	mov	x20, x1
   51494:	120002b5 	and	w21, w21, #0x1
   51498:	d2804601 	mov	x1, #0x230                 	// #560
   5149c:	9400336c 	bl	5e24c <zeromem>
   514a0:	d53e1113 	mrs	x19, scr_el3
   514a4:	9281a0e0 	mov	x0, #0xfffffffffffff2f8    	// #-3336
   514a8:	8a000273 	and	x19, x19, x0
   514ac:	34000055 	cbz	w21, 514b4 <cm_setup_context+0x3c>
   514b0:	b2400273 	orr	x19, x19, #0x1
   514b4:	b9401280 	ldr	w0, [x20, #16]
   514b8:	37200040 	tbnz	w0, #4, 514c0 <cm_setup_context+0x48>
   514bc:	b2760273 	orr	x19, x19, #0x400
   514c0:	b9400680 	ldr	w0, [x20, #4]
   514c4:	36100040 	tbz	w0, #2, 514cc <cm_setup_context+0x54>
   514c8:	b2750273 	orr	x19, x19, #0x800
   514cc:	927cfa73 	and	x19, x19, #0xfffffffffffffff7
   514d0:	34000055 	cbz	w21, 514d8 <cm_setup_context+0x60>
   514d4:	b2700673 	orr	x19, x19, #0x30000
   514d8:	d5380420 	mrs	x0, id_aa64pfr1_el1
   514dc:	53082c00 	ubfx	w0, w0, #8, #4
   514e0:	7100041f 	cmp	w0, #0x1
   514e4:	540000a0 	b.eq	514f8 <cm_setup_context+0x80>  // b.none
   514e8:	51000800 	sub	w0, w0, #0x2
   514ec:	7100041f 	cmp	w0, #0x1
   514f0:	54000068 	b.hi	514fc <cm_setup_context+0x84>  // b.pmore
   514f4:	34000055 	cbz	w21, 514fc <cm_setup_context+0x84>
   514f8:	b2660273 	orr	x19, x19, #0x4000000
   514fc:	2a1503e0 	mov	w0, w21
   51500:	97fffb2f 	bl	501bc <get_scr_el3_from_routing_model>
   51504:	b9401281 	ldr	w1, [x20, #16]
   51508:	aa000273 	orr	x19, x19, x0
   5150c:	d3441023 	ubfx	x3, x1, #4, #1
   51510:	37200241 	tbnz	w1, #4, 51558 <cm_setup_context+0xe0>
   51514:	d3420c20 	ubfx	x0, x1, #2, #2
   51518:	7100081f 	cmp	w0, #0x2
   5151c:	540003a1 	b.ne	51590 <cm_setup_context+0x118>  // b.any
   51520:	d5380702 	mrs	x2, id_aa64mmfr0_el1
   51524:	d2802000 	mov	x0, #0x100                 	// #256
   51528:	d378ec42 	ubfx	x2, x2, #56, #4
   5152c:	b2780264 	orr	x4, x19, #0x100
   51530:	f100045f 	cmp	x2, #0x1
   51534:	f2a10000 	movk	x0, #0x800, lsl #16
   51538:	aa000273 	orr	x19, x19, x0
   5153c:	9a840273 	csel	x19, x19, x4, eq  // eq = none
   51540:	d5380700 	mrs	x0, id_aa64mmfr0_el1
   51544:	d37cfc00 	lsr	x0, x0, #60
   51548:	f100081f 	cmp	x0, #0x2
   5154c:	540000c1 	b.ne	51564 <cm_setup_context+0xec>  // b.any
   51550:	b2640273 	orr	x19, x19, #0x10000000
   51554:	14000004 	b	51564 <cm_setup_context+0xec>
   51558:	12000c20 	and	w0, w1, #0xf
   5155c:	7100281f 	cmp	w0, #0xa
   51560:	54fffe00 	b.eq	51520 <cm_setup_context+0xa8>  // b.none
   51564:	35000175 	cbnz	w21, 51590 <cm_setup_context+0x118>
   51568:	d3420c21 	ubfx	x1, x1, #2, #2
   5156c:	7100083f 	cmp	w1, #0x2
   51570:	54000101 	b.ne	51590 <cm_setup_context+0x118>  // b.any
   51574:	b26e0273 	orr	x19, x19, #0x40000
   51578:	340000c3 	cbz	w3, 51590 <cm_setup_context+0x118>
   5157c:	f0000060 	adrp	x0, 60000 <version_string+0x6c>
   51580:	91018400 	add	x0, x0, #0x61
   51584:	94002e43 	bl	5ce90 <tf_log>
   51588:	94002ea9 	bl	5d02c <console_flush>
   5158c:	940032bb 	bl	5e078 <do_panic>
   51590:	d5380400 	mrs	x0, id_aa64pfr0_el1
   51594:	d36cfc00 	lsr	x0, x0, #44
   51598:	f27f081f 	tst	x0, #0xe
   5159c:	540000a0 	b.eq	515b0 <cm_setup_context+0x138>  // b.none
   515a0:	d5380400 	mrs	x0, id_aa64pfr0_el1
   515a4:	f2780c1f 	tst	x0, #0xf00
   515a8:	54000040 	b.eq	515b0 <cm_setup_context+0x138>  // b.none
   515ac:	b25d0273 	orr	x19, x19, #0x800000000
   515b0:	b9400681 	ldr	w1, [x20, #4]
   515b4:	d2810015 	mov	x21, #0x800                 	// #2048
   515b8:	d2810700 	mov	x0, #0x838                 	// #2104
   515bc:	7100007f 	cmp	w3, #0x0
   515c0:	f2a018a0 	movk	x0, #0xc5, lsl #16
   515c4:	f2a61a15 	movk	x21, #0x30d0, lsl #16
   515c8:	d3689c21 	lsl	x1, x1, #24
   515cc:	92670021 	and	x1, x1, #0x2000000
   515d0:	aa150035 	orr	x21, x1, x21
   515d4:	aa000021 	orr	x1, x1, x0
   515d8:	9a951035 	csel	x21, x1, x21, ne  // ne = any
   515dc:	d5380720 	mrs	x0, id_aa64mmfr1_el1
   515e0:	d3608c00 	ubfx	x0, x0, #32, #4
   515e4:	f100041f 	cmp	x0, #0x1
   515e8:	540000c1 	b.ne	51600 <cm_setup_context+0x188>  // b.any
   515ec:	94002ed6 	bl	5d144 <plat_arm_set_twedel_scr_el3>
   515f0:	3100041f 	cmn	w0, #0x1
   515f4:	54000060 	b.eq	51600 <cm_setup_context+0x188>  // b.none
   515f8:	b3620c13 	bfi	x19, x0, #30, #4
   515fc:	b2630273 	orr	x19, x19, #0x20000000
   51600:	f900aad5 	str	x21, [x22, #336]
   51604:	d5381020 	mrs	x0, actlr_el1
   51608:	f9400681 	ldr	x1, [x20, #8]
   5160c:	f90092c1 	str	x1, [x22, #288]
   51610:	b9401281 	ldr	w1, [x20, #16]
   51614:	d2800802 	mov	x2, #0x40                  	// #64
   51618:	f90082d3 	str	x19, [x22, #256]
   5161c:	f9008ec1 	str	x1, [x22, #280]
   51620:	91006281 	add	x1, x20, #0x18
   51624:	f900d2c0 	str	x0, [x22, #416]
   51628:	aa1603e0 	mov	x0, x22
   5162c:	a94153f3 	ldp	x19, x20, [sp, #16]
   51630:	a9425bf5 	ldp	x21, x22, [sp, #32]
   51634:	a8c37bfd 	ldp	x29, x30, [sp], #48
   51638:	1400377a 	b	5f420 <memcpy>

000000000005163c <cm_init_context_by_index>:
   5163c:	a9be7bfd 	stp	x29, x30, [sp, #-32]!
   51640:	910003fd 	mov	x29, sp
   51644:	f9000bf3 	str	x19, [sp, #16]
   51648:	aa0103f3 	mov	x19, x1
   5164c:	b9400421 	ldr	w1, [x1, #4]
   51650:	12000021 	and	w1, w1, #0x1
   51654:	97fffa8e 	bl	5008c <cm_get_context_by_index>
   51658:	aa1303e1 	mov	x1, x19
   5165c:	f9400bf3 	ldr	x19, [sp, #16]
   51660:	a8c27bfd 	ldp	x29, x30, [sp], #32
   51664:	17ffff85 	b	51478 <cm_setup_context>

0000000000051668 <cm_init_my_context>:
   51668:	a9be7bfd 	stp	x29, x30, [sp, #-32]!
   5166c:	910003fd 	mov	x29, sp
   51670:	f9000bf3 	str	x19, [sp, #16]
   51674:	aa0003f3 	mov	x19, x0
   51678:	b9400400 	ldr	w0, [x0, #4]
   5167c:	12000000 	and	w0, w0, #0x1
   51680:	97fffa80 	bl	50080 <cm_get_context>
   51684:	aa1303e1 	mov	x1, x19
   51688:	f9400bf3 	ldr	x19, [sp, #16]
   5168c:	a8c27bfd 	ldp	x29, x30, [sp], #32
   51690:	17ffff7a 	b	51478 <cm_setup_context>

0000000000051694 <cm_el1_sysregs_context_restore>:
   51694:	a9be7bfd 	stp	x29, x30, [sp, #-32]!
   51698:	910003fd 	mov	x29, sp
   5169c:	a90153f3 	stp	x19, x20, [sp, #16]
   516a0:	2a0003f3 	mov	w19, w0
   516a4:	97fffa77 	bl	50080 <cm_get_context>
   516a8:	91050000 	add	x0, x0, #0x140
   516ac:	9400319e 	bl	5dd24 <el1_sysregs_context_restore>
   516b0:	34000273 	cbz	w19, 516fc <cm_el1_sysregs_context_restore+0x68>
   516b4:	f0000073 	adrp	x19, 60000 <version_string+0x6c>
   516b8:	f0000074 	adrp	x20, 60000 <version_string+0x6c>
   516bc:	9112e273 	add	x19, x19, #0x4b8
   516c0:	9112e294 	add	x20, x20, #0x4b8
   516c4:	eb14027f 	cmp	x19, x20
   516c8:	54000142 	b.cs	516f0 <cm_el1_sysregs_context_restore+0x5c>  // b.hs, b.nlast
   516cc:	f8408661 	ldr	x1, [x19], #8
   516d0:	d2800000 	mov	x0, #0x0                   	// #0
   516d4:	d63f0020 	blr	x1
   516d8:	17fffffb 	b	516c4 <cm_el1_sysregs_context_restore+0x30>
   516dc:	f8408661 	ldr	x1, [x19], #8
   516e0:	d2800000 	mov	x0, #0x0                   	// #0
   516e4:	d63f0020 	blr	x1
   516e8:	eb14027f 	cmp	x19, x20
   516ec:	54ffff83 	b.cc	516dc <cm_el1_sysregs_context_restore+0x48>  // b.lo, b.ul, b.last
   516f0:	a94153f3 	ldp	x19, x20, [sp, #16]
   516f4:	a8c27bfd 	ldp	x29, x30, [sp], #32
   516f8:	d65f03c0 	ret
   516fc:	f0000073 	adrp	x19, 60000 <version_string+0x6c>
   51700:	f0000074 	adrp	x20, 60000 <version_string+0x6c>
   51704:	9112c273 	add	x19, x19, #0x4b0
   51708:	9112e294 	add	x20, x20, #0x4b8
   5170c:	17fffff7 	b	516e8 <cm_el1_sysregs_context_restore+0x54>

0000000000051710 <cm_set_next_eret_context>:
   51710:	a9bf7bfd 	stp	x29, x30, [sp, #-16]!
   51714:	910003fd 	mov	x29, sp
   51718:	97fffa5a 	bl	50080 <cm_get_context>
   5171c:	d50041bf 	msr	spsel, #0x1
   51720:	9100001f 	mov	sp, x0
   51724:	d50040bf 	msr	spsel, #0x0
   51728:	a8c17bfd 	ldp	x29, x30, [sp], #16
   5172c:	d65f03c0 	ret

0000000000051730 <cm_prepare_el3_exit>:
   51730:	a9be7bfd 	stp	x29, x30, [sp, #-32]!
   51734:	910003fd 	mov	x29, sp
   51738:	f9000bf3 	str	x19, [sp, #16]
   5173c:	2a0003f3 	mov	w19, w0
   51740:	97fffa50 	bl	50080 <cm_get_context>
   51744:	7100067f 	cmp	w19, #0x1
   51748:	540004e1 	b.ne	517e4 <cm_prepare_el3_exit+0xb4>  // b.any
   5174c:	f9408001 	ldr	x1, [x0, #256]
   51750:	92780022 	and	x2, x1, #0x100
   51754:	36400121 	tbz	w1, #8, 51778 <cm_prepare_el3_exit+0x48>
   51758:	f940a800 	ldr	x0, [x0, #336]
   5175c:	d2810601 	mov	x1, #0x830                 	// #2096
   51760:	f2a618a1 	movk	x1, #0x30c5, lsl #16
   51764:	92670000 	and	x0, x0, #0x2000000
   51768:	aa010000 	orr	x0, x0, x1
   5176c:	d51c1000 	msr	sctlr_el2, x0
   51770:	52800000 	mov	w0, #0x0                   	// #0
   51774:	1400001b 	b	517e0 <cm_prepare_el3_exit+0xb0>
   51778:	d5380400 	mrs	x0, id_aa64pfr0_el1
   5177c:	f2780c1f 	tst	x0, #0xf00
   51780:	54ffff80 	b.eq	51770 <cm_prepare_el3_exit+0x40>  // b.none
   51784:	f2760021 	ands	x1, x1, #0x400
   51788:	d2b00000 	mov	x0, #0x80000000            	// #2147483648
   5178c:	9a800021 	csel	x1, x1, x0, eq  // eq = none
   51790:	b2580421 	orr	x1, x1, #0x30000000000
   51794:	d51c1101 	msr	hcr_el2, x1
   51798:	d2867fe0 	mov	x0, #0x33ff                	// #13311
   5179c:	d51c1140 	msr	cptr_el2, x0
   517a0:	d2800060 	mov	x0, #0x3                   	// #3
   517a4:	d51ce100 	msr	cnthctl_el2, x0
   517a8:	d51ce062 	msr	cntvoff_el2, x2
   517ac:	d5380000 	mrs	x0, midr_el1
   517b0:	d51c0000 	msr	vpidr_el2, x0
   517b4:	d53800a0 	mrs	x0, mpidr_el1
   517b8:	d51c00a0 	msr	vmpidr_el2, x0
   517bc:	d51c2102 	msr	vttbr_el2, x2
   517c0:	d53b9c00 	mrs	x0, pmcr_el0
   517c4:	d34b3c00 	ubfx	x0, x0, #11, #5
   517c8:	d2a08041 	mov	x1, #0x4020000             	// #67239936
   517cc:	aa010000 	orr	x0, x0, x1
   517d0:	d51c1120 	msr	mdcr_el2, x0
   517d4:	d51c1162 	msr	hstr_el2, x2
   517d8:	d51ce222 	msr	cnthp_ctl_el2, x2
   517dc:	2a1303e0 	mov	w0, w19
   517e0:	94000017 	bl	5183c <spe_enable>
   517e4:	2a1303e0 	mov	w0, w19
   517e8:	97ffffab 	bl	51694 <cm_el1_sysregs_context_restore>
   517ec:	2a1303e0 	mov	w0, w19
   517f0:	f9400bf3 	ldr	x19, [sp, #16]
   517f4:	a8c27bfd 	ldp	x29, x30, [sp], #32
   517f8:	17ffffc6 	b	51710 <cm_set_next_eret_context>

00000000000517fc <spe_supported>:
   517fc:	d5380500 	mrs	x0, id_aa64dfr0_el1
   51800:	f2600c1f 	tst	x0, #0xf00000000
   51804:	1a9f07e0 	cset	w0, ne  // ne = any
   51808:	d65f03c0 	ret

000000000005180c <spe_drain_buffers_hook>:
   5180c:	a9bf7bfd 	stp	x29, x30, [sp, #-16]!
   51810:	910003fd 	mov	x29, sp
   51814:	97fffffa 	bl	517fc <spe_supported>
   51818:	72001c1f 	tst	w0, #0xff
   5181c:	540000c0 	b.eq	51834 <spe_drain_buffers_hook+0x28>  // b.none
   51820:	d503223f 	psb	csync
   51824:	d503379f 	dsb	nsh
   51828:	d2800000 	mov	x0, #0x0                   	// #0
   5182c:	a8c17bfd 	ldp	x29, x30, [sp], #16
   51830:	d65f03c0 	ret
   51834:	92800000 	mov	x0, #0xffffffffffffffff    	// #-1
   51838:	17fffffd 	b	5182c <spe_drain_buffers_hook+0x20>

000000000005183c <spe_enable>:
   5183c:	12001c01 	and	w1, w0, #0xff
   51840:	a9bf7bfd 	stp	x29, x30, [sp, #-16]!
   51844:	910003fd 	mov	x29, sp
   51848:	97ffffed 	bl	517fc <spe_supported>
   5184c:	72001c1f 	tst	w0, #0xff
   51850:	54000140 	b.eq	51878 <spe_enable+0x3c>  // b.none
   51854:	340000c1 	cbz	w1, 5186c <spe_enable+0x30>
   51858:	d53c1120 	mrs	x0, mdcr_el2
   5185c:	92407c00 	and	x0, x0, #0xffffffff
   51860:	9271f800 	and	x0, x0, #0xffffffffffffbfff
   51864:	b2740400 	orr	x0, x0, #0x3000
   51868:	d51c1120 	msr	mdcr_el2, x0
   5186c:	d53e1320 	mrs	x0, mdcr_el3
   51870:	b2740400 	orr	x0, x0, #0x3000
   51874:	d51e1320 	msr	mdcr_el3, x0
   51878:	a8c17bfd 	ldp	x29, x30, [sp], #16
   5187c:	d65f03c0 	ret

0000000000051880 <bakery_lock_get>:
   51880:	a9be7bfd 	stp	x29, x30, [sp, #-32]!
   51884:	910003fd 	mov	x29, sp
   51888:	f9000bf3 	str	x19, [sp, #16]
   5188c:	aa0003f3 	mov	x19, x0
   51890:	940031de 	bl	5e008 <plat_my_core_pos>
   51894:	d37f7c04 	ubfiz	x4, x0, #1, #32
   51898:	52800021 	mov	w1, #0x1                   	// #1
   5189c:	52800002 	mov	w2, #0x0                   	// #0
   518a0:	78246a61 	strh	w1, [x19, x4]
   518a4:	52800001 	mov	w1, #0x0                   	// #0
   518a8:	2a0203e3 	mov	w3, w2
   518ac:	11000442 	add	w2, w2, #0x1
   518b0:	78637a63 	ldrh	w3, [x19, x3, lsl #1]
   518b4:	d3413c63 	ubfx	x3, x3, #1, #15
   518b8:	6b03003f 	cmp	w1, w3
   518bc:	1a832021 	csel	w1, w1, w3, cs  // cs = hs, nlast
   518c0:	7100185f 	cmp	w2, #0x6
   518c4:	54ffff21 	b.ne	518a8 <bakery_lock_get+0x28>  // b.any
   518c8:	11000421 	add	w1, w1, #0x1
   518cc:	531f3822 	ubfiz	w2, w1, #1, #15
   518d0:	2a012001 	orr	w1, w0, w1, lsl #8
   518d4:	78246a62 	strh	w2, [x19, x4]
   518d8:	52800002 	mov	w2, #0x0                   	// #0
   518dc:	6b02001f 	cmp	w0, w2
   518e0:	54000220 	b.eq	51924 <bakery_lock_get+0xa4>  // b.none
   518e4:	d37f7c45 	ubfiz	x5, x2, #1, #32
   518e8:	78656a64 	ldrh	w4, [x19, x5]
   518ec:	8b050266 	add	x6, x19, x5
   518f0:	12003c83 	and	w3, w4, #0xffff
   518f4:	3707ffa4 	tbnz	w4, #0, 518e8 <bakery_lock_get+0x68>
   518f8:	53017c64 	lsr	w4, w3, #1
   518fc:	6b4307ff 	cmp	wzr, w3, lsr #1
   51900:	54000120 	b.eq	51924 <bakery_lock_get+0xa4>  // b.none
   51904:	2a042043 	orr	w3, w2, w4, lsl #8
   51908:	6b03003f 	cmp	w1, w3
   5190c:	540000c9 	b.ls	51924 <bakery_lock_get+0xa4>  // b.plast
   51910:	d503205f 	wfe
   51914:	794000c3 	ldrh	w3, [x6]
   51918:	d3413c63 	ubfx	x3, x3, #1, #15
   5191c:	6b03009f 	cmp	w4, w3
   51920:	54ffff80 	b.eq	51910 <bakery_lock_get+0x90>  // b.none
   51924:	11000442 	add	w2, w2, #0x1
   51928:	7100185f 	cmp	w2, #0x6
   5192c:	54fffd81 	b.ne	518dc <bakery_lock_get+0x5c>  // b.any
   51930:	d5033bbf 	dmb	ish
   51934:	f9400bf3 	ldr	x19, [sp, #16]
   51938:	a8c27bfd 	ldp	x29, x30, [sp], #32
   5193c:	d65f03c0 	ret

0000000000051940 <bakery_lock_release>:
   51940:	a9be7bfd 	stp	x29, x30, [sp, #-32]!
   51944:	910003fd 	mov	x29, sp
   51948:	f9000bf3 	str	x19, [sp, #16]
   5194c:	aa0003f3 	mov	x19, x0
   51950:	940031ae 	bl	5e008 <plat_my_core_pos>
   51954:	d5033bbf 	dmb	ish
   51958:	2a0003e1 	mov	w1, w0
   5195c:	78217a7f 	strh	wzr, [x19, x1, lsl #1]
   51960:	d5033f9f 	dsb	sy
   51964:	d503209f 	sev
   51968:	f9400bf3 	ldr	x19, [sp, #16]
   5196c:	a8c27bfd 	ldp	x29, x30, [sp], #32
   51970:	d65f03c0 	ret

0000000000051974 <psci_validate_power_state>:
   51974:	52bf9fc2 	mov	w2, #0xfcfe0000            	// #-50462720
   51978:	6a02001f 	tst	w0, w2
   5197c:	540000c1 	b.ne	51994 <psci_validate_power_state+0x20>  // b.any
   51980:	b00000a2 	adrp	x2, 66000 <psci_cpu_pd_nodes+0x20>
   51984:	f9402042 	ldr	x2, [x2, #64]
   51988:	f9402c42 	ldr	x2, [x2, #88]
   5198c:	aa0203f0 	mov	x16, x2
   51990:	d61f0200 	br	x16
   51994:	12800020 	mov	w0, #0xfffffffe            	// #-2
   51998:	d65f03c0 	ret

000000000005199c <psci_query_sys_suspend_pwrstate>:
   5199c:	b00000a1 	adrp	x1, 66000 <psci_cpu_pd_nodes+0x20>
   519a0:	f9402021 	ldr	x1, [x1, #64]
   519a4:	f9403421 	ldr	x1, [x1, #104]
   519a8:	aa0103f0 	mov	x16, x1
   519ac:	d61f0200 	br	x16

00000000000519b0 <psci_is_last_on_cpu>:
   519b0:	a9bd7bfd 	stp	x29, x30, [sp, #-48]!
   519b4:	910003fd 	mov	x29, sp
   519b8:	a90153f3 	stp	x19, x20, [sp, #16]
   519bc:	f00000b4 	adrp	x20, 68000 <dist_ctx+0x1e98>
   519c0:	91314294 	add	x20, x20, #0xc50
   519c4:	f90013f5 	str	x21, [sp, #32]
   519c8:	94003190 	bl	5e008 <plat_my_core_pos>
   519cc:	2a0003f5 	mov	w21, w0
   519d0:	52800013 	mov	w19, #0x0                   	// #0
   519d4:	b9400280 	ldr	w0, [x20]
   519d8:	6b13001f 	cmp	w0, w19
   519dc:	540000c8 	b.hi	519f4 <psci_is_last_on_cpu+0x44>  // b.pmore
   519e0:	52800020 	mov	w0, #0x1                   	// #1
   519e4:	a94153f3 	ldp	x19, x20, [sp, #16]
   519e8:	f94013f5 	ldr	x21, [sp, #32]
   519ec:	a8c37bfd 	ldp	x29, x30, [sp], #48
   519f0:	d65f03c0 	ret
   519f4:	6b15027f 	cmp	w19, w21
   519f8:	54000061 	b.ne	51a04 <psci_is_last_on_cpu+0x54>  // b.any
   519fc:	11000673 	add	w19, w19, #0x1
   51a00:	17fffff5 	b	519d4 <psci_is_last_on_cpu+0x24>
   51a04:	2a1303e0 	mov	w0, w19
   51a08:	9400313d 	bl	5defc <_cpu_data_by_index>
   51a0c:	b9401800 	ldr	w0, [x0, #24]
   51a10:	7100041f 	cmp	w0, #0x1
   51a14:	54ffff40 	b.eq	519fc <psci_is_last_on_cpu+0x4c>  // b.none
   51a18:	52800000 	mov	w0, #0x0                   	// #0
   51a1c:	17fffff2 	b	519e4 <psci_is_last_on_cpu+0x34>

0000000000051a20 <psci_init_req_local_pwr_states>:
   51a20:	f00000a0 	adrp	x0, 68000 <dist_ctx+0x1e98>
   51a24:	900000c1 	adrp	x1, 69000 <pmu_slpdata+0x40>
   51a28:	912f8021 	add	x1, x1, #0xbe0
   51a2c:	52800043 	mov	w3, #0x2                   	// #2
   51a30:	b94c5002 	ldr	w2, [x0, #3152]
   51a34:	d2800000 	mov	x0, #0x0                   	// #0
   51a38:	6b00005f 	cmp	w2, w0
   51a3c:	54000089 	b.ls	51a4c <psci_init_req_local_pwr_states+0x2c>  // b.plast
   51a40:	38216803 	strb	w3, [x0, x1]
   51a44:	91000400 	add	x0, x0, #0x1
   51a48:	17fffffc 	b	51a38 <psci_init_req_local_pwr_states+0x18>
   51a4c:	900000c1 	adrp	x1, 69000 <pmu_slpdata+0x40>
   51a50:	912f8021 	add	x1, x1, #0xbe0
   51a54:	d2800000 	mov	x0, #0x0                   	// #0
   51a58:	52800044 	mov	w4, #0x2                   	// #2
   51a5c:	6b00005f 	cmp	w2, w0
   51a60:	540000a9 	b.ls	51a74 <psci_init_req_local_pwr_states+0x54>  // b.plast
   51a64:	8b000023 	add	x3, x1, x0
   51a68:	91000400 	add	x0, x0, #0x1
   51a6c:	39001864 	strb	w4, [x3, #6]
   51a70:	17fffffb 	b	51a5c <psci_init_req_local_pwr_states+0x3c>
   51a74:	d65f03c0 	ret

0000000000051a78 <psci_get_target_local_pwr_states>:
   51a78:	a9be7bfd 	stp	x29, x30, [sp, #-32]!
   51a7c:	910003fd 	mov	x29, sp
   51a80:	a90153f3 	stp	x19, x20, [sp, #16]
   51a84:	2a0003f4 	mov	w20, w0
   51a88:	aa0103f3 	mov	x19, x1
   51a8c:	d53ed040 	mrs	x0, tpidr_el3
   51a90:	39408000 	ldrb	w0, [x0, #32]
   51a94:	39000020 	strb	w0, [x1]
   51a98:	9400315c 	bl	5e008 <plat_my_core_pos>
   51a9c:	d37c7c00 	ubfiz	x0, x0, #4, #32
   51aa0:	900000a1 	adrp	x1, 65000 <__STACKS_START__+0x2f80>
   51aa4:	913f8021 	add	x1, x1, #0xfe0
   51aa8:	8b000021 	add	x1, x1, x0
   51aac:	90000280 	adrp	x0, a1000 <psci_locks>
   51ab0:	91015000 	add	x0, x0, #0x54
   51ab4:	52800022 	mov	w2, #0x1                   	// #1
   51ab8:	b9400823 	ldr	w3, [x1, #8]
   51abc:	6b14005f 	cmp	w2, w20
   51ac0:	2a0203e1 	mov	w1, w2
   51ac4:	540000e9 	b.ls	51ae0 <psci_get_target_local_pwr_states+0x68>  // b.plast
   51ac8:	8b010273 	add	x19, x19, x1
   51acc:	7100085f 	cmp	w2, #0x2
   51ad0:	54000169 	b.ls	51afc <psci_get_target_local_pwr_states+0x84>  // b.plast
   51ad4:	a94153f3 	ldp	x19, x20, [sp, #16]
   51ad8:	a8c27bfd 	ldp	x29, x30, [sp], #32
   51adc:	d65f03c0 	ret
   51ae0:	d37c7c63 	ubfiz	x3, x3, #4, #32
   51ae4:	11000442 	add	w2, w2, #0x1
   51ae8:	8b030003 	add	x3, x0, x3
   51aec:	39403064 	ldrb	w4, [x3, #12]
   51af0:	38216a64 	strb	w4, [x19, x1]
   51af4:	b9400863 	ldr	w3, [x3, #8]
   51af8:	17fffff1 	b	51abc <psci_get_target_local_pwr_states+0x44>
   51afc:	11000442 	add	w2, w2, #0x1
   51b00:	3800167f 	strb	wzr, [x19], #1
   51b04:	17fffff2 	b	51acc <psci_get_target_local_pwr_states+0x54>

0000000000051b08 <psci_get_parent_pwr_domain_nodes>:
   51b08:	d37c7c03 	ubfiz	x3, x0, #4, #32
   51b0c:	900000a0 	adrp	x0, 65000 <__STACKS_START__+0x2f80>
   51b10:	913f8000 	add	x0, x0, #0xfe0
   51b14:	90000284 	adrp	x4, a1000 <psci_locks>
   51b18:	8b030000 	add	x0, x0, x3
   51b1c:	d1001042 	sub	x2, x2, #0x4
   51b20:	91015084 	add	x4, x4, #0x54
   51b24:	d2800003 	mov	x3, #0x0                   	// #0
   51b28:	b9400800 	ldr	w0, [x0, #8]
   51b2c:	91000463 	add	x3, x3, #0x1
   51b30:	6b03003f 	cmp	w1, w3
   51b34:	54000042 	b.cs	51b3c <psci_get_parent_pwr_domain_nodes+0x34>  // b.hs, b.nlast
   51b38:	d65f03c0 	ret
   51b3c:	b8237840 	str	w0, [x2, x3, lsl #2]
   51b40:	d37c7c00 	ubfiz	x0, x0, #4, #32
   51b44:	8b000080 	add	x0, x4, x0
   51b48:	b9400800 	ldr	w0, [x0, #8]
   51b4c:	17fffff8 	b	51b2c <psci_get_parent_pwr_domain_nodes+0x24>

0000000000051b50 <psci_set_pwr_domains_to_run>:
   51b50:	a9be7bfd 	stp	x29, x30, [sp, #-32]!
   51b54:	910003fd 	mov	x29, sp
   51b58:	f9000bf3 	str	x19, [sp, #16]
   51b5c:	2a0003f3 	mov	w19, w0
   51b60:	9400312a 	bl	5e008 <plat_my_core_pos>
   51b64:	d37c7c02 	ubfiz	x2, x0, #4, #32
   51b68:	900000a1 	adrp	x1, 65000 <__STACKS_START__+0x2f80>
   51b6c:	913f8021 	add	x1, x1, #0xfe0
   51b70:	8b020021 	add	x1, x1, x2
   51b74:	90000283 	adrp	x3, a1000 <psci_locks>
   51b78:	900000c4 	adrp	x4, 69000 <pmu_slpdata+0x40>
   51b7c:	2a0003e8 	mov	w8, w0
   51b80:	91015063 	add	x3, x3, #0x54
   51b84:	912f8084 	add	x4, x4, #0xbe0
   51b88:	b9400822 	ldr	w2, [x1, #8]
   51b8c:	f00000a1 	adrp	x1, 68000 <dist_ctx+0x1e98>
   51b90:	d28000c9 	mov	x9, #0x6                   	// #6
   51b94:	b94c5027 	ldr	w7, [x1, #3152]
   51b98:	d2800001 	mov	x1, #0x0                   	// #0
   51b9c:	11000426 	add	w6, w1, #0x1
   51ba0:	6b06027f 	cmp	w19, w6
   51ba4:	54000162 	b.cs	51bd0 <psci_set_pwr_domains_to_run+0x80>  // b.hs, b.nlast
   51ba8:	d53ed040 	mrs	x0, tpidr_el3
   51bac:	b900181f 	str	wzr, [x0, #24]
   51bb0:	d53ed040 	mrs	x0, tpidr_el3
   51bb4:	3900801f 	strb	wzr, [x0, #32]
   51bb8:	d53ed040 	mrs	x0, tpidr_el3
   51bbc:	f9400bf3 	ldr	x19, [sp, #16]
   51bc0:	91006000 	add	x0, x0, #0x18
   51bc4:	a8c27bfd 	ldp	x29, x30, [sp], #32
   51bc8:	d2800181 	mov	x1, #0xc                   	// #12
   51bcc:	14003137 	b	5e0a8 <flush_dcache_range>
   51bd0:	2a0203e5 	mov	w5, w2
   51bd4:	d37c7c42 	ubfiz	x2, x2, #4, #32
   51bd8:	8b020062 	add	x2, x3, x2
   51bdc:	7100043f 	cmp	w1, #0x1
   51be0:	3900305f 	strb	wzr, [x2, #12]
   51be4:	540000a8 	b.hi	51bf8 <psci_set_pwr_domains_to_run+0xa8>  // b.pmore
   51be8:	6b07001f 	cmp	w0, w7
   51bec:	54000062 	b.cs	51bf8 <psci_set_pwr_domains_to_run+0xa8>  // b.hs, b.nlast
   51bf0:	9b091021 	madd	x1, x1, x9, x4
   51bf4:	3828683f 	strb	wzr, [x1, x8]
   51bf8:	8b051061 	add	x1, x3, x5, lsl #4
   51bfc:	b9400822 	ldr	w2, [x1, #8]
   51c00:	2a0603e1 	mov	w1, w6
   51c04:	17ffffe6 	b	51b9c <psci_set_pwr_domains_to_run+0x4c>

0000000000051c08 <psci_do_state_coordination>:
   51c08:	a9ba7bfd 	stp	x29, x30, [sp, #-96]!
   51c0c:	910003fd 	mov	x29, sp
   51c10:	a90153f3 	stp	x19, x20, [sp, #16]
   51c14:	aa0103f3 	mov	x19, x1
   51c18:	a9025bf5 	stp	x21, x22, [sp, #32]
   51c1c:	900000b6 	adrp	x22, 65000 <__STACKS_START__+0x2f80>
   51c20:	913f82d6 	add	x22, x22, #0xfe0
   51c24:	a90363f7 	stp	x23, x24, [sp, #48]
   51c28:	2a0003f7 	mov	w23, w0
   51c2c:	a9046bf9 	stp	x25, x26, [sp, #64]
   51c30:	90000299 	adrp	x25, a1000 <psci_locks>
   51c34:	91015339 	add	x25, x25, #0x54
   51c38:	a90573fb 	stp	x27, x28, [sp, #80]
   51c3c:	940030f3 	bl	5e008 <plat_my_core_pos>
   51c40:	2a0003fa 	mov	w26, w0
   51c44:	f00000bb 	adrp	x27, 68000 <dist_ctx+0x1e98>
   51c48:	aa1a03f8 	mov	x24, x26
   51c4c:	d37c7f40 	ubfiz	x0, x26, #4, #32
   51c50:	9131437b 	add	x27, x27, #0xc50
   51c54:	8b0002c0 	add	x0, x22, x0
   51c58:	b9400815 	ldr	w21, [x0, #8]
   51c5c:	52800020 	mov	w0, #0x1                   	// #1
   51c60:	6b17001f 	cmp	w0, w23
   51c64:	11000414 	add	w20, w0, #0x1
   51c68:	54000468 	b.hi	51cf4 <psci_do_state_coordination+0xec>  // b.pmore
   51c6c:	51000401 	sub	w1, w0, #0x1
   51c70:	2a0003fc 	mov	w28, w0
   51c74:	7100043f 	cmp	w1, #0x1
   51c78:	2a1503f5 	mov	w21, w21
   51c7c:	540007c8 	b.hi	51d74 <psci_do_state_coordination+0x16c>  // b.pmore
   51c80:	b9400362 	ldr	w2, [x27]
   51c84:	6b02031f 	cmp	w24, w2
   51c88:	54000102 	b.cs	51ca8 <psci_do_state_coordination+0xa0>  // b.hs, b.nlast
   51c8c:	2a0103e2 	mov	w2, w1
   51c90:	900000c3 	adrp	x3, 69000 <pmu_slpdata+0x40>
   51c94:	912f8063 	add	x3, x3, #0xbe0
   51c98:	d28000c5 	mov	x5, #0x6                   	// #6
   51c9c:	387c6a64 	ldrb	w4, [x19, x28]
   51ca0:	9b050c42 	madd	x2, x2, x5, x3
   51ca4:	383a6844 	strb	w4, [x2, x26]
   51ca8:	7100043f 	cmp	w1, #0x1
   51cac:	54000648 	b.hi	51d74 <psci_do_state_coordination+0x16c>  // b.pmore
   51cb0:	d37ceea2 	lsl	x2, x21, #4
   51cb4:	528000c5 	mov	w5, #0x6                   	// #6
   51cb8:	b9400364 	ldr	w4, [x27]
   51cbc:	b8626b23 	ldr	w3, [x25, x2]
   51cc0:	2a0303e2 	mov	w2, w3
   51cc4:	6b04007f 	cmp	w3, w4
   51cc8:	9ba50822 	umaddl	x2, w1, w5, x2
   51ccc:	900000c1 	adrp	x1, 69000 <pmu_slpdata+0x40>
   51cd0:	912f8021 	add	x1, x1, #0xbe0
   51cd4:	8b020021 	add	x1, x1, x2
   51cd8:	9a9f3021 	csel	x1, x1, xzr, cc  // cc = lo, ul, last
   51cdc:	8b151335 	add	x21, x25, x21, lsl #4
   51ce0:	b94006a2 	ldr	w2, [x21, #4]
   51ce4:	94002e8e 	bl	5d71c <plat_get_target_pwr_state>
   51ce8:	383c6a60 	strb	w0, [x19, x28]
   51cec:	72001c1f 	tst	w0, #0xff
   51cf0:	54000461 	b.ne	51d7c <psci_do_state_coordination+0x174>  // b.any
   51cf4:	f00000a0 	adrp	x0, 68000 <dist_ctx+0x1e98>
   51cf8:	900000c2 	adrp	x2, 69000 <pmu_slpdata+0x40>
   51cfc:	2a1403e1 	mov	w1, w20
   51d00:	912f8042 	add	x2, x2, #0xbe0
   51d04:	b94c5004 	ldr	w4, [x0, #3152]
   51d08:	d28000c5 	mov	x5, #0x6                   	// #6
   51d0c:	6b17003f 	cmp	w1, w23
   51d10:	540003c9 	b.ls	51d88 <psci_do_state_coordination+0x180>  // b.plast
   51d14:	39400261 	ldrb	w1, [x19]
   51d18:	d53ed040 	mrs	x0, tpidr_el3
   51d1c:	39008001 	strb	w1, [x0, #32]
   51d20:	d53ed040 	mrs	x0, tpidr_el3
   51d24:	91008000 	add	x0, x0, #0x20
   51d28:	d2800021 	mov	x1, #0x1                   	// #1
   51d2c:	940030df 	bl	5e0a8 <flush_dcache_range>
   51d30:	940030b6 	bl	5e008 <plat_my_core_pos>
   51d34:	d37c7c00 	ubfiz	x0, x0, #4, #32
   51d38:	8b0002d6 	add	x22, x22, x0
   51d3c:	90000282 	adrp	x2, a1000 <psci_locks>
   51d40:	91015042 	add	x2, x2, #0x54
   51d44:	d2800001 	mov	x1, #0x0                   	// #0
   51d48:	b9400ac0 	ldr	w0, [x22, #8]
   51d4c:	91000421 	add	x1, x1, #0x1
   51d50:	6b0102ff 	cmp	w23, w1
   51d54:	54000322 	b.cs	51db8 <psci_do_state_coordination+0x1b0>  // b.hs, b.nlast
   51d58:	a94153f3 	ldp	x19, x20, [sp, #16]
   51d5c:	a9425bf5 	ldp	x21, x22, [sp, #32]
   51d60:	a94363f7 	ldp	x23, x24, [sp, #48]
   51d64:	a9446bf9 	ldp	x25, x26, [sp, #64]
   51d68:	a94573fb 	ldp	x27, x28, [sp, #80]
   51d6c:	a8c67bfd 	ldp	x29, x30, [sp], #96
   51d70:	d65f03c0 	ret
   51d74:	d2800001 	mov	x1, #0x0                   	// #0
   51d78:	17ffffd9 	b	51cdc <psci_do_state_coordination+0xd4>
   51d7c:	b9400ab5 	ldr	w21, [x21, #8]
   51d80:	2a1403e0 	mov	w0, w20
   51d84:	17ffffb7 	b	51c60 <psci_do_state_coordination+0x58>
   51d88:	51000420 	sub	w0, w1, #0x1
   51d8c:	2a0103e3 	mov	w3, w1
   51d90:	7100041f 	cmp	w0, #0x1
   51d94:	540000c8 	b.hi	51dac <psci_do_state_coordination+0x1a4>  // b.pmore
   51d98:	6b04031f 	cmp	w24, w4
   51d9c:	54000082 	b.cs	51dac <psci_do_state_coordination+0x1a4>  // b.hs, b.nlast
   51da0:	9b050800 	madd	x0, x0, x5, x2
   51da4:	38636a66 	ldrb	w6, [x19, x3]
   51da8:	383a6806 	strb	w6, [x0, x26]
   51dac:	11000421 	add	w1, w1, #0x1
   51db0:	38236a7f 	strb	wzr, [x19, x3]
   51db4:	17ffffd6 	b	51d0c <psci_do_state_coordination+0x104>
   51db8:	d37c7c00 	ubfiz	x0, x0, #4, #32
   51dbc:	38616a63 	ldrb	w3, [x19, x1]
   51dc0:	8b000040 	add	x0, x2, x0
   51dc4:	39003003 	strb	w3, [x0, #12]
   51dc8:	b9400800 	ldr	w0, [x0, #8]
   51dcc:	17ffffe0 	b	51d4c <psci_do_state_coordination+0x144>

0000000000051dd0 <psci_find_max_off_lvl>:
   51dd0:	aa0003e1 	mov	x1, x0
   51dd4:	39400800 	ldrb	w0, [x0, #2]
   51dd8:	7100081f 	cmp	w0, #0x2
   51ddc:	54000120 	b.eq	51e00 <psci_find_max_off_lvl+0x30>  // b.none
   51de0:	39400420 	ldrb	w0, [x1, #1]
   51de4:	7100081f 	cmp	w0, #0x2
   51de8:	540000e0 	b.eq	51e04 <psci_find_max_off_lvl+0x34>  // b.none
   51dec:	39400021 	ldrb	w1, [x1]
   51df0:	52800060 	mov	w0, #0x3                   	// #3
   51df4:	7100083f 	cmp	w1, #0x2
   51df8:	54000041 	b.ne	51e00 <psci_find_max_off_lvl+0x30>  // b.any
   51dfc:	52800000 	mov	w0, #0x0                   	// #0
   51e00:	d65f03c0 	ret
   51e04:	52800020 	mov	w0, #0x1                   	// #1
   51e08:	17fffffe 	b	51e00 <psci_find_max_off_lvl+0x30>

0000000000051e0c <psci_find_target_suspend_lvl>:
   51e0c:	39400801 	ldrb	w1, [x0, #2]
   51e10:	35000101 	cbnz	w1, 51e30 <psci_find_target_suspend_lvl+0x24>
   51e14:	39400401 	ldrb	w1, [x0, #1]
   51e18:	35000101 	cbnz	w1, 51e38 <psci_find_target_suspend_lvl+0x2c>
   51e1c:	39400001 	ldrb	w1, [x0]
   51e20:	52800060 	mov	w0, #0x3                   	// #3
   51e24:	34000041 	cbz	w1, 51e2c <psci_find_target_suspend_lvl+0x20>
   51e28:	52800000 	mov	w0, #0x0                   	// #0
   51e2c:	d65f03c0 	ret
   51e30:	52800040 	mov	w0, #0x2                   	// #2
   51e34:	17fffffe 	b	51e2c <psci_find_target_suspend_lvl+0x20>
   51e38:	52800020 	mov	w0, #0x1                   	// #1
   51e3c:	17fffffc 	b	51e2c <psci_find_target_suspend_lvl+0x20>

0000000000051e40 <psci_acquire_pwr_domain_locks>:
   51e40:	a9bc7bfd 	stp	x29, x30, [sp, #-64]!
   51e44:	910003fd 	mov	x29, sp
   51e48:	a90153f3 	stp	x19, x20, [sp, #16]
   51e4c:	2a0003f4 	mov	w20, w0
   51e50:	52800033 	mov	w19, #0x1                   	// #1
   51e54:	a9025bf5 	stp	x21, x22, [sp, #32]
   51e58:	90000296 	adrp	x22, a1000 <psci_locks>
   51e5c:	aa0103f5 	mov	x21, x1
   51e60:	910002d6 	add	x22, x22, #0x0
   51e64:	a90363f7 	stp	x23, x24, [sp, #48]
   51e68:	90000297 	adrp	x23, a1000 <psci_locks>
   51e6c:	910152f7 	add	x23, x23, #0x54
   51e70:	52800198 	mov	w24, #0xc                   	// #12
   51e74:	6b14027f 	cmp	w19, w20
   51e78:	540000c9 	b.ls	51e90 <psci_acquire_pwr_domain_locks+0x50>  // b.plast
   51e7c:	a94153f3 	ldp	x19, x20, [sp, #16]
   51e80:	a9425bf5 	ldp	x21, x22, [sp, #32]
   51e84:	a94363f7 	ldp	x23, x24, [sp, #48]
   51e88:	a8c47bfd 	ldp	x29, x30, [sp], #64
   51e8c:	d65f03c0 	ret
   51e90:	51000660 	sub	w0, w19, #0x1
   51e94:	11000673 	add	w19, w19, #0x1
   51e98:	b8607aa0 	ldr	w0, [x21, x0, lsl #2]
   51e9c:	8b0012e0 	add	x0, x23, x0, lsl #4
   51ea0:	79401c00 	ldrh	w0, [x0, #14]
   51ea4:	9bb85800 	umaddl	x0, w0, w24, x22
   51ea8:	97fffe76 	bl	51880 <bakery_lock_get>
   51eac:	17fffff2 	b	51e74 <psci_acquire_pwr_domain_locks+0x34>

0000000000051eb0 <psci_release_pwr_domain_locks>:
   51eb0:	a9bc7bfd 	stp	x29, x30, [sp, #-64]!
   51eb4:	910003fd 	mov	x29, sp
   51eb8:	a90153f3 	stp	x19, x20, [sp, #16]
   51ebc:	2a0003f3 	mov	w19, w0
   51ec0:	aa0103f4 	mov	x20, x1
   51ec4:	a9025bf5 	stp	x21, x22, [sp, #32]
   51ec8:	90000295 	adrp	x21, a1000 <psci_locks>
   51ecc:	90000296 	adrp	x22, a1000 <psci_locks>
   51ed0:	910002b5 	add	x21, x21, #0x0
   51ed4:	910152d6 	add	x22, x22, #0x54
   51ed8:	f9001bf7 	str	x23, [sp, #48]
   51edc:	52800197 	mov	w23, #0xc                   	// #12
   51ee0:	350000d3 	cbnz	w19, 51ef8 <psci_release_pwr_domain_locks+0x48>
   51ee4:	a94153f3 	ldp	x19, x20, [sp, #16]
   51ee8:	a9425bf5 	ldp	x21, x22, [sp, #32]
   51eec:	f9401bf7 	ldr	x23, [sp, #48]
   51ef0:	a8c47bfd 	ldp	x29, x30, [sp], #64
   51ef4:	d65f03c0 	ret
   51ef8:	51000673 	sub	w19, w19, #0x1
   51efc:	b8735a80 	ldr	w0, [x20, w19, uxtw #2]
   51f00:	8b0012c0 	add	x0, x22, x0, lsl #4
   51f04:	79401c00 	ldrh	w0, [x0, #14]
   51f08:	9bb75400 	umaddl	x0, w0, w23, x21
   51f0c:	97fffe8d 	bl	51940 <bakery_lock_release>
   51f10:	17fffff4 	b	51ee0 <psci_release_pwr_domain_locks+0x30>

0000000000051f14 <psci_validate_mpidr>:
   51f14:	a9bf7bfd 	stp	x29, x30, [sp, #-16]!
   51f18:	910003fd 	mov	x29, sp
   51f1c:	9400062f 	bl	537d8 <plat_core_pos_by_mpidr>
   51f20:	7100001f 	cmp	w0, #0x0
   51f24:	a8c17bfd 	ldp	x29, x30, [sp], #16
   51f28:	12800020 	mov	w0, #0xfffffffe            	// #-2
   51f2c:	1a9fb000 	csel	w0, w0, wzr, lt  // lt = tstop
   51f30:	d65f03c0 	ret

0000000000051f34 <psci_validate_entry_point>:
   51f34:	a9bb7bfd 	stp	x29, x30, [sp, #-80]!
   51f38:	910003fd 	mov	x29, sp
   51f3c:	a90153f3 	stp	x19, x20, [sp, #16]
   51f40:	aa0003f4 	mov	x20, x0
   51f44:	b00000a0 	adrp	x0, 66000 <psci_cpu_pd_nodes+0x20>
   51f48:	aa0103f3 	mov	x19, x1
   51f4c:	a9025bf5 	stp	x21, x22, [sp, #32]
   51f50:	f9402000 	ldr	x0, [x0, #64]
   51f54:	a90363f7 	stp	x23, x24, [sp, #48]
   51f58:	aa0203f8 	mov	x24, x2
   51f5c:	f9403001 	ldr	x1, [x0, #96]
   51f60:	f90023f9 	str	x25, [sp, #64]
   51f64:	b5000361 	cbnz	x1, 51fd0 <psci_validate_entry_point+0x9c>
   51f68:	d53e1117 	mrs	x23, scr_el3
   51f6c:	d5381000 	mrs	x0, sctlr_el1
   51f70:	927802f9 	and	x25, x23, #0x100
   51f74:	37400437 	tbnz	w23, #8, 51ff8 <psci_validate_entry_point+0xc4>
   51f78:	f2670001 	ands	x1, x0, #0x2000000
   51f7c:	53196415 	ubfx	w21, w0, #25, #1
   51f80:	52802021 	mov	w1, #0x101                 	// #257
   51f84:	d2800076 	mov	x22, #0x3                   	// #3
   51f88:	72a00b01 	movk	w1, #0x58, lsl #16
   51f8c:	9a9f16c0 	csinc	x0, x22, xzr, ne  // ne = any
   51f90:	29000281 	stp	w1, w0, [x20]
   51f94:	91006280 	add	x0, x20, #0x18
   51f98:	f9000693 	str	x19, [x20, #8]
   51f9c:	d2800801 	mov	x1, #0x40                  	// #64
   51fa0:	940030ab 	bl	5e24c <zeromem>
   51fa4:	f9000e98 	str	x24, [x20, #24]
   51fa8:	365002d7 	tbz	w23, #10, 52000 <psci_validate_entry_point+0xcc>
   51fac:	37000193 	tbnz	w19, #0, 51fdc <psci_validate_entry_point+0xa8>
   51fb0:	f100033f 	cmp	x25, #0x0
   51fb4:	52807821 	mov	w1, #0x3c1                 	// #961
   51fb8:	1a9f07e0 	cset	w0, ne  // ne = any
   51fbc:	11000400 	add	w0, w0, #0x1
   51fc0:	2a000820 	orr	w0, w1, w0, lsl #2
   51fc4:	b9001280 	str	w0, [x20, #16]
   51fc8:	52800000 	mov	w0, #0x0                   	// #0
   51fcc:	14000005 	b	51fe0 <psci_validate_entry_point+0xac>
   51fd0:	aa1303e0 	mov	x0, x19
   51fd4:	d63f0020 	blr	x1
   51fd8:	34fffc80 	cbz	w0, 51f68 <psci_validate_entry_point+0x34>
   51fdc:	12800100 	mov	w0, #0xfffffff7            	// #-9
   51fe0:	a94153f3 	ldp	x19, x20, [sp, #16]
   51fe4:	a9425bf5 	ldp	x21, x22, [sp, #32]
   51fe8:	a94363f7 	ldp	x23, x24, [sp, #48]
   51fec:	f94023f9 	ldr	x25, [sp, #64]
   51ff0:	a8c57bfd 	ldp	x29, x30, [sp], #80
   51ff4:	d65f03c0 	ret
   51ff8:	d53c1000 	mrs	x0, sctlr_el2
   51ffc:	17ffffdf 	b	51f78 <psci_validate_entry_point+0x44>
   52000:	52800140 	mov	w0, #0xa                   	// #10
   52004:	f100033f 	cmp	x25, #0x0
   52008:	1a8002d6 	csel	w22, w22, w0, eq  // eq = none
   5200c:	531b0273 	ubfiz	w19, w19, #5, #1
   52010:	52803a00 	mov	w0, #0x1d0                 	// #464
   52014:	2a160273 	orr	w19, w19, w22
   52018:	2a152400 	orr	w0, w0, w21, lsl #9
   5201c:	2a000273 	orr	w19, w19, w0
   52020:	b9001293 	str	w19, [x20, #16]
   52024:	17ffffe9 	b	51fc8 <psci_validate_entry_point+0x94>

0000000000052028 <psci_warmboot_entrypoint>:
   52028:	a9bd7bfd 	stp	x29, x30, [sp, #-48]!
   5202c:	910003fd 	mov	x29, sp
   52030:	a90153f3 	stp	x19, x20, [sp, #16]
   52034:	94002ff5 	bl	5e008 <plat_my_core_pos>
   52038:	790043ff 	strh	wzr, [sp, #32]
   5203c:	39008bff 	strb	wzr, [sp, #34]
   52040:	f90017ff 	str	xzr, [sp, #40]
   52044:	d53ed041 	mrs	x1, tpidr_el3
   52048:	b9401821 	ldr	w1, [x1, #24]
   5204c:	7100043f 	cmp	w1, #0x1
   52050:	540000c1 	b.ne	52068 <psci_warmboot_entrypoint+0x40>  // b.any
   52054:	d0000060 	adrp	x0, 60000 <version_string+0x6c>
   52058:	91021000 	add	x0, x0, #0x84
   5205c:	94002b8d 	bl	5ce90 <tf_log>
   52060:	94002bf3 	bl	5d02c <console_flush>
   52064:	94003005 	bl	5e078 <do_panic>
   52068:	2a0003f4 	mov	w20, w0
   5206c:	d53ed041 	mrs	x1, tpidr_el3
   52070:	b9401c33 	ldr	w19, [x1, #28]
   52074:	9100a3e2 	add	x2, sp, #0x28
   52078:	52800041 	mov	w1, #0x2                   	// #2
   5207c:	71000e7f 	cmp	w19, #0x3
   52080:	1a811273 	csel	w19, w19, w1, ne  // ne = any
   52084:	2a1303e1 	mov	w1, w19
   52088:	97fffea0 	bl	51b08 <psci_get_parent_pwr_domain_nodes>
   5208c:	9100a3e1 	add	x1, sp, #0x28
   52090:	2a1303e0 	mov	w0, w19
   52094:	97ffff6b 	bl	51e40 <psci_acquire_pwr_domain_locks>
   52098:	910083e1 	add	x1, sp, #0x20
   5209c:	2a1303e0 	mov	w0, w19
   520a0:	97fffe76 	bl	51a78 <psci_get_target_local_pwr_states>
   520a4:	d53ed040 	mrs	x0, tpidr_el3
   520a8:	b9401800 	ldr	w0, [x0, #24]
   520ac:	910083e1 	add	x1, sp, #0x20
   520b0:	7100081f 	cmp	w0, #0x2
   520b4:	2a1403e0 	mov	w0, w20
   520b8:	54000141 	b.ne	520e0 <psci_warmboot_entrypoint+0xb8>  // b.any
   520bc:	94000212 	bl	52904 <psci_cpu_on_finish>
   520c0:	2a1303e0 	mov	w0, w19
   520c4:	97fffea3 	bl	51b50 <psci_set_pwr_domains_to_run>
   520c8:	9100a3e1 	add	x1, sp, #0x28
   520cc:	2a1303e0 	mov	w0, w19
   520d0:	97ffff78 	bl	51eb0 <psci_release_pwr_domain_locks>
   520d4:	a94153f3 	ldp	x19, x20, [sp, #16]
   520d8:	a8c37bfd 	ldp	x29, x30, [sp], #48
   520dc:	d65f03c0 	ret
   520e0:	94000385 	bl	52ef4 <psci_cpu_suspend_finish>
   520e4:	17fffff7 	b	520c0 <psci_warmboot_entrypoint+0x98>

00000000000520e8 <psci_spd_migrate_info>:
   520e8:	900000a1 	adrp	x1, 66000 <psci_cpu_pd_nodes+0x20>
   520ec:	f9402421 	ldr	x1, [x1, #72]
   520f0:	b40000a1 	cbz	x1, 52104 <psci_spd_migrate_info+0x1c>
   520f4:	f9401821 	ldr	x1, [x1, #48]
   520f8:	b4000061 	cbz	x1, 52104 <psci_spd_migrate_info+0x1c>
   520fc:	aa0103f0 	mov	x16, x1
   52100:	d61f0200 	br	x16
   52104:	12800000 	mov	w0, #0xffffffff            	// #-1
   52108:	d65f03c0 	ret

000000000005210c <psci_print_power_domain_map>:
   5210c:	d65f03c0 	ret

0000000000052110 <psci_do_pwrdown_sequence>:
   52110:	14002f8b 	b	5df3c <psci_do_pwrdown_cache_maintenance>

0000000000052114 <psci_cpu_on>:
   52114:	a9b77bfd 	stp	x29, x30, [sp, #-144]!
   52118:	910003fd 	mov	x29, sp
   5211c:	a90153f3 	stp	x19, x20, [sp, #16]
   52120:	aa0003f3 	mov	x19, x0
   52124:	aa0103f4 	mov	x20, x1
   52128:	f90013f5 	str	x21, [sp, #32]
   5212c:	aa0203f5 	mov	x21, x2
   52130:	97ffff79 	bl	51f14 <psci_validate_mpidr>
   52134:	350001a0 	cbnz	w0, 52168 <psci_cpu_on+0x54>
   52138:	aa1503e2 	mov	x2, x21
   5213c:	aa1403e1 	mov	x1, x20
   52140:	9100e3e0 	add	x0, sp, #0x38
   52144:	97ffff7c 	bl	51f34 <psci_validate_entry_point>
   52148:	35000080 	cbnz	w0, 52158 <psci_cpu_on+0x44>
   5214c:	9100e3e1 	add	x1, sp, #0x38
   52150:	aa1303e0 	mov	x0, x19
   52154:	94000194 	bl	527a4 <psci_cpu_on_start>
   52158:	a94153f3 	ldp	x19, x20, [sp, #16]
   5215c:	f94013f5 	ldr	x21, [sp, #32]
   52160:	a8c97bfd 	ldp	x29, x30, [sp], #144
   52164:	d65f03c0 	ret
   52168:	12800020 	mov	w0, #0xfffffffe            	// #-2
   5216c:	17fffffb 	b	52158 <psci_cpu_on+0x44>

0000000000052170 <psci_cpu_suspend>:
   52170:	a9b67bfd 	stp	x29, x30, [sp, #-160]!
   52174:	910003fd 	mov	x29, sp
   52178:	a90153f3 	stp	x19, x20, [sp, #16]
   5217c:	2a0003f3 	mov	w19, w0
   52180:	a9025bf5 	stp	x21, x22, [sp, #32]
   52184:	aa0103f6 	mov	x22, x1
   52188:	910103e1 	add	x1, sp, #0x40
   5218c:	f9001bf7 	str	x23, [sp, #48]
   52190:	aa0203f7 	mov	x23, x2
   52194:	790083ff 	strh	wzr, [sp, #64]
   52198:	39010bff 	strb	wzr, [sp, #66]
   5219c:	97fffdf6 	bl	51974 <psci_validate_power_state>
   521a0:	2a0003f4 	mov	w20, w0
   521a4:	35000300 	cbnz	w0, 52204 <psci_cpu_suspend+0x94>
   521a8:	910103e0 	add	x0, sp, #0x40
   521ac:	d3504273 	ubfx	x19, x19, #16, #1
   521b0:	97ffff17 	bl	51e0c <psci_find_target_suspend_lvl>
   521b4:	2a0003f5 	mov	w21, w0
   521b8:	71000c1f 	cmp	w0, #0x3
   521bc:	540000c1 	b.ne	521d4 <psci_cpu_suspend+0x64>  // b.any
   521c0:	d0000060 	adrp	x0, 60000 <version_string+0x6c>
   521c4:	91029800 	add	x0, x0, #0xa6
   521c8:	94002b32 	bl	5ce90 <tf_log>
   521cc:	94002b98 	bl	5d02c <console_flush>
   521d0:	94002faa 	bl	5e078 <do_panic>
   521d4:	2a000260 	orr	w0, w19, w0
   521d8:	35000220 	cbnz	w0, 5221c <psci_cpu_suspend+0xac>
   521dc:	900000a0 	adrp	x0, 66000 <psci_cpu_pd_nodes+0x20>
   521e0:	f9402000 	ldr	x0, [x0, #64]
   521e4:	f9400001 	ldr	x1, [x0]
   521e8:	b4000361 	cbz	x1, 52254 <psci_cpu_suspend+0xe4>
   521ec:	394103e0 	ldrb	w0, [sp, #64]
   521f0:	d53ed042 	mrs	x2, tpidr_el3
   521f4:	39008040 	strb	w0, [x2, #32]
   521f8:	d63f0020 	blr	x1
   521fc:	d53ed040 	mrs	x0, tpidr_el3
   52200:	3900801f 	strb	wzr, [x0, #32]
   52204:	2a1403e0 	mov	w0, w20
   52208:	a94153f3 	ldp	x19, x20, [sp, #16]
   5220c:	a9425bf5 	ldp	x21, x22, [sp, #32]
   52210:	f9401bf7 	ldr	x23, [sp, #48]
   52214:	a8ca7bfd 	ldp	x29, x30, [sp], #160
   52218:	d65f03c0 	ret
   5221c:	350000f3 	cbnz	w19, 52238 <psci_cpu_suspend+0xc8>
   52220:	2a1303e3 	mov	w3, w19
   52224:	910103e2 	add	x2, sp, #0x40
   52228:	2a1503e1 	mov	w1, w21
   5222c:	910123e0 	add	x0, sp, #0x48
   52230:	940002c5 	bl	52d44 <psci_cpu_suspend_start>
   52234:	17fffff4 	b	52204 <psci_cpu_suspend+0x94>
   52238:	aa1703e2 	mov	x2, x23
   5223c:	aa1603e1 	mov	x1, x22
   52240:	910123e0 	add	x0, sp, #0x48
   52244:	97ffff3c 	bl	51f34 <psci_validate_entry_point>
   52248:	34fffec0 	cbz	w0, 52220 <psci_cpu_suspend+0xb0>
   5224c:	2a0003f4 	mov	w20, w0
   52250:	17ffffed 	b	52204 <psci_cpu_suspend+0x94>
   52254:	12800034 	mov	w20, #0xfffffffe            	// #-2
   52258:	17ffffeb 	b	52204 <psci_cpu_suspend+0x94>

000000000005225c <psci_system_suspend>:
   5225c:	a9b87bfd 	stp	x29, x30, [sp, #-128]!
   52260:	910003fd 	mov	x29, sp
   52264:	a90153f3 	stp	x19, x20, [sp, #16]
   52268:	aa0003f3 	mov	x19, x0
   5226c:	aa0103f4 	mov	x20, x1
   52270:	97fffdd0 	bl	519b0 <psci_is_last_on_cpu>
   52274:	350000c0 	cbnz	w0, 5228c <psci_system_suspend+0x30>
   52278:	12800053 	mov	w19, #0xfffffffd            	// #-3
   5227c:	2a1303e0 	mov	w0, w19
   52280:	a94153f3 	ldp	x19, x20, [sp, #16]
   52284:	a8c87bfd 	ldp	x29, x30, [sp], #128
   52288:	d65f03c0 	ret
   5228c:	aa1303e1 	mov	x1, x19
   52290:	aa1403e2 	mov	x2, x20
   52294:	9100a3e0 	add	x0, sp, #0x28
   52298:	97ffff27 	bl	51f34 <psci_validate_entry_point>
   5229c:	2a0003f3 	mov	w19, w0
   522a0:	35fffee0 	cbnz	w0, 5227c <psci_system_suspend+0x20>
   522a4:	910083e0 	add	x0, sp, #0x20
   522a8:	97fffdbd 	bl	5199c <psci_query_sys_suspend_pwrstate>
   522ac:	910083e0 	add	x0, sp, #0x20
   522b0:	97fffed7 	bl	51e0c <psci_find_target_suspend_lvl>
   522b4:	7100041f 	cmp	w0, #0x1
   522b8:	54fffe09 	b.ls	52278 <psci_system_suspend+0x1c>  // b.plast
   522bc:	910083e2 	add	x2, sp, #0x20
   522c0:	9100a3e0 	add	x0, sp, #0x28
   522c4:	52800023 	mov	w3, #0x1                   	// #1
   522c8:	52800041 	mov	w1, #0x2                   	// #2
   522cc:	9400029e 	bl	52d44 <psci_cpu_suspend_start>
   522d0:	17ffffeb 	b	5227c <psci_system_suspend+0x20>

00000000000522d4 <psci_cpu_off>:
   522d4:	52800040 	mov	w0, #0x2                   	// #2
   522d8:	140000f2 	b	526a0 <psci_do_cpu_off>

00000000000522dc <psci_affinity_info>:
   522dc:	340000e1 	cbz	w1, 522f8 <psci_affinity_info+0x1c>
   522e0:	12800020 	mov	w0, #0xfffffffe            	// #-2
   522e4:	d65f03c0 	ret
   522e8:	12800020 	mov	w0, #0xfffffffe            	// #-2
   522ec:	f9400bf3 	ldr	x19, [sp, #16]
   522f0:	a8c27bfd 	ldp	x29, x30, [sp], #32
   522f4:	d65f03c0 	ret
   522f8:	a9be7bfd 	stp	x29, x30, [sp, #-32]!
   522fc:	910003fd 	mov	x29, sp
   52300:	f9000bf3 	str	x19, [sp, #16]
   52304:	94000535 	bl	537d8 <plat_core_pos_by_mpidr>
   52308:	2a0003f3 	mov	w19, w0
   5230c:	3100041f 	cmn	w0, #0x1
   52310:	54fffec0 	b.eq	522e8 <psci_affinity_info+0xc>  // b.none
   52314:	94002efa 	bl	5defc <_cpu_data_by_index>
   52318:	91006000 	add	x0, x0, #0x18
   5231c:	d2800081 	mov	x1, #0x4                   	// #4
   52320:	94002f62 	bl	5e0a8 <flush_dcache_range>
   52324:	2a1303e0 	mov	w0, w19
   52328:	94002ef5 	bl	5defc <_cpu_data_by_index>
   5232c:	b9401800 	ldr	w0, [x0, #24]
   52330:	17ffffef 	b	522ec <psci_affinity_info+0x10>

0000000000052334 <psci_migrate>:
   52334:	a9bd7bfd 	stp	x29, x30, [sp, #-48]!
   52338:	910003fd 	mov	x29, sp
   5233c:	f9000bf3 	str	x19, [sp, #16]
   52340:	aa0003f3 	mov	x19, x0
   52344:	9100a3e0 	add	x0, sp, #0x28
   52348:	97ffff68 	bl	520e8 <psci_spd_migrate_info>
   5234c:	340000e0 	cbz	w0, 52368 <psci_migrate+0x34>
   52350:	7100041f 	cmp	w0, #0x1
   52354:	12800040 	mov	w0, #0xfffffffd            	// #-3
   52358:	5a9f0000 	csinv	w0, w0, wzr, eq  // eq = none
   5235c:	f9400bf3 	ldr	x19, [sp, #16]
   52360:	a8c37bfd 	ldp	x29, x30, [sp], #48
   52364:	d65f03c0 	ret
   52368:	d53800a0 	mrs	x0, mpidr_el1
   5236c:	f94017e1 	ldr	x1, [sp, #40]
   52370:	eb00003f 	cmp	x1, x0
   52374:	54000161 	b.ne	523a0 <psci_migrate+0x6c>  // b.any
   52378:	aa1303e0 	mov	x0, x19
   5237c:	97fffee6 	bl	51f14 <psci_validate_mpidr>
   52380:	35000140 	cbnz	w0, 523a8 <psci_migrate+0x74>
   52384:	d53800a0 	mrs	x0, mpidr_el1
   52388:	900000a1 	adrp	x1, 66000 <psci_cpu_pd_nodes+0x20>
   5238c:	f9402421 	ldr	x1, [x1, #72]
   52390:	f9401422 	ldr	x2, [x1, #40]
   52394:	aa1303e1 	mov	x1, x19
   52398:	d63f0040 	blr	x2
   5239c:	17fffff0 	b	5235c <psci_migrate+0x28>
   523a0:	128000c0 	mov	w0, #0xfffffff9            	// #-7
   523a4:	17ffffee 	b	5235c <psci_migrate+0x28>
   523a8:	12800020 	mov	w0, #0xfffffffe            	// #-2
   523ac:	17ffffec 	b	5235c <psci_migrate+0x28>

00000000000523b0 <psci_migrate_info_type>:
   523b0:	a9be7bfd 	stp	x29, x30, [sp, #-32]!
   523b4:	910003fd 	mov	x29, sp
   523b8:	910063e0 	add	x0, sp, #0x18
   523bc:	97ffff4b 	bl	520e8 <psci_spd_migrate_info>
   523c0:	a8c27bfd 	ldp	x29, x30, [sp], #32
   523c4:	d65f03c0 	ret

00000000000523c8 <psci_migrate_info_up_cpu>:
   523c8:	a9be7bfd 	stp	x29, x30, [sp, #-32]!
   523cc:	910003fd 	mov	x29, sp
   523d0:	910063e0 	add	x0, sp, #0x18
   523d4:	97ffff45 	bl	520e8 <psci_spd_migrate_info>
   523d8:	f9400fe1 	ldr	x1, [sp, #24]
   523dc:	7100041f 	cmp	w0, #0x1
   523e0:	a8c27bfd 	ldp	x29, x30, [sp], #32
   523e4:	92800020 	mov	x0, #0xfffffffffffffffe    	// #-2
   523e8:	9a809020 	csel	x0, x1, x0, ls  // ls = plast
   523ec:	d65f03c0 	ret

00000000000523f0 <psci_node_hw_state>:
   523f0:	a9be7bfd 	stp	x29, x30, [sp, #-32]!
   523f4:	910003fd 	mov	x29, sp
   523f8:	a90153f3 	stp	x19, x20, [sp, #16]
   523fc:	aa0003f4 	mov	x20, x0
   52400:	2a0103f3 	mov	w19, w1
   52404:	97fffec4 	bl	51f14 <psci_validate_mpidr>
   52408:	35000180 	cbnz	w0, 52438 <psci_node_hw_state+0x48>
   5240c:	71000a7f 	cmp	w19, #0x2
   52410:	54000148 	b.hi	52438 <psci_node_hw_state+0x48>  // b.pmore
   52414:	900000a0 	adrp	x0, 66000 <psci_cpu_pd_nodes+0x20>
   52418:	2a1303e1 	mov	w1, w19
   5241c:	f9402000 	ldr	x0, [x0, #64]
   52420:	f9404002 	ldr	x2, [x0, #128]
   52424:	aa1403e0 	mov	x0, x20
   52428:	a94153f3 	ldp	x19, x20, [sp, #16]
   5242c:	aa0203f0 	mov	x16, x2
   52430:	a8c27bfd 	ldp	x29, x30, [sp], #32
   52434:	d61f0200 	br	x16
   52438:	12800020 	mov	w0, #0xfffffffe            	// #-2
   5243c:	a94153f3 	ldp	x19, x20, [sp, #16]
   52440:	a8c27bfd 	ldp	x29, x30, [sp], #32
   52444:	d65f03c0 	ret

0000000000052448 <psci_features>:
   52448:	d00000a1 	adrp	x1, 68000 <dist_ctx+0x1e98>
   5244c:	52b00002 	mov	w2, #0x80000000            	// #-2147483648
   52450:	6b02001f 	cmp	w0, w2
   52454:	b94c5421 	ldr	w1, [x1, #3156]
   52458:	54000240 	b.eq	524a0 <psci_features+0x58>  // b.none
   5245c:	36f00080 	tbz	w0, #30, 5246c <psci_features+0x24>
   52460:	528c1742 	mov	w2, #0x60ba                	// #24762
   52464:	72a002e2 	movk	w2, #0x17, lsl #16
   52468:	0a020021 	and	w1, w1, w2
   5246c:	d3587402 	ubfx	x2, x0, #24, #6
   52470:	7100105f 	cmp	w2, #0x4
   52474:	540001a1 	b.ne	524a8 <psci_features+0x60>  // b.any
   52478:	d3505c04 	ubfx	x4, x0, #16, #8
   5247c:	531f7c02 	lsr	w2, w0, #31
   52480:	36f80140 	tbz	w0, #31, 524a8 <psci_features+0x60>
   52484:	121b2803 	and	w3, w0, #0xffe0
   52488:	2a040063 	orr	w3, w3, w4
   5248c:	350000e3 	cbnz	w3, 524a8 <psci_features+0x60>
   52490:	1ac02040 	lsl	w0, w2, w0
   52494:	6a01001f 	tst	w0, w1
   52498:	5a9f13e0 	csetm	w0, eq  // eq = none
   5249c:	d65f03c0 	ret
   524a0:	52800000 	mov	w0, #0x0                   	// #0
   524a4:	17fffffe 	b	5249c <psci_features+0x54>
   524a8:	12800000 	mov	w0, #0xffffffff            	// #-1
   524ac:	17fffffc 	b	5249c <psci_features+0x54>

00000000000524b0 <psci_smc_handler>:
   524b0:	360009e7 	tbz	w7, #0, 525ec <psci_smc_handler+0x13c>
   524b4:	d00000a5 	adrp	x5, 68000 <dist_ctx+0x1e98>
   524b8:	2a0003e4 	mov	w4, w0
   524bc:	aa0103e0 	mov	x0, x1
   524c0:	aa0203e1 	mov	x1, x2
   524c4:	b94c54a5 	ldr	w5, [x5, #3156]
   524c8:	aa0303e2 	mov	x2, x3
   524cc:	52800023 	mov	w3, #0x1                   	// #1
   524d0:	1ac42063 	lsl	w3, w3, w4
   524d4:	6a05007f 	tst	w3, w5
   524d8:	540008a0 	b.eq	525ec <psci_smc_handler+0x13c>  // b.none
   524dc:	a9bf7bfd 	stp	x29, x30, [sp, #-16]!
   524e0:	910003fd 	mov	x29, sp
   524e4:	37f00704 	tbnz	w4, #30, 525c4 <psci_smc_handler+0x114>
   524e8:	52af8003 	mov	w3, #0x7c000000            	// #2080374784
   524ec:	0b030084 	add	w4, w4, w3
   524f0:	7100509f 	cmp	w4, #0x14
   524f4:	54000808 	b.hi	525f4 <psci_smc_handler+0x144>  // b.pmore
   524f8:	b0000063 	adrp	x3, 5f000 <fdt_ro_probe_+0x20>
   524fc:	9130a063 	add	x3, x3, #0xc28
   52500:	38644863 	ldrb	w3, [x3, w4, uxtw]
   52504:	10000064 	adr	x4, 52510 <psci_smc_handler+0x60>
   52508:	8b238883 	add	x3, x4, w3, sxtb #2
   5250c:	d61f0060 	br	x3
   52510:	320083e0 	mov	w0, #0x10001               	// #65537
   52514:	a8c17bfd 	ldp	x29, x30, [sp], #16
   52518:	d65f03c0 	ret
   5251c:	97ffff6e 	bl	522d4 <psci_cpu_off>
   52520:	93407c00 	sxtw	x0, w0
   52524:	17fffffc 	b	52514 <psci_smc_handler+0x64>
   52528:	2a0203e2 	mov	w2, w2
   5252c:	2a0103e1 	mov	w1, w1
   52530:	97ffff10 	bl	52170 <psci_cpu_suspend>
   52534:	17fffffb 	b	52520 <psci_smc_handler+0x70>
   52538:	2a0203e2 	mov	w2, w2
   5253c:	2a0103e1 	mov	w1, w1
   52540:	2a0003e0 	mov	w0, w0
   52544:	97fffef4 	bl	52114 <psci_cpu_on>
   52548:	17fffff6 	b	52520 <psci_smc_handler+0x70>
   5254c:	2a0003e0 	mov	w0, w0
   52550:	97ffff63 	bl	522dc <psci_affinity_info>
   52554:	17fffff3 	b	52520 <psci_smc_handler+0x70>
   52558:	2a0003e0 	mov	w0, w0
   5255c:	97ffff76 	bl	52334 <psci_migrate>
   52560:	17fffff0 	b	52520 <psci_smc_handler+0x70>
   52564:	97ffff93 	bl	523b0 <psci_migrate_info_type>
   52568:	17ffffee 	b	52520 <psci_smc_handler+0x70>
   5256c:	a8c17bfd 	ldp	x29, x30, [sp], #16
   52570:	17ffff96 	b	523c8 <psci_migrate_info_up_cpu>
   52574:	2a0003e0 	mov	w0, w0
   52578:	97ffff9e 	bl	523f0 <psci_node_hw_state>
   5257c:	17ffffe9 	b	52520 <psci_smc_handler+0x70>
   52580:	2a0103e1 	mov	w1, w1
   52584:	2a0003e0 	mov	w0, w0
   52588:	97ffff35 	bl	5225c <psci_system_suspend>
   5258c:	17ffffe5 	b	52520 <psci_smc_handler+0x70>
   52590:	94000282 	bl	52f98 <psci_system_off>
   52594:	9400028f 	bl	52fd0 <psci_system_reset>
   52598:	97ffffac 	bl	52448 <psci_features>
   5259c:	17ffffe1 	b	52520 <psci_smc_handler+0x70>
   525a0:	a8c17bfd 	ldp	x29, x30, [sp], #16
   525a4:	14000016 	b	525fc <psci_mem_protect>
   525a8:	2a0103e1 	mov	w1, w1
   525ac:	2a0003e0 	mov	w0, w0
   525b0:	a8c17bfd 	ldp	x29, x30, [sp], #16
   525b4:	14000029 	b	52658 <psci_mem_chk_range>
   525b8:	2a0103e1 	mov	w1, w1
   525bc:	a8c17bfd 	ldp	x29, x30, [sp], #16
   525c0:	14000292 	b	53008 <psci_system_reset2>
   525c4:	12b88003 	mov	w3, #0x3bffffff            	// #1006632959
   525c8:	0b030084 	add	w4, w4, w3
   525cc:	71004c9f 	cmp	w4, #0x13
   525d0:	54000128 	b.hi	525f4 <psci_smc_handler+0x144>  // b.pmore
   525d4:	b0000063 	adrp	x3, 5f000 <fdt_ro_probe_+0x20>
   525d8:	91310063 	add	x3, x3, #0xc40
   525dc:	38644863 	ldrb	w3, [x3, w4, uxtw]
   525e0:	10000064 	adr	x4, 525ec <psci_smc_handler+0x13c>
   525e4:	8b238883 	add	x3, x4, w3, sxtb #2
   525e8:	d61f0060 	br	x3
   525ec:	92800000 	mov	x0, #0xffffffffffffffff    	// #-1
   525f0:	d65f03c0 	ret
   525f4:	92800000 	mov	x0, #0xffffffffffffffff    	// #-1
   525f8:	17ffffc7 	b	52514 <psci_smc_handler+0x64>

00000000000525fc <psci_mem_protect>:
   525fc:	a9bd7bfd 	stp	x29, x30, [sp, #-48]!
   52600:	910003fd 	mov	x29, sp
   52604:	a90153f3 	stp	x19, x20, [sp, #16]
   52608:	900000b4 	adrp	x20, 66000 <psci_cpu_pd_nodes+0x20>
   5260c:	2a0003f3 	mov	w19, w0
   52610:	f9402280 	ldr	x0, [x20, #64]
   52614:	f9404801 	ldr	x1, [x0, #144]
   52618:	9100b3e0 	add	x0, sp, #0x2c
   5261c:	d63f0020 	blr	x1
   52620:	36f800a0 	tbz	w0, #31, 52634 <psci_mem_protect+0x38>
   52624:	92800000 	mov	x0, #0xffffffffffffffff    	// #-1
   52628:	a94153f3 	ldp	x19, x20, [sp, #16]
   5262c:	a8c37bfd 	ldp	x29, x30, [sp], #48
   52630:	d65f03c0 	ret
   52634:	f9402280 	ldr	x0, [x20, #64]
   52638:	f9404c01 	ldr	x1, [x0, #152]
   5263c:	2a1303e0 	mov	w0, w19
   52640:	d63f0020 	blr	x1
   52644:	37ffff00 	tbnz	w0, #31, 52624 <psci_mem_protect+0x28>
   52648:	b9402fe0 	ldr	w0, [sp, #44]
   5264c:	7100001f 	cmp	w0, #0x0
   52650:	9a9f07e0 	cset	x0, ne  // ne = any
   52654:	17fffff5 	b	52628 <psci_mem_protect+0x2c>

0000000000052658 <psci_mem_chk_range>:
   52658:	b50000c1 	cbnz	x1, 52670 <psci_mem_chk_range+0x18>
   5265c:	92800040 	mov	x0, #0xfffffffffffffffd    	// #-3
   52660:	d65f03c0 	ret
   52664:	92800040 	mov	x0, #0xfffffffffffffffd    	// #-3
   52668:	a8c17bfd 	ldp	x29, x30, [sp], #16
   5266c:	d65f03c0 	ret
   52670:	cb0103e2 	neg	x2, x1
   52674:	eb00005f 	cmp	x2, x0
   52678:	54ffff23 	b.cc	5265c <psci_mem_chk_range+0x4>  // b.lo, b.ul, b.last
   5267c:	a9bf7bfd 	stp	x29, x30, [sp, #-16]!
   52680:	900000a2 	adrp	x2, 66000 <psci_cpu_pd_nodes+0x20>
   52684:	910003fd 	mov	x29, sp
   52688:	f9402042 	ldr	x2, [x2, #64]
   5268c:	f9404442 	ldr	x2, [x2, #136]
   52690:	d63f0040 	blr	x2
   52694:	37fffe80 	tbnz	w0, #31, 52664 <psci_mem_chk_range+0xc>
   52698:	d2800000 	mov	x0, #0x0                   	// #0
   5269c:	17fffff3 	b	52668 <psci_mem_chk_range+0x10>

00000000000526a0 <psci_do_cpu_off>:
   526a0:	a9bd7bfd 	stp	x29, x30, [sp, #-48]!
   526a4:	910003fd 	mov	x29, sp
   526a8:	a90153f3 	stp	x19, x20, [sp, #16]
   526ac:	2a0003f4 	mov	w20, w0
   526b0:	94002e56 	bl	5e008 <plat_my_core_pos>
   526b4:	9100a3e2 	add	x2, sp, #0x28
   526b8:	52804041 	mov	w1, #0x202                 	// #514
   526bc:	790043e1 	strh	w1, [sp, #32]
   526c0:	52800041 	mov	w1, #0x2                   	// #2
   526c4:	39008be1 	strb	w1, [sp, #34]
   526c8:	2a1403e1 	mov	w1, w20
   526cc:	f90017ff 	str	xzr, [sp, #40]
   526d0:	97fffd0e 	bl	51b08 <psci_get_parent_pwr_domain_nodes>
   526d4:	2a1403e0 	mov	w0, w20
   526d8:	9100a3e1 	add	x1, sp, #0x28
   526dc:	97fffdd9 	bl	51e40 <psci_acquire_pwr_domain_locks>
   526e0:	900000a0 	adrp	x0, 66000 <psci_cpu_pd_nodes+0x20>
   526e4:	f9402400 	ldr	x0, [x0, #72]
   526e8:	b5000460 	cbnz	x0, 52774 <psci_do_cpu_off+0xd4>
   526ec:	910083e1 	add	x1, sp, #0x20
   526f0:	2a1403e0 	mov	w0, w20
   526f4:	97fffd45 	bl	51c08 <psci_do_state_coordination>
   526f8:	52800013 	mov	w19, #0x0                   	// #0
   526fc:	910083e0 	add	x0, sp, #0x20
   52700:	97fffdb4 	bl	51dd0 <psci_find_max_off_lvl>
   52704:	97fffe83 	bl	52110 <psci_do_pwrdown_sequence>
   52708:	900000a0 	adrp	x0, 66000 <psci_cpu_pd_nodes+0x20>
   5270c:	f9402000 	ldr	x0, [x0, #64]
   52710:	f9400801 	ldr	x1, [x0, #16]
   52714:	910083e0 	add	x0, sp, #0x20
   52718:	d63f0020 	blr	x1
   5271c:	9100a3e1 	add	x1, sp, #0x28
   52720:	2a1403e0 	mov	w0, w20
   52724:	97fffde3 	bl	51eb0 <psci_release_pwr_domain_locks>
   52728:	35000373 	cbnz	w19, 52794 <psci_do_cpu_off+0xf4>
   5272c:	d53ed040 	mrs	x0, tpidr_el3
   52730:	d2800081 	mov	x1, #0x4                   	// #4
   52734:	91006000 	add	x0, x0, #0x18
   52738:	94002e5c 	bl	5e0a8 <flush_dcache_range>
   5273c:	d53ed040 	mrs	x0, tpidr_el3
   52740:	52800021 	mov	w1, #0x1                   	// #1
   52744:	b9001801 	str	w1, [x0, #24]
   52748:	d5033b9f 	dsb	ish
   5274c:	d53ed040 	mrs	x0, tpidr_el3
   52750:	d2800081 	mov	x1, #0x4                   	// #4
   52754:	91006000 	add	x0, x0, #0x18
   52758:	94002e70 	bl	5e118 <inv_dcache_range>
   5275c:	900000a0 	adrp	x0, 66000 <psci_cpu_pd_nodes+0x20>
   52760:	f9402000 	ldr	x0, [x0, #64]
   52764:	f9402001 	ldr	x1, [x0, #64]
   52768:	b4000141 	cbz	x1, 52790 <psci_do_cpu_off+0xf0>
   5276c:	910083e0 	add	x0, sp, #0x20
   52770:	d63f0020 	blr	x1
   52774:	f9400401 	ldr	x1, [x0, #8]
   52778:	b4fffba1 	cbz	x1, 526ec <psci_do_cpu_off+0x4c>
   5277c:	d2800000 	mov	x0, #0x0                   	// #0
   52780:	d63f0020 	blr	x1
   52784:	2a0003f3 	mov	w19, w0
   52788:	34fffb20 	cbz	w0, 526ec <psci_do_cpu_off+0x4c>
   5278c:	17ffffe4 	b	5271c <psci_do_cpu_off+0x7c>
   52790:	94002e07 	bl	5dfac <psci_power_down_wfi>
   52794:	2a1303e0 	mov	w0, w19
   52798:	a94153f3 	ldp	x19, x20, [sp, #16]
   5279c:	a8c37bfd 	ldp	x29, x30, [sp], #48
   527a0:	d65f03c0 	ret

00000000000527a4 <psci_cpu_on_start>:
   527a4:	a9bc7bfd 	stp	x29, x30, [sp, #-64]!
   527a8:	910003fd 	mov	x29, sp
   527ac:	a90153f3 	stp	x19, x20, [sp, #16]
   527b0:	aa0003f4 	mov	x20, x0
   527b4:	a9025bf5 	stp	x21, x22, [sp, #32]
   527b8:	aa0103f6 	mov	x22, x1
   527bc:	d2800195 	mov	x21, #0xc                   	// #12
   527c0:	f9001bf7 	str	x23, [sp, #48]
   527c4:	94000405 	bl	537d8 <plat_core_pos_by_mpidr>
   527c8:	f0000082 	adrp	x2, 65000 <__STACKS_START__+0x2f80>
   527cc:	913f8042 	add	x2, x2, #0xfe0
   527d0:	8b2052b5 	add	x21, x21, w0, uxtw #4
   527d4:	2a0003f3 	mov	w19, w0
   527d8:	8b0202b5 	add	x21, x21, x2
   527dc:	aa1503e0 	mov	x0, x21
   527e0:	94002dcd 	bl	5df14 <spin_lock>
   527e4:	2a1303e0 	mov	w0, w19
   527e8:	94002dc5 	bl	5defc <_cpu_data_by_index>
   527ec:	d2800081 	mov	x1, #0x4                   	// #4
   527f0:	91006000 	add	x0, x0, #0x18
   527f4:	94002e2d 	bl	5e0a8 <flush_dcache_range>
   527f8:	2a1303e0 	mov	w0, w19
   527fc:	94002dc0 	bl	5defc <_cpu_data_by_index>
   52800:	b9401800 	ldr	w0, [x0, #24]
   52804:	34000780 	cbz	w0, 528f4 <psci_cpu_on_start+0x150>
   52808:	7100081f 	cmp	w0, #0x2
   5280c:	54000780 	b.eq	528fc <psci_cpu_on_start+0x158>  // b.none
   52810:	900000a0 	adrp	x0, 66000 <psci_cpu_pd_nodes+0x20>
   52814:	f9402400 	ldr	x0, [x0, #72]
   52818:	b40000a0 	cbz	x0, 5282c <psci_cpu_on_start+0x88>
   5281c:	f9400001 	ldr	x1, [x0]
   52820:	b4000061 	cbz	x1, 5282c <psci_cpu_on_start+0x88>
   52824:	aa1403e0 	mov	x0, x20
   52828:	d63f0020 	blr	x1
   5282c:	52800057 	mov	w23, #0x2                   	// #2
   52830:	2a1303e0 	mov	w0, w19
   52834:	94002db2 	bl	5defc <_cpu_data_by_index>
   52838:	b9001817 	str	w23, [x0, #24]
   5283c:	2a1303e0 	mov	w0, w19
   52840:	94002daf 	bl	5defc <_cpu_data_by_index>
   52844:	91006000 	add	x0, x0, #0x18
   52848:	d2800081 	mov	x1, #0x4                   	// #4
   5284c:	94002e17 	bl	5e0a8 <flush_dcache_range>
   52850:	2a1303e0 	mov	w0, w19
   52854:	94002daa 	bl	5defc <_cpu_data_by_index>
   52858:	b9401800 	ldr	w0, [x0, #24]
   5285c:	6b17001f 	cmp	w0, w23
   52860:	54000120 	b.eq	52884 <psci_cpu_on_start+0xe0>  // b.none
   52864:	2a1303e0 	mov	w0, w19
   52868:	94002da5 	bl	5defc <_cpu_data_by_index>
   5286c:	b9001817 	str	w23, [x0, #24]
   52870:	2a1303e0 	mov	w0, w19
   52874:	94002da2 	bl	5defc <_cpu_data_by_index>
   52878:	91006000 	add	x0, x0, #0x18
   5287c:	d2800081 	mov	x1, #0x4                   	// #4
   52880:	94002e0a 	bl	5e0a8 <flush_dcache_range>
   52884:	900000a0 	adrp	x0, 66000 <psci_cpu_pd_nodes+0x20>
   52888:	f9402000 	ldr	x0, [x0, #64]
   5288c:	f9400401 	ldr	x1, [x0, #8]
   52890:	aa1403e0 	mov	x0, x20
   52894:	d63f0020 	blr	x1
   52898:	2a0003f4 	mov	w20, w0
   5289c:	35000180 	cbnz	w0, 528cc <psci_cpu_on_start+0x128>
   528a0:	aa1603e1 	mov	x1, x22
   528a4:	2a1303e0 	mov	w0, w19
   528a8:	97fffb65 	bl	5163c <cm_init_context_by_index>
   528ac:	aa1503e0 	mov	x0, x21
   528b0:	94002da1 	bl	5df34 <spin_unlock>
   528b4:	2a1403e0 	mov	w0, w20
   528b8:	a94153f3 	ldp	x19, x20, [sp, #16]
   528bc:	a9425bf5 	ldp	x21, x22, [sp, #32]
   528c0:	f9401bf7 	ldr	x23, [sp, #48]
   528c4:	a8c47bfd 	ldp	x29, x30, [sp], #64
   528c8:	d65f03c0 	ret
   528cc:	2a1303e0 	mov	w0, w19
   528d0:	94002d8b 	bl	5defc <_cpu_data_by_index>
   528d4:	52800021 	mov	w1, #0x1                   	// #1
   528d8:	b9001801 	str	w1, [x0, #24]
   528dc:	2a1303e0 	mov	w0, w19
   528e0:	94002d87 	bl	5defc <_cpu_data_by_index>
   528e4:	91006000 	add	x0, x0, #0x18
   528e8:	d2800081 	mov	x1, #0x4                   	// #4
   528ec:	94002def 	bl	5e0a8 <flush_dcache_range>
   528f0:	17ffffef 	b	528ac <psci_cpu_on_start+0x108>
   528f4:	12800074 	mov	w20, #0xfffffffc            	// #-4
   528f8:	17ffffed 	b	528ac <psci_cpu_on_start+0x108>
   528fc:	12800094 	mov	w20, #0xfffffffb            	// #-5
   52900:	17ffffeb 	b	528ac <psci_cpu_on_start+0x108>

0000000000052904 <psci_cpu_on_finish>:
   52904:	a9bd7bfd 	stp	x29, x30, [sp, #-48]!
   52908:	910003fd 	mov	x29, sp
   5290c:	a9025bf5 	stp	x21, x22, [sp, #32]
   52910:	900000b5 	adrp	x21, 66000 <psci_cpu_pd_nodes+0x20>
   52914:	a90153f3 	stp	x19, x20, [sp, #16]
   52918:	2a0003f3 	mov	w19, w0
   5291c:	aa0103f4 	mov	x20, x1
   52920:	f94022a0 	ldr	x0, [x21, #64]
   52924:	f9401401 	ldr	x1, [x0, #40]
   52928:	aa1403e0 	mov	x0, x20
   5292c:	d63f0020 	blr	x1
   52930:	94002d92 	bl	5df78 <psci_do_pwrup_cache_maintenance>
   52934:	f94022a0 	ldr	x0, [x21, #64]
   52938:	f9401801 	ldr	x1, [x0, #48]
   5293c:	b4000061 	cbz	x1, 52948 <psci_cpu_on_finish+0x44>
   52940:	aa1403e0 	mov	x0, x20
   52944:	d63f0020 	blr	x1
   52948:	d2800194 	mov	x20, #0xc                   	// #12
   5294c:	f0000095 	adrp	x21, 65000 <__STACKS_START__+0x2f80>
   52950:	8b335294 	add	x20, x20, w19, uxtw #4
   52954:	913f82b5 	add	x21, x21, #0xfe0
   52958:	8b150294 	add	x20, x20, x21
   5295c:	94000020 	bl	529dc <psci_arch_setup>
   52960:	aa1403e0 	mov	x0, x20
   52964:	94002d6c 	bl	5df14 <spin_lock>
   52968:	aa1403e0 	mov	x0, x20
   5296c:	94002d72 	bl	5df34 <spin_unlock>
   52970:	900000a0 	adrp	x0, 66000 <psci_cpu_pd_nodes+0x20>
   52974:	f9402400 	ldr	x0, [x0, #72]
   52978:	b40000a0 	cbz	x0, 5298c <psci_cpu_on_finish+0x88>
   5297c:	f9400c01 	ldr	x1, [x0, #24]
   52980:	b4000061 	cbz	x1, 5298c <psci_cpu_on_finish+0x88>
   52984:	d2800000 	mov	x0, #0x0                   	// #0
   52988:	d63f0020 	blr	x1
   5298c:	d0000074 	adrp	x20, 60000 <version_string+0x6c>
   52990:	d0000076 	adrp	x22, 60000 <version_string+0x6c>
   52994:	9112c294 	add	x20, x20, #0x4b0
   52998:	9112c2d6 	add	x22, x22, #0x4b0
   5299c:	eb16029f 	cmp	x20, x22
   529a0:	54000163 	b.cc	529cc <psci_cpu_on_finish+0xc8>  // b.lo, b.ul, b.last
   529a4:	d53800a1 	mrs	x1, mpidr_el1
   529a8:	d37c7e73 	ubfiz	x19, x19, #4, #32
   529ac:	92409c21 	and	x1, x1, #0xffffffffff
   529b0:	9260dc21 	and	x1, x1, #0xffffffff00ffffff
   529b4:	52800020 	mov	w0, #0x1                   	// #1
   529b8:	f8336aa1 	str	x1, [x21, x19]
   529bc:	a94153f3 	ldp	x19, x20, [sp, #16]
   529c0:	a9425bf5 	ldp	x21, x22, [sp, #32]
   529c4:	a8c37bfd 	ldp	x29, x30, [sp], #48
   529c8:	17fffb5a 	b	51730 <cm_prepare_el3_exit>
   529cc:	f8408681 	ldr	x1, [x20], #8
   529d0:	d2800000 	mov	x0, #0x0                   	// #0
   529d4:	d63f0020 	blr	x1
   529d8:	17fffff1 	b	5299c <psci_cpu_on_finish+0x98>

00000000000529dc <psci_arch_setup>:
   529dc:	a9bf7bfd 	stp	x29, x30, [sp, #-16]!
   529e0:	910003fd 	mov	x29, sp
   529e4:	940001df 	bl	53160 <plat_get_syscnt_freq2>
   529e8:	2a0003e0 	mov	w0, w0
   529ec:	d51be000 	msr	cntfrq_el0, x0
   529f0:	a8c17bfd 	ldp	x29, x30, [sp], #16
   529f4:	14002c9e 	b	5dc6c <init_cpu_ops>

00000000000529f8 <psci_setup>:
   529f8:	a9b87bfd 	stp	x29, x30, [sp, #-128]!
   529fc:	910003fd 	mov	x29, sp
   52a00:	a90153f3 	stp	x19, x20, [sp, #16]
   52a04:	f0000094 	adrp	x20, 65000 <__STACKS_START__+0x2f80>
   52a08:	91088294 	add	x20, x20, #0x220
   52a0c:	a9025bf5 	stp	x21, x22, [sp, #32]
   52a10:	aa0003f5 	mov	x21, x0
   52a14:	52800016 	mov	w22, #0x0                   	// #0
   52a18:	a90363f7 	stp	x23, x24, [sp, #48]
   52a1c:	52800017 	mov	w23, #0x0                   	// #0
   52a20:	52800058 	mov	w24, #0x2                   	// #2
   52a24:	a9046bf9 	stp	x25, x26, [sp, #64]
   52a28:	a90573fb 	stp	x27, x28, [sp, #80]
   52a2c:	97ffffec 	bl	529dc <psci_arch_setup>
   52a30:	94000367 	bl	537cc <plat_get_power_domain_tree_desc>
   52a34:	f000009c 	adrp	x28, 65000 <__STACKS_START__+0x2f80>
   52a38:	aa0003e3 	mov	x3, x0
   52a3c:	913f839c 	add	x28, x28, #0xfe0
   52a40:	52800001 	mov	w1, #0x0                   	// #0
   52a44:	5280003b 	mov	w27, #0x1                   	// #1
   52a48:	0b160364 	add	w4, w27, w22
   52a4c:	5280001b 	mov	w27, #0x0                   	// #0
   52a50:	1400000e 	b	52a88 <psci_setup+0x90>
   52a54:	3876487a 	ldrb	w26, [x3, w22, uxtw]
   52a58:	2a1703f9 	mov	w25, w23
   52a5c:	510006c5 	sub	w5, w22, #0x1
   52a60:	2b170341 	adds	w1, w26, w23
   52a64:	1a9f37e0 	cset	w0, cs  // cs = hs, nlast
   52a68:	6b01033f 	cmp	w25, w1
   52a6c:	540001e3 	b.cc	52aa8 <psci_setup+0xb0>  // b.lo, b.ul, b.last
   52a70:	7100001f 	cmp	w0, #0x0
   52a74:	0b1a037b 	add	w27, w27, w26
   52a78:	1a9f0341 	csel	w1, w26, wzr, eq  // eq = none
   52a7c:	110006d6 	add	w22, w22, #0x1
   52a80:	0b170021 	add	w1, w1, w23
   52a84:	2a0103f7 	mov	w23, w1
   52a88:	6b0402df 	cmp	w22, w4
   52a8c:	54fffe41 	b.ne	52a54 <psci_setup+0x5c>  // b.any
   52a90:	71000718 	subs	w24, w24, #0x1
   52a94:	540005c0 	b.eq	52b4c <psci_setup+0x154>  // b.none
   52a98:	3100071f 	cmn	w24, #0x1
   52a9c:	540005c0 	b.eq	52b54 <psci_setup+0x15c>  // b.none
   52aa0:	2a0403f6 	mov	w22, w4
   52aa4:	17ffffe9 	b	52a48 <psci_setup+0x50>
   52aa8:	12003f33 	and	w19, w25, #0xffff
   52aac:	340001b8 	cbz	w24, 52ae0 <psci_setup+0xe8>
   52ab0:	f0000261 	adrp	x1, a1000 <psci_locks>
   52ab4:	91015021 	add	x1, x1, #0x54
   52ab8:	8b33d033 	add	x19, x1, w19, sxtw #4
   52abc:	d37c3f20 	ubfiz	x0, x25, #4, #16
   52ac0:	8b010001 	add	x1, x0, x1
   52ac4:	52800040 	mov	w0, #0x2                   	// #2
   52ac8:	39003678 	strb	w24, [x19, #13]
   52acc:	79001c39 	strh	w25, [x1, #14]
   52ad0:	b9000a65 	str	w5, [x19, #8]
   52ad4:	39003260 	strb	w0, [x19, #12]
   52ad8:	11000739 	add	w25, w25, #0x1
   52adc:	17ffffe1 	b	52a60 <psci_setup+0x68>
   52ae0:	8b33d381 	add	x1, x28, w19, sxtw #4
   52ae4:	937c7e60 	sbfiz	x0, x19, #4, #32
   52ae8:	f90033e3 	str	x3, [sp, #96]
   52aec:	290d13e5 	stp	w5, w4, [sp, #104]
   52af0:	b9000825 	str	w5, [x1, #8]
   52af4:	92800001 	mov	x1, #0xffffffffffffffff    	// #-1
   52af8:	f8206b81 	str	x1, [x28, x0]
   52afc:	2a1303e0 	mov	w0, w19
   52b00:	94002cff 	bl	5defc <_cpu_data_by_index>
   52b04:	aa0003e1 	mov	x1, x0
   52b08:	91006000 	add	x0, x0, #0x18
   52b0c:	52800022 	mov	w2, #0x1                   	// #1
   52b10:	b9001822 	str	w2, [x1, #24]
   52b14:	52800061 	mov	w1, #0x3                   	// #3
   52b18:	b9000401 	str	w1, [x0, #4]
   52b1c:	52800041 	mov	w1, #0x2                   	// #2
   52b20:	39002001 	strb	w1, [x0, #8]
   52b24:	d2800181 	mov	x1, #0xc                   	// #12
   52b28:	94002d60 	bl	5e0a8 <flush_dcache_range>
   52b2c:	52804601 	mov	w1, #0x230                 	// #560
   52b30:	2a1303e0 	mov	w0, w19
   52b34:	52800022 	mov	w2, #0x1                   	// #1
   52b38:	9ba15261 	umaddl	x1, w19, w1, x20
   52b3c:	97fff55d 	bl	500b0 <cm_set_context_by_index>
   52b40:	294d13e5 	ldp	w5, w4, [sp, #104]
   52b44:	f94033e3 	ldr	x3, [sp, #96]
   52b48:	17ffffe4 	b	52ad8 <psci_setup+0xe0>
   52b4c:	52800017 	mov	w23, #0x0                   	// #0
   52b50:	17ffffd4 	b	52aa0 <psci_setup+0xa8>
   52b54:	d00000a0 	adrp	x0, 68000 <dist_ctx+0x1e98>
   52b58:	f0000274 	adrp	x20, a1000 <psci_locks>
   52b5c:	91314016 	add	x22, x0, #0xc50
   52b60:	91015294 	add	x20, x20, #0x54
   52b64:	b90c5001 	str	w1, [x0, #3152]
   52b68:	52800018 	mov	w24, #0x0                   	// #0
   52b6c:	52800017 	mov	w23, #0x0                   	// #0
   52b70:	52800013 	mov	w19, #0x0                   	// #0
   52b74:	b94002c0 	ldr	w0, [x22]
   52b78:	6b00027f 	cmp	w19, w0
   52b7c:	54000ac3 	b.cc	52cd4 <psci_setup+0x2dc>  // b.lo, b.ul, b.last
   52b80:	d53800b3 	mrs	x19, mpidr_el1
   52b84:	94002d21 	bl	5e008 <plat_my_core_pos>
   52b88:	d37c7c00 	ubfiz	x0, x0, #4, #32
   52b8c:	f0000082 	adrp	x2, 65000 <__STACKS_START__+0x2f80>
   52b90:	913f8042 	add	x2, x2, #0xfe0
   52b94:	92409e61 	and	x1, x19, #0xffffffffff
   52b98:	900000b3 	adrp	x19, 66000 <psci_cpu_pd_nodes+0x20>
   52b9c:	9260dc21 	and	x1, x1, #0xffffffff00ffffff
   52ba0:	91010274 	add	x20, x19, #0x40
   52ba4:	f8206841 	str	x1, [x2, x0]
   52ba8:	97fffb9e 	bl	51a20 <psci_init_req_local_pwr_states>
   52bac:	52800040 	mov	w0, #0x2                   	// #2
   52bb0:	97fffbe8 	bl	51b50 <psci_set_pwr_domains_to_run>
   52bb4:	f94006a0 	ldr	x0, [x21, #8]
   52bb8:	aa1403e1 	mov	x1, x20
   52bbc:	940002fa 	bl	537a4 <plat_setup_psci_ops>
   52bc0:	aa1403e0 	mov	x0, x20
   52bc4:	d2800101 	mov	x1, #0x8                   	// #8
   52bc8:	94002d38 	bl	5e0a8 <flush_dcache_range>
   52bcc:	f9402261 	ldr	x1, [x19, #64]
   52bd0:	52808223 	mov	w3, #0x411                 	// #1041
   52bd4:	d00000a0 	adrp	x0, 68000 <dist_ctx+0x1e98>
   52bd8:	f9400822 	ldr	x2, [x1, #16]
   52bdc:	f100005f 	cmp	x2, #0x0
   52be0:	528082a2 	mov	w2, #0x415                 	// #1045
   52be4:	1a831042 	csel	w2, w2, w3, ne  // ne = any
   52be8:	b90c5402 	str	w2, [x0, #3156]
   52bec:	f9400423 	ldr	x3, [x1, #8]
   52bf0:	b40000a3 	cbz	x3, 52c04 <psci_setup+0x20c>
   52bf4:	f9401423 	ldr	x3, [x1, #40]
   52bf8:	b4000063 	cbz	x3, 52c04 <psci_setup+0x20c>
   52bfc:	321d0042 	orr	w2, w2, #0x8
   52c00:	b90c5402 	str	w2, [x0, #3156]
   52c04:	f9401022 	ldr	x2, [x1, #32]
   52c08:	b4000162 	cbz	x2, 52c34 <psci_setup+0x23c>
   52c0c:	f9401c22 	ldr	x2, [x1, #56]
   52c10:	b4000122 	cbz	x2, 52c34 <psci_setup+0x23c>
   52c14:	f9403424 	ldr	x4, [x1, #104]
   52c18:	52880045 	mov	w5, #0x4002                	// #16386
   52c1c:	b94c5402 	ldr	w2, [x0, #3156]
   52c20:	f100009f 	cmp	x4, #0x0
   52c24:	321f0043 	orr	w3, w2, #0x2
   52c28:	2a050042 	orr	w2, w2, w5
   52c2c:	1a831042 	csel	w2, w2, w3, ne  // ne = any
   52c30:	b90c5402 	str	w2, [x0, #3156]
   52c34:	f9402422 	ldr	x2, [x1, #72]
   52c38:	b4000082 	cbz	x2, 52c48 <psci_setup+0x250>
   52c3c:	b94c5402 	ldr	w2, [x0, #3156]
   52c40:	32180042 	orr	w2, w2, #0x100
   52c44:	b90c5402 	str	w2, [x0, #3156]
   52c48:	f9402822 	ldr	x2, [x1, #80]
   52c4c:	b4000082 	cbz	x2, 52c5c <psci_setup+0x264>
   52c50:	b94c5402 	ldr	w2, [x0, #3156]
   52c54:	32170042 	orr	w2, w2, #0x200
   52c58:	b90c5402 	str	w2, [x0, #3156]
   52c5c:	f9404022 	ldr	x2, [x1, #128]
   52c60:	b4000082 	cbz	x2, 52c70 <psci_setup+0x278>
   52c64:	b94c5402 	ldr	w2, [x0, #3156]
   52c68:	32130042 	orr	w2, w2, #0x2000
   52c6c:	b90c5402 	str	w2, [x0, #3156]
   52c70:	f9404822 	ldr	x2, [x1, #144]
   52c74:	b40000c2 	cbz	x2, 52c8c <psci_setup+0x294>
   52c78:	f9404c22 	ldr	x2, [x1, #152]
   52c7c:	b4000082 	cbz	x2, 52c8c <psci_setup+0x294>
   52c80:	b94c5402 	ldr	w2, [x0, #3156]
   52c84:	320d0042 	orr	w2, w2, #0x80000
   52c88:	b90c5402 	str	w2, [x0, #3156]
   52c8c:	f9404422 	ldr	x2, [x1, #136]
   52c90:	b4000082 	cbz	x2, 52ca0 <psci_setup+0x2a8>
   52c94:	b94c5402 	ldr	w2, [x0, #3156]
   52c98:	320c0042 	orr	w2, w2, #0x100000
   52c9c:	b90c5402 	str	w2, [x0, #3156]
   52ca0:	f9405021 	ldr	x1, [x1, #160]
   52ca4:	b4000081 	cbz	x1, 52cb4 <psci_setup+0x2bc>
   52ca8:	b94c5401 	ldr	w1, [x0, #3156]
   52cac:	320e0021 	orr	w1, w1, #0x40000
   52cb0:	b90c5401 	str	w1, [x0, #3156]
   52cb4:	52800000 	mov	w0, #0x0                   	// #0
   52cb8:	a94153f3 	ldp	x19, x20, [sp, #16]
   52cbc:	a9425bf5 	ldp	x21, x22, [sp, #32]
   52cc0:	a94363f7 	ldp	x23, x24, [sp, #48]
   52cc4:	a9446bf9 	ldp	x25, x26, [sp, #64]
   52cc8:	a94573fb 	ldp	x27, x28, [sp, #80]
   52ccc:	a8c87bfd 	ldp	x29, x30, [sp], #128
   52cd0:	d65f03c0 	ret
   52cd4:	9101e3e2 	add	x2, sp, #0x78
   52cd8:	52800041 	mov	w1, #0x2                   	// #2
   52cdc:	2a1303e0 	mov	w0, w19
   52ce0:	97fffb8a 	bl	51b08 <psci_get_parent_pwr_domain_nodes>
   52ce4:	b9407fe2 	ldr	w2, [sp, #124]
   52ce8:	6b02031f 	cmp	w24, w2
   52cec:	2a0203e1 	mov	w1, w2
   52cf0:	54000060 	b.eq	52cfc <psci_setup+0x304>  // b.none
   52cf4:	d37cec20 	lsl	x0, x1, #4
   52cf8:	b8206a93 	str	w19, [x20, x0]
   52cfc:	8b011281 	add	x1, x20, x1, lsl #4
   52d00:	b9400420 	ldr	w0, [x1, #4]
   52d04:	11000400 	add	w0, w0, #0x1
   52d08:	b9000420 	str	w0, [x1, #4]
   52d0c:	b9407be0 	ldr	w0, [sp, #120]
   52d10:	6b0002ff 	cmp	w23, w0
   52d14:	2a0003e1 	mov	w1, w0
   52d18:	54000060 	b.eq	52d24 <psci_setup+0x32c>  // b.none
   52d1c:	d37cec23 	lsl	x3, x1, #4
   52d20:	b8236a93 	str	w19, [x20, x3]
   52d24:	8b011281 	add	x1, x20, x1, lsl #4
   52d28:	11000673 	add	w19, w19, #0x1
   52d2c:	2a0203f8 	mov	w24, w2
   52d30:	2a0003f7 	mov	w23, w0
   52d34:	b9400423 	ldr	w3, [x1, #4]
   52d38:	11000463 	add	w3, w3, #0x1
   52d3c:	b9000423 	str	w3, [x1, #4]
   52d40:	17ffff8d 	b	52b74 <psci_setup+0x17c>

0000000000052d44 <psci_cpu_suspend_start>:
   52d44:	a9b97bfd 	stp	x29, x30, [sp, #-112]!
   52d48:	910003fd 	mov	x29, sp
   52d4c:	a90153f3 	stp	x19, x20, [sp, #16]
   52d50:	2a0103f3 	mov	w19, w1
   52d54:	aa0203f4 	mov	x20, x2
   52d58:	a9025bf5 	stp	x21, x22, [sp, #32]
   52d5c:	2a0303f6 	mov	w22, w3
   52d60:	a90363f7 	stp	x23, x24, [sp, #48]
   52d64:	a9046bf9 	stp	x25, x26, [sp, #64]
   52d68:	aa0003f9 	mov	x25, x0
   52d6c:	94002ca7 	bl	5e008 <plat_my_core_pos>
   52d70:	910183e2 	add	x2, sp, #0x60
   52d74:	2a0003f8 	mov	w24, w0
   52d78:	2a1303e1 	mov	w1, w19
   52d7c:	f90033ff 	str	xzr, [sp, #96]
   52d80:	97fffb62 	bl	51b08 <psci_get_parent_pwr_domain_nodes>
   52d84:	910183e1 	add	x1, sp, #0x60
   52d88:	2a1303e0 	mov	w0, w19
   52d8c:	97fffc2d 	bl	51e40 <psci_acquire_pwr_domain_locks>
   52d90:	d538c100 	mrs	x0, isr_el1
   52d94:	b5000740 	cbnz	x0, 52e7c <psci_cpu_suspend_start+0x138>
   52d98:	aa1403e1 	mov	x1, x20
   52d9c:	2a1303e0 	mov	w0, w19
   52da0:	97fffb9a 	bl	51c08 <psci_do_state_coordination>
   52da4:	34000436 	cbz	w22, 52e28 <psci_cpu_suspend_start+0xe4>
   52da8:	aa1403e0 	mov	x0, x20
   52dac:	d0000075 	adrp	x21, 60000 <version_string+0x6c>
   52db0:	d000007a 	adrp	x26, 60000 <version_string+0x6c>
   52db4:	97fffc07 	bl	51dd0 <psci_find_max_off_lvl>
   52db8:	9112c2b5 	add	x21, x21, #0x4b0
   52dbc:	2a0003f7 	mov	w23, w0
   52dc0:	9112c35a 	add	x26, x26, #0x4b0
   52dc4:	eb1a02bf 	cmp	x21, x26
   52dc8:	54000523 	b.cc	52e6c <psci_cpu_suspend_start+0x128>  // b.lo, b.ul, b.last
   52dcc:	d53ed040 	mrs	x0, tpidr_el3
   52dd0:	b9001c13 	str	w19, [x0, #28]
   52dd4:	d53ed040 	mrs	x0, tpidr_el3
   52dd8:	d2800081 	mov	x1, #0x4                   	// #4
   52ddc:	91007000 	add	x0, x0, #0x1c
   52de0:	94002cb2 	bl	5e0a8 <flush_dcache_range>
   52de4:	900000a0 	adrp	x0, 66000 <psci_cpu_pd_nodes+0x20>
   52de8:	f9402400 	ldr	x0, [x0, #72]
   52dec:	b40000a0 	cbz	x0, 52e00 <psci_cpu_suspend_start+0xbc>
   52df0:	f9400801 	ldr	x1, [x0, #16]
   52df4:	b4000061 	cbz	x1, 52e00 <psci_cpu_suspend_start+0xbc>
   52df8:	2a1703e0 	mov	w0, w23
   52dfc:	d63f0020 	blr	x1
   52e00:	900000a0 	adrp	x0, 66000 <psci_cpu_pd_nodes+0x20>
   52e04:	f9402000 	ldr	x0, [x0, #64]
   52e08:	f9400c01 	ldr	x1, [x0, #24]
   52e0c:	b4000061 	cbz	x1, 52e18 <psci_cpu_suspend_start+0xd4>
   52e10:	aa1403e0 	mov	x0, x20
   52e14:	d63f0020 	blr	x1
   52e18:	aa1903e0 	mov	x0, x25
   52e1c:	97fffa13 	bl	51668 <cm_init_my_context>
   52e20:	2a1703e0 	mov	w0, w23
   52e24:	97fffcbb 	bl	52110 <psci_do_pwrdown_sequence>
   52e28:	900000a0 	adrp	x0, 66000 <psci_cpu_pd_nodes+0x20>
   52e2c:	52800015 	mov	w21, #0x0                   	// #0
   52e30:	f9402000 	ldr	x0, [x0, #64]
   52e34:	f9401001 	ldr	x1, [x0, #32]
   52e38:	aa1403e0 	mov	x0, x20
   52e3c:	d63f0020 	blr	x1
   52e40:	910183e1 	add	x1, sp, #0x60
   52e44:	2a1303e0 	mov	w0, w19
   52e48:	97fffc1a 	bl	51eb0 <psci_release_pwr_domain_locks>
   52e4c:	35000495 	cbnz	w21, 52edc <psci_cpu_suspend_start+0x198>
   52e50:	900000b5 	adrp	x21, 66000 <psci_cpu_pd_nodes+0x20>
   52e54:	340001b6 	cbz	w22, 52e88 <psci_cpu_suspend_start+0x144>
   52e58:	f94022a0 	ldr	x0, [x21, #64]
   52e5c:	f9402001 	ldr	x1, [x0, #64]
   52e60:	b4000121 	cbz	x1, 52e84 <psci_cpu_suspend_start+0x140>
   52e64:	aa1403e0 	mov	x0, x20
   52e68:	d63f0020 	blr	x1
   52e6c:	f84086a1 	ldr	x1, [x21], #8
   52e70:	d2800000 	mov	x0, #0x0                   	// #0
   52e74:	d63f0020 	blr	x1
   52e78:	17ffffd3 	b	52dc4 <psci_cpu_suspend_start+0x80>
   52e7c:	52800035 	mov	w21, #0x1                   	// #1
   52e80:	17fffff0 	b	52e40 <psci_cpu_suspend_start+0xfc>
   52e84:	94002c4a 	bl	5dfac <psci_power_down_wfi>
   52e88:	d503207f 	wfi
   52e8c:	9101a3e2 	add	x2, sp, #0x68
   52e90:	2a1303e1 	mov	w1, w19
   52e94:	2a1803e0 	mov	w0, w24
   52e98:	f90037ff 	str	xzr, [sp, #104]
   52e9c:	97fffb1b 	bl	51b08 <psci_get_parent_pwr_domain_nodes>
   52ea0:	9101a3e1 	add	x1, sp, #0x68
   52ea4:	2a1303e0 	mov	w0, w19
   52ea8:	97fffbe6 	bl	51e40 <psci_acquire_pwr_domain_locks>
   52eac:	910163e1 	add	x1, sp, #0x58
   52eb0:	2a1303e0 	mov	w0, w19
   52eb4:	97fffaf1 	bl	51a78 <psci_get_target_local_pwr_states>
   52eb8:	f94022a0 	ldr	x0, [x21, #64]
   52ebc:	f9401c01 	ldr	x1, [x0, #56]
   52ec0:	910163e0 	add	x0, sp, #0x58
   52ec4:	d63f0020 	blr	x1
   52ec8:	2a1303e0 	mov	w0, w19
   52ecc:	97fffb21 	bl	51b50 <psci_set_pwr_domains_to_run>
   52ed0:	9101a3e1 	add	x1, sp, #0x68
   52ed4:	2a1303e0 	mov	w0, w19
   52ed8:	97fffbf6 	bl	51eb0 <psci_release_pwr_domain_locks>
   52edc:	a94153f3 	ldp	x19, x20, [sp, #16]
   52ee0:	a9425bf5 	ldp	x21, x22, [sp, #32]
   52ee4:	a94363f7 	ldp	x23, x24, [sp, #48]
