
/home/mohit/ws/arm-trusted-firmware/build/rk3399/release/bl31/bl31.elf:     file format elf64-littleaarch64
/home/mohit/ws/arm-trusted-firmware/build/rk3399/release/bl31/bl31.elf
architecture: aarch64, flags 0x00000112:
EXEC_P, HAS_SYMS, D_PAGED
start address 0x0000000000040000

Program Header:
    LOAD off    0x0000000000010000 vaddr 0x0000000000040000 paddr 0x0000000000040000 align 2**16
         filesz 0x0000000000022062 memsz 0x0000000000062000 flags rwx
    LOAD off    0x0000000000040000 vaddr 0x00000000ff3b0000 paddr 0x00000000ff3b0000 align 2**16
         filesz 0x0000000000001f54 memsz 0x0000000000001f54 flags rwx
    LOAD off    0x0000000000050000 vaddr 0x00000000ff8c0000 paddr 0x00000000ff8c0000 align 2**16
         filesz 0x0000000000002000 memsz 0x0000000000003000 flags rwx
   STACK off    0x0000000000000000 vaddr 0x0000000000000000 paddr 0x0000000000000000 align 2**4
         filesz 0x0000000000000000 memsz 0x0000000000000000 flags rw-
private flags = 0:

Sections:
Idx Name          Size      VMA               LMA               File off  Algn
  0 .incbin_sram  00001000  00000000ff8c0000  00000000ff8c0000  00050000  2**12
                  CONTENTS, ALLOC, LOAD, READONLY, DATA
  1 .comment      0000002a  0000000000000000  0000000000000000  00052000  2**0
                  CONTENTS, READONLY
  2 .text_sram    00001000  00000000ff8c1000  00000000ff8c1000  00051000  2**12
                  CONTENTS, ALLOC, LOAD, READONLY, CODE
  3 .data_sram    00000000  00000000ff8c2000  00000000ff8c2000  00053000  2**12
                  CONTENTS
  4 .stack_sram   00001000  00000000ff8c2000  00000000ff8c2000  00052000  2**12
                  ALLOC
  5 .pmusram      00001f54  00000000ff3b0000  00000000ff3b0000  00040000  2**4
                  CONTENTS, ALLOC, LOAD, CODE
  6 ro            00022000  0000000000040000  0000000000040000  00010000  2**16
                  CONTENTS, ALLOC, LOAD, CODE
  7 .data         00000062  0000000000062000  0000000000062000  00032000  2**3
                  CONTENTS, ALLOC, LOAD, DATA
  8 stacks        00003000  0000000000062080  0000000000062080  00032062  2**6
                  ALLOC
  9 .bss          00027b80  0000000000065080  0000000000065080  00032062  2**6
                  ALLOC
 10 xlat_table    00014000  000000000008d000  000000000008d000  00032062  2**12
                  ALLOC
 11 coherent_ram  00001000  00000000000a1000  00000000000a1000  00032062  2**12
                  ALLOC
 12 .debug_frame  00000f50  0000000000000000  0000000000000000  00053000  2**3
                  CONTENTS, READONLY, DEBUGGING, OCTETS
SYMBOL TABLE:
00000000ff8c0000 l    d  .incbin_sram	0000000000000000 .incbin_sram
0000000000000000 l    d  .comment	0000000000000000 .comment
00000000ff8c1000 l    d  .text_sram	0000000000000000 .text_sram
00000000ff8c2000 l    d  .data_sram	0000000000000000 .data_sram
00000000ff8c2000 l    d  .stack_sram	0000000000000000 .stack_sram
00000000ff3b0000 l    d  .pmusram	0000000000000000 .pmusram
0000000000040000 l    d  ro	0000000000000000 ro
0000000000062000 l    d  .data	0000000000000000 .data
0000000000062080 l    d  stacks	0000000000000000 stacks
0000000000065080 l    d  .bss	0000000000000000 .bss
000000000008d000 l    d  xlat_table	0000000000000000 xlat_table
00000000000a1000 l    d  coherent_ram	0000000000000000 coherent_ram
0000000000000000 l    d  .debug_frame	0000000000000000 .debug_frame
0000000000000000 l    df *ABS*	0000000000000000 pmu_fw.c
0000000000000000 l    df *ABS*	0000000000000000 
0000000000000000 l    df *ABS*	0000000000000000 /home/mohit/ws/arm-trusted-firmware/build/rk3399/release/bl31/plat_helpers.o
00000000ff8c102c l       .text_sram	0000000000000000 check_ddrc0_1_sref_enter
00000000ff8c1068 l       .text_sram	0000000000000000 check_ddrc0_1_sref_exit
000000000005dff8 l       ro	0000000000000000 handler_a72
000000000005e004 l       ro	0000000000000000 handler_end
0000000000050038 l       ro	0000000000000000 clst_warmboot_end
0000000000050060 l       ro	0000000000000000 boot_entry
0000000000050058 l       ro	0000000000000000 wfe_loop
0000000000000000 l    df *ABS*	0000000000000000 /home/mohit/ws/arm-trusted-firmware/build/rk3399/release/bl31/pmu_sram_cpus_on.o
00000000ff3b0000 l       .pmusram	0000000000000000 ddr_resume
00000000ff3b0010 l       .pmusram	0000000000000000 sys_resume
0000000000000000 l    df *ABS*	0000000000000000 suspend.c
00000000ff3b0058 l     F .pmusram	0000000000000024 sram_regcpy
0000000000058620 l     F ro	0000000000000024 dram_regcpy
00000000ff3b007c l     F .pmusram	0000000000000030 sram_udelay
00000000ff3b00ac l     F .pmusram	0000000000000048 rkclk_ddr_reset
00000000ff3b00f4 l     F .pmusram	0000000000000054 select_per_cs_training_index
00000000ff3b0148 l     F .pmusram	00000000000004f8 data_training.constprop.0
0000000000000000 l    df *ABS*	0000000000000000 secure.c
0000000000000000 l    df *ABS*	0000000000000000 soc.c
000000000005c778 l     F ro	0000000000000078 restore_pll.constprop.0
0000000000069a04 l     O .bss	0000000000000158 slp_data
0000000000000000 l    df *ABS*	0000000000000000 dram.c
0000000000000000 l    df *ABS*	0000000000000000 /home/mohit/ws/arm-trusted-firmware/build/rk3399/release/bl31/bl31_entrypoint.o
0000000000000000 l    df *ABS*	0000000000000000 bl31_context_mgmt.c
0000000000000000 l    df *ABS*	0000000000000000 bl31_main.c
0000000000065f40 l     O .bss	0000000000000008 bl32_init
0000000000062028 l     O .data	0000000000000004 next_image_type
000000000005fa88 l     O ro	0000000000000010 psci_args.3041
0000000000000000 l    df *ABS*	0000000000000000 interrupt_mgmt.c
0000000000065f48 l     O .bss	0000000000000060 intr_type_descs
0000000000000000 l    df *ABS*	0000000000000000 runtime_svc.c
0000000000000000 l    df *ABS*	0000000000000000 cci.c
0000000000065fa8 l     O .bss	0000000000000008 cci_base
0000000000065fb0 l     O .bss	0000000000000008 cci_slave_if_map
0000000000000000 l    df *ABS*	0000000000000000 arm_gicv3_common.c
0000000000000000 l    df *ABS*	0000000000000000 gic-x00.c
0000000000000000 l    df *ABS*	0000000000000000 gicdv3_helpers.c
0000000000000000 l    df *ABS*	0000000000000000 gicrv3_helpers.c
0000000000000000 l    df *ABS*	0000000000000000 gicv3_helpers.c
0000000000000000 l    df *ABS*	0000000000000000 gicv3_main.c
0000000000050aac l     F ro	000000000000000c gicd_wait_for_pending_write
0000000000050aac l     F ro	000000000000000c gicr_wait_for_upstream_pending_write
0000000000050ab8 l     F ro	000000000000000c gicr_wait_for_pending_write
0000000000000000 l    df *ABS*	0000000000000000 delay_timer.c
0000000000065fc0 l     O .bss	0000000000000008 timer_ops
0000000000000000 l    df *ABS*	0000000000000000 generic_delay_timer.c
00000000000513d0 l     F ro	000000000000000c get_timer_value
0000000000065fc8 l     O .bss	0000000000000010 ops
0000000000000000 l    df *ABS*	0000000000000000 gpio.c
0000000000065fd8 l     O .bss	0000000000000008 ops
0000000000000000 l    df *ABS*	0000000000000000 context_mgmt.c
0000000000000000 l    df *ABS*	0000000000000000 spe.c
000000000005180c l     F ro	0000000000000030 spe_drain_buffers_hook
0000000000000000 l    df *ABS*	0000000000000000 bakery_lock_coherent.c
0000000000000000 l    df *ABS*	0000000000000000 psci_common.c
0000000000069be0 l     O .bss	000000000000000c psci_req_local_pwr_states
0000000000000000 l    df *ABS*	0000000000000000 psci_main.c
0000000000000000 l    df *ABS*	0000000000000000 psci_mem_protect.c
0000000000000000 l    df *ABS*	0000000000000000 psci_off.c
0000000000000000 l    df *ABS*	0000000000000000 psci_on.c
0000000000000000 l    df *ABS*	0000000000000000 psci_setup.c
0000000000065220 l     O .bss	0000000000000d20 psci_ns_context
0000000000000000 l    df *ABS*	0000000000000000 psci_suspend.c
0000000000000000 l    df *ABS*	0000000000000000 psci_system_off.c
0000000000000000 l    df *ABS*	0000000000000000 plat_gicv3.c
00000000000600d9 l     O ro	0000000000000004 CSWTCH.11
0000000000000000 l    df *ABS*	0000000000000000 platform_common.c
000000000005fc54 l     O ro	0000000000000008 cci_map
0000000000000000 l    df *ABS*	0000000000000000 bl31_plat_setup.c
0000000000066050 l     O .bss	0000000000000058 bl32_ep_info
00000000000660a8 l     O .bss	0000000000000058 bl33_ep_info
0000000000066100 l     O .bss	0000000000000030 console.3033
0000000000000000 l    df *ABS*	0000000000000000 params_setup.c
0000000000053294 l     F ro	00000000000000d8 rk_aux_param_handler
0000000000069bec l     O .bss	0000000000020000 fdt_buffer
0000000000089bec l     O .bss	0000000000000001 suspend_apio
0000000000068c58 l     O .bss	0000000000000050 suspend_gpio
000000000006202c l     O .data	0000000000000008 poweroff_gpio
0000000000062034 l     O .data	0000000000000004 rk_uart_base
0000000000062038 l     O .data	0000000000000004 rk_uart_baudrate
000000000006203c l     O .data	0000000000000008 rst_gpio
0000000000000000 l    df *ABS*	0000000000000000 plat_pm.c
0000000000053758 l     F ro	000000000000000c rockchip_system_reset
0000000000053764 l     F ro	000000000000000c rockchip_system_poweroff
0000000000053788 l     F ro	000000000000001c rockchip_pd_pwr_down_wfi
0000000000066130 l     O .bss	0000000000000008 rockchip_sec_entrypoint
0000000000000000 l    df *ABS*	0000000000000000 plat_topology.c
0000000000000000 l    df *ABS*	0000000000000000 rockchip_gicv3.c
00000000000537f0 l     F ro	0000000000000004 plat_rockchip_mpidr_to_core_pos
000000000005fc60 l     O ro	0000000000000008 g01s_interrupt_props
0000000000000000 l    df *ABS*	0000000000000000 rockchip_sip_svc.c
00000000000603e0 l     O ro	0000000000000020 __svc_desc_rockchip_sip_svc
0000000000000000 l    df *ABS*	0000000000000000 dfs.c
00000000000538e8 l     F ro	0000000000000068 get_rdlat_adj
0000000000053950 l     F ro	0000000000000068 get_wrlat_adj
00000000000539b8 l     F ro	0000000000000074 get_pi_rdlat_adj
0000000000053a2c l     F ro	00000000000000d8 gen_rk3399_set_odt
0000000000053b04 l     F ro	000000000000003c to_get_clk_index
0000000000053b40 l     F ro	0000000000000050 get_pi_wrlat.isra.0.part.0
0000000000053b90 l     F ro	000000000000003c get_pi_todtoff_min.isra.0
0000000000053bcc l     F ro	0000000000000030 get_pi_todtoff_max.isra.0
0000000000053bfc l     F ro	00000000000000c8 get_pi_tdfi_phy_rdlat.isra.0
0000000000053cc4 l     F ro	0000000000000038 get_pi_wrlat_adj.constprop.0
0000000000053cfc l     F ro	0000000000002628 prepare_ddr_timing
0000000000068cac l     O .bss	0000000000000004 rddqs_delay_ps
0000000000068cb0 l     O .bss	0000000000000088 rk3399_dram_status
0000000000068d38 l     O .bss	000000000000000c rk3399_suspend_status
0000000000068d44 l     O .bss	0000000000000040 wrdqs_delay_val
000000000005fcc8 l     O ro	00000000000000fc dpll_rates_table
0000000000000000 l    df *ABS*	0000000000000000 dram_spec_timing.c
00000000000570b4 l     F ro	000000000000004c get_max_die_capability
000000000006018d l     O ro	000000000000009a ddr3_cl_cwl
000000000005ff4a l     O ro	000000000000002c ddr3_trc_tfaw
0000000000000000 l    df *ABS*	0000000000000000 rk3399_gpio.c
000000000005884c l     F ro	0000000000000090 gpio_get_clock
0000000000058950 l     F ro	00000000000000c4 get_pull
0000000000058a14 l     F ro	00000000000000f0 set_pull
0000000000058b04 l     F ro	000000000000006c set_value
0000000000058b70 l     F ro	0000000000000058 get_value
0000000000058bc8 l     F ro	0000000000000064 set_direction
0000000000058c2c l     F ro	000000000000005c get_direction
0000000000068de4 l     O .bss	0000000000000190 store_grf_gpio
0000000000000000 l    df *ABS*	0000000000000000 m0_ctl.c
0000000000000000 l    df *ABS*	0000000000000000 pmu.c
0000000000058fc0 l     F ro	0000000000000020 pmu_power_domain_st
0000000000058fe0 l     F ro	00000000000000ac pmu_power_domain_ctr
000000000005908c l     F ro	00000000000000a4 clst_pwr_domain_suspend
0000000000059130 l     F ro	0000000000000054 clst_pwr_domain_resume
0000000000059184 l     F ro	0000000000000094 pmu_bus_idle_req
0000000000059218 l     F ro	0000000000000138 pmu_set_power_domain
0000000000089bed l     O .bss	0000000000003000 store_sram
0000000000066168 l     O .bss	0000000000002720 dist_ctx
0000000000068f74 l     O .bss	0000000000000004 clk_ddrc_save
0000000000068f78 l     O .bss	0000000000000004 cpu_warm_boot_addr
0000000000068f7c l     O .bss	0000000000000004 gpio_2_4_clk_gate
0000000000068f80 l     O .bss	000000000000000c gpio_direction
0000000000068f8c l     O .bss	0000000000000030 iomux_status
0000000000068fbc l     O .bss	0000000000000004 pmu_powerdomain_state
00000000000693b0 l     O .bss	0000000000000030 pull_mode_status
0000000000068888 l     O .bss	0000000000000058 rdist_ctx
00000000000693e0 l     O .bss	0000000000000590 store_cru
0000000000069970 l     O .bss	0000000000000010 store_grf_ddrc_con
0000000000069980 l     O .bss	0000000000000004 store_grf_io_vsel
0000000000069984 l     O .bss	0000000000000004 store_grf_soc_con0
0000000000069988 l     O .bss	0000000000000004 store_grf_soc_con1
000000000006998c l     O .bss	0000000000000004 store_grf_soc_con2
0000000000069990 l     O .bss	0000000000000004 store_grf_soc_con3
0000000000069994 l     O .bss	0000000000000004 store_grf_soc_con4
0000000000069998 l     O .bss	0000000000000004 store_grf_soc_con7
000000000006999c l     O .bss	000000000000001c store_usbphy0
00000000000699b8 l     O .bss	000000000000001c store_usbphy1
00000000000699d4 l     O .bss	0000000000000008 store_wdt0
00000000000699dc l     O .bss	0000000000000008 store_wdt1
00000000000699e4 l     O .bss	0000000000000018 uart_save
000000000006025c l     O ro	0000000000000010 __func__.4186
000000000006026c l     O ro	0000000000000020 __func__.4408
000000000006028c l     O ro	000000000000001f __func__.4417
00000000000a10b4 l     O coherent_ram	0000000000000018 core_pm_cfg_info
0000000000000000 l    df *ABS*	0000000000000000 pwm.c
00000000000699fc l     O .bss	0000000000000008 pwm_data
0000000000000000 l    df *ABS*	0000000000000000 plat_sip_calls.c
00000000000602ca l     O ro	000000000000001a __func__.2898
0000000000000000 l    df *ABS*	0000000000000000 arm_arch_svc_setup.c
000000000005cca4 l     F ro	0000000000000120 arm_arch_svc_smc_handler
0000000000060400 l     O ro	0000000000000020 __svc_desc_arm_arch_svc
0000000000000000 l    df *ABS*	0000000000000000 std_svc_setup.c
000000000005cdc4 l     F ro	0000000000000024 std_svc_setup
000000000005cde8 l     F ro	00000000000000a4 std_svc_smc_handler
0000000000060420 l     O ro	0000000000000020 __svc_desc_std_svc
0000000000000000 l    df *ABS*	0000000000000000 bl_common.c
0000000000000000 l    df *ABS*	0000000000000000 tf_log.c
0000000000062058 l     O .data	0000000000000004 max_log_level
0000000000000000 l    df *ABS*	0000000000000000 multi_console.c
0000000000000000 l    df *ABS*	0000000000000000 plat_bl_common.c
0000000000000000 l    df *ABS*	0000000000000000 plat_log_common.c
000000000005fc00 l     O ro	0000000000000028 plat_prefix_str
0000000000000000 l    df *ABS*	0000000000000000 plat_common.c
0000000000000000 l    df *ABS*	0000000000000000 desc_image_load.c
0000000000000000 l    df *ABS*	0000000000000000 bl_aux_params.c
0000000000000000 l    df *ABS*	0000000000000000 xlat_tables_common.c
000000000005d258 l     F ro	00000000000001e4 init_xlation_table_inner
000000000008d000 l     O xlat_table	0000000000014000 xlat_tables
00000000000688e8 l     O .bss	0000000000000008 ap1_mask
00000000000688f0 l     O .bss	0000000000000008 execute_never_mask
00000000000688f8 l     O .bss	0000000000000340 mmap
0000000000069b5c l     O .bss	0000000000000004 next_xlat
0000000000068c38 l     O .bss	0000000000000008 xlat_max_pa
0000000000068c40 l     O .bss	0000000000000008 xlat_max_va
0000000000000000 l    df *ABS*	0000000000000000 xlat_tables.c
0000000000065200 l     O .bss	0000000000000020 base_xlation_table
0000000000068c48 l     O .bss	0000000000000008 tcr_ps_bits
0000000000000000 l    df *ABS*	0000000000000000 plat_psci_common.c
0000000000000000 l    df *ABS*	0000000000000000 /home/mohit/ws/arm-trusted-firmware/build/rk3399/release/bl31/crash_reporting.o
0000000000000000 l    df *ABS*	0000000000000000 /home/mohit/ws/arm-trusted-firmware/build/rk3399/release/bl31/ea_delegate.o
0000000000000008 l       *ABS*	0000000000000000 CPU_MIDR_SIZE
0000000000000008 l       *ABS*	0000000000000000 CPU_EXTRA1_FUNC_SIZE
0000000000000008 l       *ABS*	0000000000000000 CPU_EXTRA2_FUNC_SIZE
0000000000000008 l       *ABS*	0000000000000000 CPU_E_HANDLER_FUNC_SIZE
0000000000000008 l       *ABS*	0000000000000000 CPU_RESET_FUNC_SIZE
0000000000000010 l       *ABS*	0000000000000000 CPU_PWR_DWN_OPS_SIZE
0000000000000000 l       *ABS*	0000000000000000 CPU_ERRATA_FUNC_SIZE
0000000000000000 l       *ABS*	0000000000000000 CPU_ERRATA_LOCK_SIZE
0000000000000000 l       *ABS*	0000000000000000 CPU_ERRATA_PRINTED_SIZE
0000000000000000 l       *ABS*	0000000000000000 CPU_REG_DUMP_SIZE
0000000000000000 l       *ABS*	0000000000000000 CPU_MIDR
0000000000000008 l       *ABS*	0000000000000000 CPU_RESET_FUNC
0000000000000010 l       *ABS*	0000000000000000 CPU_EXTRA1_FUNC
0000000000000018 l       *ABS*	0000000000000000 CPU_EXTRA2_FUNC
0000000000000020 l       *ABS*	0000000000000000 CPU_E_HANDLER_FUNC
0000000000000028 l       *ABS*	0000000000000000 CPU_PWR_DWN_OPS
0000000000000038 l       *ABS*	0000000000000000 CPU_ERRATA_FUNC
0000000000000038 l       *ABS*	0000000000000000 CPU_ERRATA_LOCK
0000000000000038 l       *ABS*	0000000000000000 CPU_ERRATA_PRINTED
0000000000000038 l       *ABS*	0000000000000000 CPU_REG_DUMP
0000000000000038 l       *ABS*	0000000000000000 CPU_OPS_SIZE
000000000005d7e4 l     F ro	0000000000000068 ea_proceed
000000000005d7dc l     F ro	0000000000000004 delegate_sync_ea
000000000005d7e0 l     F ro	0000000000000004 delegate_async_ea
0000000000000000 l    df *ABS*	0000000000000000 /home/mohit/ws/arm-trusted-firmware/build/rk3399/release/bl31/runtime_exceptions.o
0000000000060b90 l       ro	0000000000000000 exp_from_EL3
000000000005d84c l       ro	0000000000000000 smc_handler32
000000000005d850 l       ro	0000000000000000 smc_handler64
0000000000060cec l       ro	0000000000000000 interrupt_exit_irq_aarch64
0000000000060d6c l       ro	0000000000000000 interrupt_exit_fiq_aarch64
0000000000060eec l       ro	0000000000000000 interrupt_exit_irq_aarch32
0000000000060f6c l       ro	0000000000000000 interrupt_exit_fiq_aarch32
000000000005d84c l     F ro	0000000000000088 smc_handler
000000000005d8bc l       ro	0000000000000000 smc_prohibited
000000000005d8b0 l       ro	0000000000000000 smc_unknown
0000000000000000 l    df *ABS*	0000000000000000 /home/mohit/ws/arm-trusted-firmware/build/rk3399/release/bl31/16550_console.o
000000000005d93c l       ro	0000000000000000 init_fail
000000000005d998 l       ro	0000000000000000 register_fail
000000000005d960 l       ro	0000000000000000 register_16550
000000000005d9ec l       ro	0000000000000000 no_char
0000000000000000 l    df *ABS*	0000000000000000 /home/mohit/ws/arm-trusted-firmware/build/rk3399/release/bl31/cortex_a53.o
0000000000000008 l       *ABS*	0000000000000000 CPU_MIDR_SIZE
0000000000000008 l       *ABS*	0000000000000000 CPU_EXTRA1_FUNC_SIZE
0000000000000008 l       *ABS*	0000000000000000 CPU_EXTRA2_FUNC_SIZE
0000000000000008 l       *ABS*	0000000000000000 CPU_E_HANDLER_FUNC_SIZE
0000000000000008 l       *ABS*	0000000000000000 CPU_RESET_FUNC_SIZE
0000000000000010 l       *ABS*	0000000000000000 CPU_PWR_DWN_OPS_SIZE
0000000000000000 l       *ABS*	0000000000000000 CPU_ERRATA_FUNC_SIZE
0000000000000000 l       *ABS*	0000000000000000 CPU_ERRATA_LOCK_SIZE
0000000000000000 l       *ABS*	0000000000000000 CPU_ERRATA_PRINTED_SIZE
0000000000000000 l       *ABS*	0000000000000000 CPU_REG_DUMP_SIZE
0000000000000000 l       *ABS*	0000000000000000 CPU_MIDR
0000000000000008 l       *ABS*	0000000000000000 CPU_RESET_FUNC
0000000000000010 l       *ABS*	0000000000000000 CPU_EXTRA1_FUNC
0000000000000018 l       *ABS*	0000000000000000 CPU_EXTRA2_FUNC
0000000000000020 l       *ABS*	0000000000000000 CPU_E_HANDLER_FUNC
0000000000000028 l       *ABS*	0000000000000000 CPU_PWR_DWN_OPS
0000000000000038 l       *ABS*	0000000000000000 CPU_ERRATA_FUNC
0000000000000038 l       *ABS*	0000000000000000 CPU_ERRATA_LOCK
0000000000000038 l       *ABS*	0000000000000000 CPU_ERRATA_PRINTED
0000000000000038 l       *ABS*	0000000000000000 CPU_REG_DUMP
0000000000000038 l       *ABS*	0000000000000000 CPU_OPS_SIZE
000000000005da18 l     F ro	0000000000000014 cortex_a53_disable_dcache
000000000005da2c l     F ro	0000000000000018 cortex_a53_disable_smp
000000000005da44 l     F ro	000000000000001c a53_disable_non_temporal_hint
000000000005da60 l     F ro	0000000000000008 check_errata_disable_non_temporal_hint
000000000005da68 l     F ro	000000000000001c errata_a53_855873_wa
000000000005da84 l     F ro	0000000000000008 check_errata_855873
000000000005da8c l     F ro	0000000000000030 cortex_a53_reset_func
000000000005dabc l     F ro	0000000000000018 cortex_a53_core_pwr_dwn
000000000005dad4 l     F ro	0000000000000024 cortex_a53_cluster_pwr_dwn
0000000000000000 l    df *ABS*	0000000000000000 /home/mohit/ws/arm-trusted-firmware/build/rk3399/release/bl31/cortex_a72.o
0000000000000008 l       *ABS*	0000000000000000 CPU_MIDR_SIZE
0000000000000008 l       *ABS*	0000000000000000 CPU_EXTRA1_FUNC_SIZE
0000000000000008 l       *ABS*	0000000000000000 CPU_EXTRA2_FUNC_SIZE
0000000000000008 l       *ABS*	0000000000000000 CPU_E_HANDLER_FUNC_SIZE
0000000000000008 l       *ABS*	0000000000000000 CPU_RESET_FUNC_SIZE
0000000000000010 l       *ABS*	0000000000000000 CPU_PWR_DWN_OPS_SIZE
0000000000000000 l       *ABS*	0000000000000000 CPU_ERRATA_FUNC_SIZE
0000000000000000 l       *ABS*	0000000000000000 CPU_ERRATA_LOCK_SIZE
0000000000000000 l       *ABS*	0000000000000000 CPU_ERRATA_PRINTED_SIZE
0000000000000000 l       *ABS*	0000000000000000 CPU_REG_DUMP_SIZE
0000000000000000 l       *ABS*	0000000000000000 CPU_MIDR
0000000000000008 l       *ABS*	0000000000000000 CPU_RESET_FUNC
0000000000000010 l       *ABS*	0000000000000000 CPU_EXTRA1_FUNC
0000000000000018 l       *ABS*	0000000000000000 CPU_EXTRA2_FUNC
0000000000000020 l       *ABS*	0000000000000000 CPU_E_HANDLER_FUNC
0000000000000028 l       *ABS*	0000000000000000 CPU_PWR_DWN_OPS
0000000000000038 l       *ABS*	0000000000000000 CPU_ERRATA_FUNC
0000000000000038 l       *ABS*	0000000000000000 CPU_ERRATA_LOCK
0000000000000038 l       *ABS*	0000000000000000 CPU_ERRATA_PRINTED
0000000000000038 l       *ABS*	0000000000000000 CPU_REG_DUMP
0000000000000038 l       *ABS*	0000000000000000 CPU_OPS_SIZE
000000000005daf8 l     F ro	0000000000000014 cortex_a72_disable_dcache
000000000005db0c l     F ro	0000000000000020 cortex_a72_disable_l2_prefetch
000000000005db2c l     F ro	0000000000000018 cortex_a72_disable_hw_prefetcher
000000000005db44 l     F ro	0000000000000010 cortex_a72_disable_smp
000000000005db54 l     F ro	0000000000000014 cortex_a72_disable_ext_debug
000000000005db68 l     F ro	0000000000000020 check_errata_cve_2017_5715
000000000005db88 l     F ro	000000000000004c cortex_a72_reset_func
000000000005dbd4 l     F ro	0000000000000024 cortex_a72_core_pwr_dwn
000000000005dbf8 l     F ro	0000000000000030 cortex_a72_cluster_pwr_dwn
0000000000000000 l    df *ABS*	0000000000000000 /home/mohit/ws/arm-trusted-firmware/build/rk3399/release/bl31/cpu_helpers.o
0000000000000008 l       *ABS*	0000000000000000 CPU_MIDR_SIZE
0000000000000008 l       *ABS*	0000000000000000 CPU_EXTRA1_FUNC_SIZE
0000000000000008 l       *ABS*	0000000000000000 CPU_EXTRA2_FUNC_SIZE
0000000000000008 l       *ABS*	0000000000000000 CPU_E_HANDLER_FUNC_SIZE
0000000000000008 l       *ABS*	0000000000000000 CPU_RESET_FUNC_SIZE
0000000000000010 l       *ABS*	0000000000000000 CPU_PWR_DWN_OPS_SIZE
0000000000000000 l       *ABS*	0000000000000000 CPU_ERRATA_FUNC_SIZE
0000000000000000 l       *ABS*	0000000000000000 CPU_ERRATA_LOCK_SIZE
0000000000000000 l       *ABS*	0000000000000000 CPU_ERRATA_PRINTED_SIZE
0000000000000000 l       *ABS*	0000000000000000 CPU_REG_DUMP_SIZE
0000000000000000 l       *ABS*	0000000000000000 CPU_MIDR
0000000000000008 l       *ABS*	0000000000000000 CPU_RESET_FUNC
0000000000000010 l       *ABS*	0000000000000000 CPU_EXTRA1_FUNC
0000000000000018 l       *ABS*	0000000000000000 CPU_EXTRA2_FUNC
0000000000000020 l       *ABS*	0000000000000000 CPU_E_HANDLER_FUNC
0000000000000028 l       *ABS*	0000000000000000 CPU_PWR_DWN_OPS
0000000000000038 l       *ABS*	0000000000000000 CPU_ERRATA_FUNC
0000000000000038 l       *ABS*	0000000000000000 CPU_ERRATA_LOCK
0000000000000038 l       *ABS*	0000000000000000 CPU_ERRATA_PRINTED
0000000000000038 l       *ABS*	0000000000000000 CPU_REG_DUMP
0000000000000038 l       *ABS*	0000000000000000 CPU_OPS_SIZE
000000000005dcc8 l       ro	0000000000000000 search_def_ptr
0000000000000000 l    df *ABS*	0000000000000000 /home/mohit/ws/arm-trusted-firmware/build/rk3399/release/bl31/context.o
0000000000000000 l    df *ABS*	0000000000000000 /home/mohit/ws/arm-trusted-firmware/build/rk3399/release/bl31/cpu_data.o
0000000000000000 l    df *ABS*	0000000000000000 /home/mohit/ws/arm-trusted-firmware/build/rk3399/release/bl31/spinlock.o
000000000005df1c l       ro	0000000000000000 l1
000000000005df20 l       ro	0000000000000000 l2
0000000000000000 l    df *ABS*	0000000000000000 /home/mohit/ws/arm-trusted-firmware/build/rk3399/release/bl31/psci_helpers.o
0000000000000000 l    df *ABS*	0000000000000000 /home/mohit/ws/arm-trusted-firmware/build/rk3399/release/bl31/platform_mp_stack.o
0000000000062080 l       stacks	0000000000000000 platform_normal_stacks
0000000000000006 l       *ABS*	0000000000000000 TZ_COUNT
0000000000000000 l    df *ABS*	0000000000000000 /home/mohit/ws/arm-trusted-firmware/build/rk3399/release/bl31/debug.o
00000000000603bf l       ro	0000000000000000 panic_msg
000000000005e078 l       ro	0000000000000000 panic_common
000000000005e0a0 l       ro	0000000000000000 _panic_handler
0000000000000000 l    df *ABS*	0000000000000000 /home/mohit/ws/arm-trusted-firmware/build/rk3399/release/bl31/cache_helpers.o
000000000005e0dc l       ro	0000000000000000 exit_loop_civac
000000000005e0c8 l       ro	0000000000000000 loop_civac
000000000005e114 l       ro	0000000000000000 exit_loop_cvac
000000000005e100 l       ro	0000000000000000 loop_cvac
000000000005e14c l       ro	0000000000000000 exit_loop_ivac
000000000005e138 l       ro	0000000000000000 loop_ivac
000000000005e150 l     F ro	000000000000007c do_dcsw_op
000000000005e1c8 l       ro	0000000000000000 exit
000000000005e1cc l       ro	0000000000000000 dcsw_loop_table
000000000005e164 l       ro	0000000000000000 loop1
000000000005e1b0 l       ro	0000000000000000 level_done
000000000005e1cc l       ro	0000000000000000 loop2_isw
000000000005e1d0 l       ro	0000000000000000 loop3_isw
000000000005e1ec l       ro	0000000000000000 loop2_cisw
000000000005e1f0 l       ro	0000000000000000 loop3_cisw
000000000005e20c l       ro	0000000000000000 loop2_csw
000000000005e210 l       ro	0000000000000000 loop3_csw
0000000000000000 l    df *ABS*	0000000000000000 /home/mohit/ws/arm-trusted-firmware/build/rk3399/release/bl31/misc_helpers.o
000000000005e254 l     F ro	00000000000000e8 zeromem_dczva
0000000000000000 l    df *ABS*	0000000000000000 /home/mohit/ws/arm-trusted-firmware/build/rk3399/release/bl31/platform_helpers.o
0000000000000000 l    df *ABS*	0000000000000000 /home/mohit/ws/arm-trusted-firmware/build/rk3399/release/bl31/crash_console_helpers.o
000000000006205c l       .data	0000000000000000 crash_console_spinlock
0000000000062061 l       .data	0000000000000000 crash_console_triggered
0000000000062000 l       .data	0000000000000000 crash_console_reg_stash
000000000005e36c l       ro	0000000000000000 skip_spinlock
000000000005e388 l       ro	0000000000000000 init_error
000000000005e3b4 l       ro	0000000000000000 putc_loop
000000000005e400 l       ro	0000000000000000 putc_done
000000000005e3f8 l       ro	0000000000000000 putc_continue
000000000005e3ec l       ro	0000000000000000 putc
000000000005e430 l       ro	0000000000000000 flush_loop
000000000005e458 l       ro	0000000000000000 flush_done
000000000005e450 l       ro	0000000000000000 flush_continue
0000000000000000 l    df *ABS*	0000000000000000 fdt_ro.c
000000000005e46c l     F ro	0000000000000024 fdt32_ld
000000000005e490 l     F ro	0000000000000044 fdt64_ld
000000000005e4d4 l     F ro	0000000000000058 fdt_mem_rsv
000000000005e52c l     F ro	0000000000000064 nextprop_
000000000005e590 l     F ro	0000000000000068 fdt_get_property_by_offset_
000000000005e954 l     F ro	00000000000000d8 fdt_get_property_namelen_
0000000000000000 l    df *ABS*	0000000000000000 fdt_rw.c
000000000005ec7c l     F ro	0000000000000008 cpu_to_fdt32
000000000005ec84 l     F ro	0000000000000024 fdt32_ld
000000000005eca8 l     F ro	0000000000000088 fdt_blocks_misordered_
000000000005ed30 l     F ro	00000000000000dc fdt_packblocks_
0000000000000000 l    df *ABS*	0000000000000000 fdt.c
000000000005efbc l     F ro	0000000000000024 fdt32_ld
0000000000000000 l    df *ABS*	0000000000000000 memchr.c
0000000000000000 l    df *ABS*	0000000000000000 memcmp.c
0000000000000000 l    df *ABS*	0000000000000000 memcpy.c
0000000000000000 l    df *ABS*	0000000000000000 memmove.c
0000000000000000 l    df *ABS*	0000000000000000 memset.c
0000000000000000 l    df *ABS*	0000000000000000 printf.c
000000000005f4ec l     F ro	00000000000000d0 unsigned_num_print
0000000000000000 l    df *ABS*	0000000000000000 putchar.c
0000000000000000 l    df *ABS*	0000000000000000 strchr.c
0000000000000000 l    df *ABS*	0000000000000000 strlen.c
0000000000000000 l    df *ABS*	0000000000000000 strncmp.c
0000000000000000 l    df *ABS*	0000000000000000 strrchr.c
0000000000000000 l    df *ABS*	0000000000000000 /home/mohit/ws/arm-trusted-firmware/build/rk3399/release/bl31/wa_cve_2017_5715_mmu.o
0000000000061000 l     F ro	0000000000000000 mmu_sync_exception_sp_el0
0000000000061080 l     F ro	0000000000000000 mmu_irq_sp_el0
0000000000061100 l     F ro	0000000000000000 mmu_fiq_sp_el0
0000000000061180 l     F ro	0000000000000000 mmu_serror_sp_el0
0000000000061200 l     F ro	0000000000000000 mmu_sync_exception_sp_elx
0000000000061280 l     F ro	0000000000000000 mmu_irq_sp_elx
0000000000061300 l     F ro	0000000000000000 mmu_fiq_sp_elx
0000000000061380 l     F ro	0000000000000000 mmu_serror_sp_elx
0000000000061400 l     F ro	0000000000000000 mmu_sync_exception_aarch64
0000000000061480 l     F ro	0000000000000000 mmu_irq_aarch64
0000000000061500 l     F ro	0000000000000000 mmu_fiq_aarch64
0000000000061580 l     F ro	0000000000000000 mmu_serror_aarch64
0000000000061600 l     F ro	0000000000000000 mmu_sync_exception_aarch32
0000000000061680 l     F ro	0000000000000000 mmu_irq_aarch32
0000000000061700 l     F ro	0000000000000000 mmu_fiq_aarch32
0000000000061780 l     F ro	0000000000000000 mmu_serror_aarch32
0000000000040120 l     F ro	000000000000000c __sram_func_set_ddrctl_pll_veneer
00000000ff3b0028 l     F .pmusram	000000000000000c __sram_restore_veneer
00000000ff3b0038 l     F .pmusram	000000000000000c __bl31_warm_entrypoint_veneer
0000000000050618 g     F ro	0000000000000014 gicd_read_nsacr
000000000005f9bc g     F ro	000000000000002c putchar
0000000000051730 g     F ro	00000000000000cc cm_prepare_el3_exit
000000000005d090  w    F ro	0000000000000008 plat_is_smccc_feature_available
0000000000056ec4 g     F ro	00000000000001f0 dram_init
000000000005f07c g     F ro	0000000000000088 fdt_offset_ptr
000000000008cc00 g       .bss	0000000000000000 __PMF_TIMESTAMP_START__
00000000000530ac  w    F ro	0000000000000034 plat_ic_get_pending_interrupt_type
000000000005056c g     F ro	0000000000000014 gicd_write_igrpmodr
0000000000051694 g     F ro	000000000000007c cm_el1_sysregs_context_restore
0000000000058f74 g     F ro	000000000000004c m0_wait_done
00000000000533e4 g     F ro	000000000000010c params_early_setup
00000000000523c8 g     F ro	0000000000000028 psci_migrate_info_up_cpu
00000000000a2000 g       coherent_ram	0000000000000000 __BL31_END__
0000000000058f4c g     F ro	0000000000000028 m0_stop
000000000005cf50 g     F ro	0000000000000034 console_register
0000000000052170 g     F ro	00000000000000ec psci_cpu_suspend
0000000000053378 g     F ro	000000000000000c rockchip_get_uart_baudrate
00000000000a2000 g       coherent_ram	0000000000000000 __COHERENT_RAM_END__
00000000ff3b1240 g       .pmusram	0000000000000000 __pmusram_incbin_end
000000000005dc28 g     F ro	0000000000000020 reset_handler
000000000005da10 g     F ro	0000000000000008 console_16550_flush
0000000000060e00 g     F ro	0000000000000000 sync_exception_aarch32
000000000005e24c g     F ro	0000000000000008 zeromem
000000000005ff94 g     O ro	0000000000000022 version_string
000000000005e070 g     F ro	0000000000000008 asm_print_newline
00000000000604b0 g       ro	0000000000000000 __pubsub_psci_suspend_pwrdown_finish_end
0000000000051f34 g     F ro	00000000000000f4 psci_validate_entry_point
000000000005ce8c g     F ro	0000000000000004 print_entry_point_info
0000000000050080 g     F ro	000000000000000c cm_get_context
00000000000564e8 g     F ro	00000000000000ac resume_low_power
00000000ff8c1090 g       .text_sram	0000000000000000 __bl31_sram_text_real_end
0000000000056bc0 g     F ro	00000000000001bc ddr_set_rate
0000000000050000 g     F ro	0000000000000070 platform_cpu_warmboot
0000000000068d84 g     O .bss	0000000000000060 store_gpio
0000000000051eb0 g     F ro	0000000000000064 psci_release_pwr_domain_locks
00000000000537d8 g     F ro	0000000000000018 plat_core_pos_by_mpidr
0000000000051974 g     F ro	0000000000000028 psci_validate_power_state
0000000000062000 g       ro	0000000000000000 __RW_START__
000000000005d99c g     F ro	0000000000000038 console_16550_core_putc
000000000005318c g     F ro	000000000000000c plat_cci_disable
0000000000053598 g     F ro	000000000000000c rockchip_pwr_domain_on
000000000005966c g     F ro	0000000000000030 rockchip_soc_hlvl_pwr_dm_on_finish
0000000000052ef4 g     F ro	00000000000000a4 psci_cpu_suspend_finish
0000000000059408 g     F ro	000000000000005c rk3399_flush_l2_b
000000000005ea2c g     F ro	000000000000006c fdt_getprop_namelen
00000000ff3b1240 g     O .pmusram	0000000000000cf0 sdram_config
000000000005c5f0 g     F ro	00000000000000b4 enable_pwms
000000000005e8e4 g     F ro	0000000000000038 fdt_first_property_offset
000000000005d9d4 g     F ro	0000000000000008 console_16550_putc
0000000000053198 g     F ro	0000000000000028 bl31_plat_get_next_image_ep_info
000000000005e22c g     F ro	0000000000000010 dcsw_op_level1
000000000005c280 g     F ro	000000000000008c rockchip_plat_mmu_el3
000000000005e078 g     F ro	0000000000000030 do_panic
00000000ff8c1000 g       .incbin_sram	0000000000000000 __sram_incbin_end
000000000005f440 g     F ro	0000000000000034 memmove
0000000000069b60 g     O .bss	0000000000000080 rt_svc_descs_indices
00000000000505dc g     F ro	0000000000000014 gicd_write_isenabler
00000000000537a4 g     F ro	000000000000001c plat_setup_psci_ops
0000000000059844 g     F ro	0000000000000084 resume_uart
000000000005c74c g     F ro	000000000000002c secure_sgrf_ddr_rgn_init
0000000000060a00 g     F ro	0000000000000000 sync_exception_sp_elx
0000000000050604 g     F ro	0000000000000014 gicd_write_ispendr
0000000000060800 g     F ro	0000000000000000 sync_exception_sp_el0
000000000005dfac g     F ro	000000000000000c psci_power_down_wfi
000000000005c6a4 g     F ro	0000000000000018 secure_watchdog_gate
000000000005316c g     F ro	0000000000000014 plat_cci_init
0000000000050ccc g     F ro	000000000000003c gicv3_cpuif_disable
000000000005df78 g     F ro	0000000000000034 psci_do_pwrup_cache_maintenance
00000000000522dc g     F ro	0000000000000058 psci_affinity_info
000000000005ec48 g     F ro	0000000000000034 fdt_path_offset
00000000ff3b1000 g     O .pmusram	0000000000000240 rk3399m0pmu_bin
0000000000058ef0 g     F ro	000000000000005c m0_start
000000000005d098  w    F ro	0000000000000030 plat_log_get_prefix
0000000000052334 g     F ro	000000000000007c psci_migrate
0000000000050774 g     F ro	000000000000006c gicv3_rdistif_base_addrs_probe
000000000005c938 g     F ro	000000000000006c clk_gate_con_save
00000000ff8c2000 g       .text_sram	0000000000000000 __bl31_sram_text_end
000000000005fa98 g     O ro	00000000000000a8 plat_rockchip_psci_pm_ops
000000000005ff76 g     O ro	000000000000001e build_message
0000000000068ca8 g     O .bss	0000000000000004 suspend_gpio_cnt
00000000ff8c3000 g       .stack_sram	0000000000000000 __bl31_sram_stack_end
000000000005deac g     F ro	000000000000003c el3_exit
00000000000529f8 g     F ro	000000000000034c psci_setup
000000000005d618 g     F ro	0000000000000084 init_xlat_tables
000000000005d0c8  w    F ro	0000000000000008 bl31_plat_runtime_setup
0000000000062000 g       .data	0000000000000000 __DATA_START__
00000000000a1000 g     O coherent_ram	0000000000000048 psci_locks
000000000005e5f8 g     F ro	0000000000000114 fdt_get_string
000000000005e33c  w    F ro	0000000000000004 plat_disable_acp
00000000000537f4  w    F ro	000000000000000c plat_rockchip_gic_driver_init
000000000005f364 g     F ro	000000000000005c fdt_move
0000000000051e0c g     F ro	0000000000000034 psci_find_target_suspend_lvl
0000000000058d68 g     F ro	00000000000000fc plat_rockchip_restore_gpio
00000000000504d8 g     F ro	000000000000001c gicd_set_isenabler
00000000000529dc g     F ro	000000000000001c psci_arch_setup
000000000005dd04 g     F ro	0000000000000020 check_wa_cve_2017_5715
00000000ff3b0058 g       .pmusram	0000000000000000 __bl31_pmusram_text_start
000000000005fc68 g     O ro	0000000000000060 ddr3_lat_adj
0000000000059d30 g     F ro	000000000000006c wdt_register_restore
00000000000a1048 g     O coherent_ram	000000000000000c rockchip_pd_lock
00000000ff3b0640 g     F .pmusram	0000000000000714 dmc_resume
000000000005ddd0 g     F ro	0000000000000074 save_gp_pmcr_pauth_regs
0000000000052fd0 g     F ro	0000000000000038 psci_system_reset
000000000005c83c g     F ro	000000000000001c disable_nodvfs_plls
00000000000504f4 g     F ro	0000000000000014 gicd_set_ipriorityr
000000000005f420 g     F ro	0000000000000020 memcpy
0000000000056324 g     F ro	0000000000000054 ddr_get_rate
0000000000051f14 g     F ro	0000000000000020 psci_validate_mpidr
000000000005225c g     F ro	0000000000000078 psci_system_suspend
0000000000060b80 g     F ro	0000000000000000 serror_sp_elx
000000000005163c g     F ro	000000000000002c cm_init_context_by_index
0000000000050b30 g     F ro	0000000000000084 gicv3_distif_init
0000000000059d9c g     F ro	0000000000001610 rockchip_soc_sys_pwr_dm_suspend
0000000000060880 g     F ro	0000000000000000 irq_sp_el0
000000000005e254 g     F ro	00000000000000e8 zero_normalmem
0000000000051b08 g     F ro	0000000000000048 psci_get_parent_pwr_domain_nodes
0000000000050ac4 g     F ro	000000000000006c gicv3_driver_init
0000000000053834  w    F ro	0000000000000014 plat_rockchip_gic_cpuif_disable
00000000000604b0 g     O ro	0000000000000008 __cb_func_spe_drain_buffers_hookcm_entering_secure_world
000000000005d0d0  w    F ro	0000000000000074 plat_ea_handler
000000000005b3ac g     F ro	0000000000000e4c rockchip_soc_sys_pwr_dm_resume
000000000005c9a4 g     F ro	0000000000000038 clk_gate_con_disable
0000000000053820  w    F ro	0000000000000014 plat_rockchip_gic_cpuif_enable
0000000000052f98 g     F ro	0000000000000038 psci_system_off
00000000ff3b0de0 g       .pmusram	0000000000000000 __bl31_pmusram_text_end
00000000000604b8 g       ro	0000000000000000 __pubsub_cm_exited_secure_world_end
0000000000056db8 g     F ro	0000000000000078 ddr_prepare_for_sys_suspend
000000000005d528 g     F ro	000000000000003c mmap_add
0000000000040138 g     F ro	0000000000000080 bl31_warm_entrypoint
0000000000053160 g     F ro	000000000000000c plat_get_syscnt_freq2
000000000005e01c g     F ro	000000000000000c plat_panic_handler
00000000000603e0 g       ro	0000000000000000 __RT_SVC_DESCS_START__
0000000000050340 g     F ro	0000000000000014 cci_init
000000000005e7fc g     F ro	00000000000000e8 fdt_subnode_offset_namelen
0000000000065080 g       stacks	0000000000000000 __STACKS_END__
0000000000050758 g     F ro	000000000000001c gicv3_rdistif_mark_core_asleep
00000000000604b0 g       ro	0000000000000000 __pubsub_psci_suspend_pwrdown_start_end
000000000005c6bc g     F ro	0000000000000030 secure_timer_init
000000000005e0e0 g     F ro	0000000000000038 clean_dcache_range
0000000000062044 g     O .data	0000000000000014 gpio_port
000000000005cc34 g     F ro	0000000000000070 rockchip_plat_sip_handler
000000000005dc48 g     F ro	0000000000000024 prepare_cpu_pwr_dwn
000000000005ca84 g     F ro	0000000000000014 pmu_sgrf_rst_hld
000000000005377c  w    F ro	000000000000000c rockchip_soc_sys_pd_pwr_dn_wfi
00000000ff3b0d54 g     F .pmusram	0000000000000014 secure_watchdog_ungate
000000000005d144  w    F ro	0000000000000008 plat_arm_set_twedel_scr_el3
000000000005e70c g     F ro	0000000000000044 fdt_num_mem_rsv
00000000ff8c0000 g     O .incbin_sram	0000000000000310 rk3399m0_bin
000000000005de44 g     F ro	0000000000000068 restore_gp_pmcr_pauth_regs
0000000000050430 g     F ro	0000000000000004 gicv3_distif_post_restore
0000000000056d7c g     F ro	000000000000003c ddr_round_rate
0000000000052028 g     F ro	00000000000000c0 psci_warmboot_entrypoint
00000000ff3b0d98 g     F .pmusram	0000000000000014 pmu_sgrf_rst_hld_release
000000000005073c g     F ro	000000000000001c gicv3_rdistif_mark_core_awake
0000000000051440 g     F ro	0000000000000014 gpio_set_direction
00000000000604b8 g       ro	0000000000000000 __pubsub_cm_exited_normal_world_start
000000000005dfd4  w    F ro	0000000000000010 plat_set_my_stack
00000000000500b0 g     F ro	0000000000000028 cm_set_context_by_index
0000000000060440 g       ro	0000000000000000 __RT_SVC_DESCS_END__
0000000000059464 g     F ro	00000000000000b4 rockchip_soc_cores_pwr_dm_on
000000000005f234 g     F ro	0000000000000040 fdt_check_node_offset_
00000000000537c0 g     F ro	000000000000000c plat_get_sec_entrypoint
000000000005e040 g     F ro	0000000000000030 asm_print_hex
0000000000053254 g     F ro	0000000000000040 bl31_plat_arch_setup
0000000000050158 g     F ro	0000000000000064 bl31_main
000000000005d43c g     F ro	0000000000000004 print_mmap
00000000000534f0 g     F ro	0000000000000074 rockchip_validate_power_state
0000000000058e64 g     F ro	000000000000000c plat_rockchip_gpio_init
00000000000a1100 g       coherent_ram	0000000000000000 cpuson_flags
0000000000065fe0 g     O .bss	0000000000000060 psci_cpu_pd_nodes
00000000ff8c1000 g       .text_sram	0000000000000000 __bl31_sram_text_start
000000000005e028 g     F ro	0000000000000018 asm_print_str
000000000005e340  w    F ro	0000000000000004 bl31_plat_enable_mmu
000000000005d9fc g     F ro	0000000000000014 console_16550_core_flush
0000000000051474 g     F ro	0000000000000004 cm_init
000000000005e418 g     F ro	0000000000000054 plat_crash_console_flush
0000000000060800 g       ro	0000000000000000 runtime_exceptions
0000000000066138 g     O .bss	0000000000000030 rdistif_base_addrs
000000000005062c g     F ro	0000000000000014 gicd_write_nsacr
0000000000059c2c g     F ro	0000000000000034 cru_register_save
0000000000050390 g     F ro	000000000000003c cci_disable_snoop_dvm_reqs
0000000000059ce0 g     F ro	0000000000000050 wdt_register_save
0000000000050640 g     F ro	0000000000000014 gicr_write_ipriorityr
00000000000604b8 g       ro	0000000000000000 __pubsub_cm_exited_secure_world_start
0000000000053688 g     F ro	0000000000000054 rockchip_pwr_domain_on_finish
00000000000520e8 g     F ro	0000000000000024 psci_spd_migrate_info
000000000005ea98 g     F ro	000000000000004c fdt_getprop
000000000005defc g     F ro	0000000000000018 _cpu_data_by_index
000000000005210c g     F ro	0000000000000004 psci_print_power_domain_map
0000000000061800 g       ro	0000000000000000 __RO_END_UNALIGNED__
000000000005d71c g     F ro	0000000000000028 plat_get_target_pwr_state
000000000005cf90 g     F ro	000000000000009c console_putc
0000000000050704 g     F ro	0000000000000038 gicr_set_icfgr
0000000000050f34 g     F ro	0000000000000204 gicv3_distif_save
000000000005051c g     F ro	0000000000000014 gicd_write_icfgr
000000000005e348  w    F ro	0000000000000004 plat_handle_el3_ea
0000000000058ec4 g     F ro	000000000000002c m0_configure_execute_addr
000000000005fa60 g     F ro	0000000000000028 strrchr
0000000000059c60 g     F ro	0000000000000080 cru_register_restore
00000000000519b0 g     F ro	0000000000000070 psci_is_last_on_cpu
0000000000053600 g     F ro	0000000000000088 rockchip_pwr_domain_suspend
000000000005e34c g     F ro	0000000000000048 plat_crash_console_init
00000000ff8c1000 g     F .text_sram	0000000000000090 sram_func_set_ddrctl_pll
0000000000060e80 g     F ro	0000000000000000 irq_aarch32
000000000005e0a8 g     F ro	0000000000000038 flush_dcache_range
0000000000050354 g     F ro	000000000000003c cci_enable_snoop_dvm_reqs
00000000000513c4 g     F ro	000000000000000c timer_init
00000000000531c0 g     F ro	0000000000000074 bl31_early_platform_setup2
00000000ff3b0000 g     F .pmusram	0000000000000014 pmu_cpuson_entrypoint
000000000005c928 g     F ro	0000000000000010 restore_abpll
000000000005d9dc g     F ro	0000000000000018 console_16550_core_getc
000000000005cb30 g     F ro	000000000000007c soc_global_soft_reset
0000000000060440 g       ro	0000000000000000 __PMF_SVC_DESCS_END__
0000000000062068 g       .data	0000000000000000 __RELA_END__
0000000000062068 g       .data	0000000000000000 __RELA_START__
00000000ff8c2000 g       .data_sram	0000000000000000 __bl31_sram_data_start
0000000000050e0c g     F ro	0000000000000128 gicv3_rdistif_init_restore
0000000000060980 g     F ro	0000000000000000 serror_sp_el0
000000000005f5bc g     F ro	0000000000000400 vprintf
00000000ff8c2000 g       .data_sram	0000000000000000 __bl31_sram_data_real_end
000000000005c30c g     F ro	00000000000001e8 plat_rockchip_pmu_init
0000000000059518 g     F ro	000000000000004c rockchip_soc_cores_pwr_dm_off
000000000005d744 g     F ro	0000000000000004 report_unhandled_exception
0000000000052904 g     F ro	00000000000000d8 psci_cpu_on_finish
000000000005ca44 g     F ro	0000000000000040 set_pmu_rsthold
00000000000522d4 g     F ro	0000000000000008 psci_cpu_off
000000000005fb40 g     O ro	0000000000000030 rockchip_gic_data
000000000005dfe4 g     F ro	0000000000000024 plat_reset_handler
000000000005d718 g     F ro	0000000000000004 enable_mmu_direct_el3
0000000000050bb4 g     F ro	0000000000000090 gicv3_rdistif_init
000000000005969c g     F ro	0000000000000004 rockchip_soc_cores_pwr_dm_resume
00000000000604b8 g       ro	0000000000000000 __pubsub_cm_entering_normal_world_end
000000000005dc8c g     F ro	0000000000000040 get_cpu_ops_ptr
0000000000040000 g     F ro	0000000000000114 bl31_entrypoint
000000000005008c g     F ro	0000000000000024 cm_get_context_by_index
0000000000061000 g       ro	0000000000000000 wa_cve_2017_5715_mmu_vbar
0000000000050654 g     F ro	0000000000000018 gicr_set_ipriorityr
0000000000051668 g     F ro	000000000000002c cm_init_my_context
0000000000060d80 g     F ro	0000000000000000 serror_aarch64
000000000005f3c0 g     F ro	000000000000002c memchr
000000000005066c g     F ro	0000000000000028 gicr_clr_igroupr
000000000005dee8 g     F ro	0000000000000014 init_cpu_data_ptr
00000000000536dc g     F ro	000000000000007c rockchip_pwr_domain_suspend_finish
000000000005d748 g     F ro	0000000000000078 enter_lower_el_sync_ea
000000000005d5f8 g     F ro	000000000000000c xlat_arch_current_el
00000000000599bc g     F ro	00000000000000d4 restore_usbphy
0000000000050888 g     F ro	00000000000000e8 gicv3_secure_spis_config_props
0000000000053564 g     F ro	0000000000000014 rockchip_get_sys_suspend_power_state
000000000005cbac g     F ro	000000000000002c plat_rockchip_soc_init
0000000000050508 g     F ro	0000000000000014 gicd_read_icfgr
0000000000050580 g     F ro	0000000000000010 gicd_read_ipriorityr
00000000000517fc g     F ro	0000000000000010 spe_supported
00000000000526a0 g     F ro	0000000000000104 psci_do_cpu_off
0000000000068c54 g     O .bss	0000000000000004 psci_caps
0000000000051478 g     F ro	00000000000001c4 cm_setup_context
0000000000040000 g       ro	0000000000000000 __BL31_START__
0000000000060a80 g     F ro	0000000000000000 irq_sp_elx
000000000008cc00 g       .bss	0000000000000000 __PMF_PERCPU_TIMESTAMP_END__
0000000000060900 g     F ro	0000000000000000 fiq_sp_el0
000000000005fa28 g     F ro	0000000000000038 strncmp
0000000000062062 g       .data	0000000000000000 __DATA_END__
000000000005e044 g       ro	0000000000000000 asm_print_hex_bits
0000000000050490 g     F ro	0000000000000024 gicd_set_igrpmodr
0000000000060440 g       ro	0000000000000000 __CPU_OPS_START__
0000000000051454 g     F ro	0000000000000014 gpio_set_value
000000000005135c g     F ro	0000000000000068 udelay
0000000000058e70 g     F ro	0000000000000054 m0_init
00000000ff3b1f54 g       .pmusram	0000000000000000 __bl31_pmusram_data_end
00000000ff8c0310 g       .incbin_sram	0000000000000000 __sram_incbin_real_end
000000000005f274 g     F ro	0000000000000040 fdt_check_prop_offset_
0000000000050970 g     F ro	0000000000000070 gicv3_ppi_sgi_config_defaults
000000000005e118 g     F ro	0000000000000038 inv_dcache_range
0000000000062060 g     O .data	0000000000000001 console_state
0000000000059564 g     F ro	0000000000000030 rockchip_soc_hlvl_pwr_dm_off
00000000ff3b1240 g       .pmusram	0000000000000000 __bl31_pmusram_data_start
000000000005d1f8 g     F ro	0000000000000060 bl_aux_params_parse
00000000000524b0 g     F ro	000000000000014c psci_smc_handler
0000000000053848  w    F ro	0000000000000014 plat_rockchip_gic_pcpu_init
00000000000513fc g     F ro	0000000000000044 generic_delay_timer_init
0000000000052d44 g     F ro	00000000000001b0 psci_cpu_suspend_start
0000000000059350 g     F ro	00000000000000b8 pmu_power_domains_on
0000000000051a20 g     F ro	0000000000000058 psci_init_req_local_pwr_states
000000000005cae8 g     F ro	0000000000000020 enable_nodvfs_plls
00000000000604b8 g       ro	0000000000000000 __pubsub_cm_entering_secure_world_end
00000000000513dc g     F ro	0000000000000020 generic_delay_timer_init_args
000000000005f3ec g     F ro	0000000000000034 memcmp
00000000ff3b1f34 g     O .pmusram	0000000000000018 dpll_data
000000000005dccc g     F ro	0000000000000010 cpu_get_rev_var
00000000000527a4 g     F ro	0000000000000160 psci_cpu_on_start
0000000000051dd0 g     F ro	000000000000003c psci_find_max_off_lvl
000000000005eb48 g     F ro	0000000000000100 fdt_path_offset_namelen
000000000005e91c g     F ro	0000000000000038 fdt_next_property_offset
00000000000533a8 g     F ro	0000000000000018 plat_get_rockchip_gpio_poweroff
0000000000050438 g     F ro	0000000000000034 gicd_set_icfgr
000000000005c1f8 g     F ro	0000000000000038 rockchip_soc_soft_reset
0000000000059758 g     F ro	0000000000000088 sram_restore
00000000000a1054 g     O coherent_ram	0000000000000060 psci_non_cpu_pd_nodes
000000000008cc00 g       .bss	0000000000000000 __BSS_END__
00000000000604b0 g       ro	0000000000000000 __CPU_OPS_END__
0000000000059614 g     F ro	0000000000000030 rockchip_soc_hlvl_pwr_dm_suspend
000000000005385c g     F ro	000000000000008c sip_smc_handler
0000000000052110 g     F ro	0000000000000004 psci_do_pwrdown_sequence
000000000005df3c g     F ro	000000000000003c psci_do_pwrdown_cache_maintenance
0000000000050558 g     F ro	0000000000000014 gicd_read_igrpmodr
00000000000597e0 g     F ro	0000000000000064 suspend_uart
0000000000051710 g     F ro	0000000000000020 cm_set_next_eret_context
00000000000604b0 g       ro	0000000000000000 __pubsub_cm_entering_secure_world_start
00000000ff3b0d68 g     F .pmusram	0000000000000030 sram_secure_timer_init
00000000000505c8 g     F ro	0000000000000014 gicd_read_isenabler
0000000000052114 g     F ro	000000000000005c psci_cpu_on
000000000005d564 g     F ro	0000000000000094 init_xlation_table
00000000000500f8 g     F ro	0000000000000060 bl31_prepare_next_image_entry
00000000000a1000 g       coherent_ram	0000000000000000 __COHERENT_RAM_START__
000000000005ca98 g     F ro	0000000000000050 enable_dvfs_plls
0000000000053800  w    F ro	0000000000000020 plat_rockchip_gic_init
0000000000068c50 g     O .bss	0000000000000004 psci_plat_core_count
0000000000052448 g     F ro	0000000000000068 psci_features
00000000000604b0 g       ro	0000000000000000 __GOT_END__
0000000000058c88 g     F ro	00000000000000e0 plat_rockchip_save_gpio
00000000ff3b1000 g       .pmusram	0000000000000000 __pmusram_incbin_start
000000000005f474 g     F ro	0000000000000078 memset
000000000005d944 g     F ro	0000000000000058 console_16550_register
0000000000056594 g     F ro	0000000000000504 dram_dfs_init
0000000000060440 g       ro	0000000000000000 __PARSER_LIB_DESCS_END__
0000000000051a78 g     F ro	0000000000000090 psci_get_target_local_pwr_states
000000000005c7f0 g     F ro	000000000000004c disable_dvfs_plls
00000000000596a0 g     F ro	0000000000000030 rockchip_soc_hlvl_pwr_dm_resume
00000000000604b8 g       ro	0000000000000000 __pubsub_cm_exited_normal_world_end
00000000000533d8 g     F ro	000000000000000c plat_get_rockchip_suspend_apio
000000000005d7c0 g     F ro	000000000000001c enter_lower_el_async_ea
0000000000066040 g     O .bss	0000000000000008 psci_plat_pm_ops
000000000005d088  w    F ro	0000000000000008 plat_get_soc_revision
000000000005c6ec g     F ro	0000000000000060 secure_sgrf_init
00000000000500e4 g     F ro	0000000000000014 bl31_setup
00000000ff3b1f30 g     O .pmusram	0000000000000004 cru_clksel_con6
00000000000604b0 g       ro	0000000000000000 __pubsub_psci_suspend_pwrdown_start_start
000000000005fba0 g     O ro	0000000000000060 plat_rk_mmap
00000000ff8c0000 g       .incbin_sram	0000000000000000 __sram_incbin_start
00000000000604b0 g       ro	0000000000000000 __GOT_START__
0000000000068fc0 g     O .bss	00000000000003f0 pmu_slpdata
000000000005cb08 g     F ro	0000000000000028 soc_global_soft_reset_init
000000000005d7c4 g       ro	0000000000000000 handle_lower_el_async_ea
00000000000506bc g     F ro	0000000000000028 gicr_clr_igrpmodr
00000000000500d8 g     F ro	000000000000000c get_arm_std_svc_args
00000000000604b8 g       ro	0000000000000000 __pubsub_cm_entering_normal_world_start
0000000000000000 g       *ABS*	0000000000000000 __PERCPU_TIMESTAMP_SIZE__
0000000000051880 g     F ro	00000000000000c0 bakery_lock_get
00000000000525fc g     F ro	000000000000005c psci_mem_protect
000000000005ee0c g     F ro	00000000000001b0 fdt_open_into
0000000000060440 g       ro	0000000000000000 __FCONF_POPULATOR_END__
0000000000051940 g     F ro	0000000000000034 bakery_lock_release
000000000005fb70 g     O ro	0000000000000030 rk3399_gpio_ops
000000000005c858 g     F ro	00000000000000d0 prepare_abpll_for_ddrctrl
00000000000501ec g     F ro	0000000000000024 get_interrupt_type_handler
00000000000530e0 g     F ro	0000000000000080 plat_configure_mmu_el3
00000000000537cc g     F ro	000000000000000c plat_get_power_domain_tree_desc
0000000000050590 g     F ro	0000000000000010 gicd_write_ipriorityr
000000000005c9dc g     F ro	0000000000000068 clk_gate_con_restore
0000000000053770  w    F ro	000000000000000c rockchip_soc_cores_pd_pwr_dn_wfi
00000000000523f0 g     F ro	0000000000000058 psci_node_hw_state
0000000000056a98 g     F ro	0000000000000128 dram_set_odt_pd
00000000000505b4 g     F ro	0000000000000014 gicd_write_isactiver
000000000005e23c g     F ro	0000000000000010 dcsw_op_level2
000000000005dc6c g     F ro	0000000000000020 init_cpu_ops
000000000005d02c g     F ro	0000000000000054 console_flush
0000000000060b00 g     F ro	0000000000000000 fiq_sp_elx
0000000000062000 g       ro	0000000000000000 __RO_END__
000000000005e750 g     F ro	00000000000000ac fdt_get_name
0000000000060c00 g     F ro	0000000000000000 sync_exception_aarch64
0000000000060d00 g     F ro	0000000000000000 fiq_aarch64
0000000000050530 g     F ro	0000000000000014 gicd_read_igroupr
000000000005cf84 g     F ro	000000000000000c console_switch_state
0000000000053384 g     F ro	000000000000000c rockchip_get_uart_clock
000000000005df34 g     F ro	0000000000000008 spin_unlock
00000000000588dc g     F ro	0000000000000074 gpio_put_clock
0000000000065080 g       .bss	0000000000000000 __BSS_START__
0000000000040000 g       ro	0000000000000000 __RO_START__
00000000ff3b0dac g     F .pmusram	0000000000000034 restore_pmu_rsthold
00000000000602ab g     O ro	0000000000000004 rockchip_power_domain_tree_desc
000000000005183c g     F ro	0000000000000044 spe_enable
0000000000060440 g       ro	0000000000000000 __PMF_SVC_DESCS_START__
000000000005e394 g     F ro	0000000000000084 plat_crash_console_putc
00000000ff8c0310 g       .incbin_sram	0000000000000000 rk3399m0_bin_end
0000000000065080 g     O .bss	0000000000000180 percpu_data
000000000005dcf0 g     F ro	0000000000000014 cpu_rev_var_hs
000000000005f2b4 g     F ro	00000000000000b0 fdt_next_node
0000000000050434 g     F ro	0000000000000004 gicv3_rdistif_on
000000000005df14 g     F ro	0000000000000020 spin_lock
000000000005cf24 g     F ro	000000000000002c console_is_registered
0000000000050d08 g     F ro	000000000000000c gicv3_get_pending_interrupt_type
0000000000059a90 g     F ro	00000000000000d8 grf_register_save
00000000000506e4 g     F ro	0000000000000020 gicr_set_isenabler
000000000005199c g     F ro	0000000000000014 psci_query_sys_suspend_pwrstate
00000000ff8c2000 g       .data_sram	0000000000000000 __bl31_sram_data_end
000000000005ce90 g     F ro	0000000000000094 tf_log
0000000000050694 g     F ro	0000000000000028 gicr_set_igrpmodr
0000000000056e30 g     F ro	0000000000000094 ddr_prepare_for_sys_resume
00000000000604b0 g       ro	0000000000000000 __pubsub_psci_cpu_on_finish_start
000000000005c4f4 g     F ro	00000000000000fc disable_pwms
0000000000059b68 g     F ro	00000000000000c4 grf_register_restore
0000000000060440 g       ro	0000000000000000 __FCONF_POPULATOR_START__
0000000000056378 g     F ro	0000000000000170 exit_low_power
000000000005dcdc g     F ro	0000000000000014 cpu_rev_var_ls
00000000000501bc g     F ro	0000000000000030 get_scr_el3_from_routing_model
00000000000a2000 g       coherent_ram	0000000000000000 __RW_END__
000000000005d604 g     F ro	0000000000000014 xlat_arch_get_xn_desc
00000000000a1120 g       coherent_ram	0000000000000000 __COHERENT_RAM_END_UNALIGNED__
0000000000053234 g     F ro	0000000000000020 bl31_platform_setup
00000000000596d0 g     F ro	0000000000000088 sram_save
000000000005d9f4 g     F ro	0000000000000008 console_16550_getc
0000000000062080 g       stacks	0000000000000000 __STACKS_START__
0000000000051138 g     F ro	0000000000000224 gicv3_distif_init_restore
0000000000051c08 g     F ro	00000000000001c8 psci_do_state_coordination
0000000000053008 g     F ro	00000000000000a4 psci_system_reset2
000000000005d69c g     F ro	000000000000007c enable_mmu_el3
000000000005f104 g     F ro	0000000000000130 fdt_next_tag
0000000000060f80 g     F ro	0000000000000000 serror_aarch32
000000000005e344  w    F ro	0000000000000004 plat_handle_double_fault
000000000008cc00 g       .bss	0000000000000000 __PMF_TIMESTAMP_END__
0000000000058644 g     F ro	0000000000000208 dmc_suspend
00000000000503cc g     F ro	000000000000002c arm_gicv3_distif_pre_save
00000000000604b0 g       ro	0000000000000000 __pubsub_psci_suspend_pwrdown_finish_start
00000000000507e0 g     F ro	00000000000000a8 gicv3_spis_config_defaults
00000000000504b4 g     F ro	0000000000000024 gicd_clr_igrpmodr
000000000005e008 g     F ro	0000000000000014 plat_my_core_pos
00000000000a1118 g       coherent_ram	0000000000000000 clst_warmboot_data
000000000005eae4 g     F ro	0000000000000064 fdt_get_alias_namelen
00000000000509e0 g     F ro	00000000000000cc gicv3_secure_ppi_sgi_config_props
00000000000535a4 g     F ro	000000000000005c rockchip_pwr_domain_off
0000000000050210 g     F ro	0000000000000130 runtime_svc_init
00000000000a10d0 g       coherent_ram	0000000000000000 cpuson_entry_point
00000000000505f0 g     F ro	0000000000000014 gicd_read_ispendr
000000000005fa0c g     F ro	000000000000001c strlen
0000000000060c80 g     F ro	0000000000000000 irq_aarch64
000000000005336c g     F ro	000000000000000c rockchip_get_uart_base
00000000000523b0 g     F ro	0000000000000018 psci_migrate_info_type
000000000005d080  w    F ro	0000000000000008 plat_get_soc_version
0000000000053390 g     F ro	0000000000000018 plat_get_rockchip_gpio_reset
000000000005042c g     F ro	0000000000000004 gicv3_distif_pre_save
00000000ff3b1f4c g     O .pmusram	0000000000000008 pmu_slp_data
0000000000052658 g     F ro	0000000000000048 psci_mem_chk_range
000000000005e078  w      ro	0000000000000000 el3_panic
000000000005046c g     F ro	0000000000000024 gicd_clr_igroupr
000000000005fdc4 g     O ro	0000000000000090 lpddr3_lat_adj
000000000005f9e8 g     F ro	0000000000000024 strchr
00000000000533c0 g     F ro	0000000000000018 plat_get_rockchip_suspend_gpio
0000000000065fb8 g     O .bss	0000000000000008 gicv3_driver_data
0000000000051468 g     F ro	000000000000000c gpio_init
00000000ff8c2000 g       .stack_sram	0000000000000000 __bl31_sram_stack_start
000000000005d8d4 g     F ro	0000000000000070 console_16550_core_init
000000000005fe54 g     O ro	0000000000000080 lpddr4_lat_adj
0000000000059644 g     F ro	0000000000000028 rockchip_soc_cores_pwr_dm_on_finish
0000000000053180 g     F ro	000000000000000c plat_cci_enable
000000000005efe0 g     F ro	000000000000009c fdt_ro_probe_
000000000005cbd8 g     F ro	000000000000005c ddr_smc_handler
0000000000051e40 g     F ro	0000000000000070 psci_acquire_pwr_domain_locks
00000000000604b0 g       ro	0000000000000000 __pubsub_psci_cpu_on_finish_end
000000000005dd24 g     F ro	00000000000000ac el1_sysregs_context_restore
000000000005d14c g     F ro	00000000000000ac bl31_params_parse_helper
00000000000688e0 g     O .bss	0000000000000008 console_list
0000000000051b50 g     F ro	00000000000000b8 psci_set_pwr_domains_to_run
0000000000050c44 g     F ro	0000000000000088 gicv3_cpuif_enable
00000000000503f8 g     F ro	0000000000000034 arm_gicv3_distif_post_restore
000000000005c230 g     F ro	0000000000000050 rockchip_soc_system_off
0000000000050544 g     F ro	0000000000000014 gicd_write_igroupr
000000000005d744 g       ro	0000000000000000 report_unhandled_interrupt
00000000000598c8 g     F ro	00000000000000f4 save_usbphy
0000000000060f00 g     F ro	0000000000000000 fiq_aarch32
0000000000057100 g     F ro	0000000000001520 dram_get_parameter
0000000000059594 g     F ro	0000000000000080 rockchip_soc_cores_pwr_dm_suspend
000000000005dfb8  w    F ro	000000000000001c plat_get_my_stack
000000000005d440 g     F ro	00000000000000e8 mmap_add_region
00000000000505a0 g     F ro	0000000000000014 gicd_read_isactiver
0000000000050d14 g     F ro	00000000000000f8 gicv3_rdistif_save
0000000000060440 g       ro	0000000000000000 __PARSER_LIB_DESCS_START__
0000000000066048 g     O .bss	0000000000000008 psci_spd_pm
0000000000053578 g     F ro	0000000000000020 rockchip_cpu_standby
00000000ff3b1240 g       .pmusram	0000000000000000 rk3399m0pmu_bin_end



Disassembly of section .text_sram:

00000000ff8c1000 <sram_func_set_ddrctl_pll>:
    ff8c1000:	aa0003e8 	mov	x8, x0
    ff8c1004:	d53e1009 	mrs	x9, sctlr_el3
    ff8c1008:	927ff92a 	and	x10, x9, #0xfffffffffffffffe
    ff8c100c:	d51e100a 	msr	sctlr_el3, x10
    ff8c1010:	d5033fdf 	isb
    ff8c1014:	d5033f9f 	dsb	sy
    ff8c1018:	d2bfe625 	mov	x5, #0xff310000            	// #4281401344
    ff8c101c:	b94024a0 	ldr	w0, [x5, #36]
    ff8c1020:	32180000 	orr	w0, w0, #0x100
    ff8c1024:	32140000 	orr	w0, w0, #0x1000
    ff8c1028:	b90024a0 	str	w0, [x5, #36]

00000000ff8c102c <check_ddrc0_1_sref_enter>:
    ff8c102c:	b94098a1 	ldr	w1, [x5, #152]
    ff8c1030:	12000022 	and	w2, w1, #0x1
    ff8c1034:	121e0023 	and	w3, w1, #0x4
    ff8c1038:	2a030042 	orr	w2, w2, w3
    ff8c103c:	7100145f 	cmp	w2, #0x5
    ff8c1040:	54ffff60 	b.eq	ff8c102c <check_ddrc0_1_sref_enter>  // b.none
    ff8c1044:	d2bfeec5 	mov	x5, #0xff760000            	// #4285923328
    ff8c1048:	531c6d00 	lsl	w0, w8, #4
    ff8c104c:	320c0400 	orr	w0, w0, #0x300000
    ff8c1050:	b90118a0 	str	w0, [x5, #280]
    ff8c1054:	d2bfe625 	mov	x5, #0xff310000            	// #4281401344
    ff8c1058:	b94024a0 	ldr	w0, [x5, #36]
    ff8c105c:	12177800 	and	w0, w0, #0xfffffeff
    ff8c1060:	12137800 	and	w0, w0, #0xffffefff
    ff8c1064:	b90024a0 	str	w0, [x5, #36]

00000000ff8c1068 <check_ddrc0_1_sref_exit>:
    ff8c1068:	b94098a1 	ldr	w1, [x5, #152]
    ff8c106c:	12000022 	and	w2, w1, #0x1
    ff8c1070:	121e0023 	and	w3, w1, #0x4
    ff8c1074:	2a030042 	orr	w2, w2, w3
    ff8c1078:	7100005f 	cmp	w2, #0x0
    ff8c107c:	54ffff60 	b.eq	ff8c1068 <check_ddrc0_1_sref_exit>  // b.none
    ff8c1080:	d51e1009 	msr	sctlr_el3, x9
    ff8c1084:	d5033fdf 	isb
    ff8c1088:	d5033f9f 	dsb	sy
    ff8c108c:	d65f03c0 	ret

00000000ff8c1090 <__bl31_sram_text_real_end>:
	...

Disassembly of section .pmusram:

00000000ff3b0000 <pmu_cpuson_entrypoint>:
    ff3b0000:	580000c2 	ldr	x2, ff3b0018 <sys_resume+0x8>
    ff3b0004:	9100005f 	mov	sp, x2
    ff3b0008:	9400018e 	bl	ff3b0640 <dmc_resume>
    ff3b000c:	94000007 	bl	ff3b0028 <__sram_restore_veneer>

00000000ff3b0010 <sys_resume>:
    ff3b0010:	9400000a 	bl	ff3b0038 <__bl31_warm_entrypoint_veneer>
    ff3b0014:	00000000 	.inst	0x00000000 ; undefined
    ff3b0018:	ff8c3000 	.word	0xff8c3000
    ff3b001c:	00000000 	.word	0x00000000
    ff3b0020:	1400000e 	b	ff3b0058 <sram_regcpy>
    ff3b0024:	d503201f 	nop

00000000ff3b0028 <__sram_restore_veneer>:
    ff3b0028:	b0806550 	adrp	x16, 59000 <pmu_power_domain_ctr+0x20>
    ff3b002c:	911d6210 	add	x16, x16, #0x758
    ff3b0030:	d61f0200 	br	x16
    ff3b0034:	00000000 	.inst	0x00000000 ; undefined

00000000ff3b0038 <__bl31_warm_entrypoint_veneer>:
    ff3b0038:	90806490 	adrp	x16, 40000 <bl31_entrypoint>
    ff3b003c:	9104e210 	add	x16, x16, #0x138
    ff3b0040:	d61f0200 	br	x16
	...

00000000ff3b0058 <sram_regcpy>:
    ff3b0058:	cb010000 	sub	x0, x0, x1
    ff3b005c:	51000442 	sub	w2, w2, #0x1
    ff3b0060:	3100045f 	cmn	w2, #0x1
    ff3b0064:	54000041 	b.ne	ff3b006c <sram_regcpy+0x14>  // b.any
    ff3b0068:	d65f03c0 	ret
    ff3b006c:	b9400023 	ldr	w3, [x1]
    ff3b0070:	b8216803 	str	w3, [x0, x1]
    ff3b0074:	91001021 	add	x1, x1, #0x4
    ff3b0078:	17fffff9 	b	ff3b005c <sram_regcpy+0x4>

00000000ff3b007c <sram_udelay>:
    ff3b007c:	d53be021 	mrs	x1, cntpct_el0
    ff3b0080:	52800302 	mov	w2, #0x18                  	// #24
    ff3b0084:	2a2103e1 	mvn	w1, w1
    ff3b0088:	1b027c00 	mul	w0, w0, w2
    ff3b008c:	d53be022 	mrs	x2, cntpct_el0
    ff3b0090:	2a2203e4 	mvn	w4, w2
    ff3b0094:	0b020022 	add	w2, w1, w2
    ff3b0098:	6b040023 	subs	w3, w1, w4
    ff3b009c:	1a822062 	csel	w2, w3, w2, cs  // cs = hs, nlast
    ff3b00a0:	6b00005f 	cmp	w2, w0
    ff3b00a4:	54ffff49 	b.ls	ff3b008c <sram_udelay+0x10>  // b.plast
    ff3b00a8:	d65f03c0 	ret

00000000ff3b00ac <rkclk_ddr_reset>:
    ff3b00ac:	12000000 	and	w0, w0, #0x1
    ff3b00b0:	11001800 	add	w0, w0, #0x6
    ff3b00b4:	531e7400 	lsl	w0, w0, #2
    ff3b00b8:	51004003 	sub	w3, w0, #0x10
    ff3b00bc:	1ac32021 	lsl	w1, w1, w3
    ff3b00c0:	51003c03 	sub	w3, w0, #0xf
    ff3b00c4:	1ac32042 	lsl	w2, w2, w3
    ff3b00c8:	2a020021 	orr	w1, w1, w2
    ff3b00cc:	11000402 	add	w2, w0, #0x1
    ff3b00d0:	52800023 	mov	w3, #0x1                   	// #1
    ff3b00d4:	1ac02060 	lsl	w0, w3, w0
    ff3b00d8:	1ac22062 	lsl	w2, w3, w2
    ff3b00dc:	2a000040 	orr	w0, w2, w0
    ff3b00e0:	2a000021 	orr	w1, w1, w0
    ff3b00e4:	d2808200 	mov	x0, #0x410                 	// #1040
    ff3b00e8:	f2bfeec0 	movk	x0, #0xff76, lsl #16
    ff3b00ec:	b9000001 	str	w1, [x0]
    ff3b00f0:	d65f03c0 	ret

00000000ff3b00f4 <select_per_cs_training_index>:
    ff3b00f4:	11407c00 	add	w0, w0, #0x1f, lsl #12
    ff3b00f8:	52842a03 	mov	w3, #0x2150                	// #8528
    ff3b00fc:	113d4000 	add	w0, w0, #0xf50
    ff3b0100:	53114002 	lsl	w2, w0, #15
    ff3b0104:	0b003c60 	add	w0, w3, w0, lsl #15
    ff3b0108:	b9400000 	ldr	w0, [x0]
    ff3b010c:	368001c0 	tbz	w0, #16, ff3b0144 <select_per_cs_training_index+0x50>
    ff3b0110:	52840400 	mov	w0, #0x2020                	// #8224
    ff3b0114:	52850404 	mov	w4, #0x2820                	// #10272
    ff3b0118:	0b000043 	add	w3, w2, w0
    ff3b011c:	53081c21 	lsl	w1, w1, #24
    ff3b0120:	0b040042 	add	w2, w2, w4
    ff3b0124:	2a0303e4 	mov	w4, w3
    ff3b0128:	11080063 	add	w3, w3, #0x200
    ff3b012c:	6b02007f 	cmp	w3, w2
    ff3b0130:	b9400080 	ldr	w0, [x4]
    ff3b0134:	12077800 	and	w0, w0, #0xfeffffff
    ff3b0138:	2a010000 	orr	w0, w0, w1
    ff3b013c:	b9000080 	str	w0, [x4]
    ff3b0140:	54ffff21 	b.ne	ff3b0124 <select_per_cs_training_index+0x30>  // b.any
    ff3b0144:	d65f03c0 	ret

00000000ff3b0148 <data_training.constprop.0>:
    ff3b0148:	2a0003e1 	mov	w1, w0
    ff3b014c:	d2800482 	mov	x2, #0x24                  	// #36
    ff3b0150:	a9be7bfd 	stp	x29, x30, [sp, #-32]!
    ff3b0154:	aa0103e8 	mov	x8, x1
    ff3b0158:	b0000000 	adrp	x0, ff3b1000 <rk3399m0pmu_bin>
    ff3b015c:	9b027c21 	mul	x1, x1, x2
    ff3b0160:	91090000 	add	x0, x0, #0x240
    ff3b0164:	910003fd 	mov	x29, sp
    ff3b0168:	a90153f3 	stp	x19, x20, [sp, #16]
    ff3b016c:	3861680b 	ldrb	w11, [x0, x1]
    ff3b0170:	39413001 	ldrb	w1, [x0, #76]
    ff3b0174:	71001c3f 	cmp	w1, #0x7
    ff3b0178:	540008a1 	b.ne	ff3b028c <data_training.constprop.0+0x144>  // b.any
    ff3b017c:	7100057f 	cmp	w11, #0x1
    ff3b0180:	528000a9 	mov	w9, #0x5                   	// #5
    ff3b0184:	528001e1 	mov	w1, #0xf                   	// #15
    ff3b0188:	1a810129 	csel	w9, w9, w1, eq  // eq = none
    ff3b018c:	11407d07 	add	w7, w8, #0x1f, lsl #12
    ff3b0190:	5285cf81 	mov	w1, #0x2e7c                	// #11900
    ff3b0194:	113d40e7 	add	w7, w7, #0xf50
    ff3b0198:	531140e5 	lsl	w5, w7, #15
    ff3b019c:	0b073c27 	add	w7, w1, w7, lsl #15
    ff3b01a0:	b94000e1 	ldr	w1, [x7]
    ff3b01a4:	320a0021 	orr	w1, w1, #0x400000
    ff3b01a8:	b90000e1 	str	w1, [x7]
    ff3b01ac:	39413000 	ldrb	w0, [x0, #76]
    ff3b01b0:	71001c1f 	cmp	w0, #0x7
    ff3b01b4:	54000740 	b.eq	ff3b029c <data_training.constprop.0+0x154>  // b.none
    ff3b01b8:	7100181f 	cmp	w0, #0x6
    ff3b01bc:	54000740 	b.eq	ff3b02a4 <data_training.constprop.0+0x15c>  // b.none
    ff3b01c0:	71000c1f 	cmp	w0, #0x3
    ff3b01c4:	52801fea 	mov	w10, #0xff                  	// #255
    ff3b01c8:	528001c0 	mov	w0, #0xe                   	// #14
    ff3b01cc:	1a80114a 	csel	w10, w10, w0, ne  // ne = any
    ff3b01d0:	3600084a 	tbz	w10, #0, ff3b02d8 <data_training.constprop.0+0x190>
    ff3b01d4:	52850a0d 	mov	w13, #0x2850                	// #10320
    ff3b01d8:	112640a6 	add	w6, w5, #0x990
    ff3b01dc:	0b0d00ad 	add	w13, w5, w13
    ff3b01e0:	5280000c 	mov	w12, #0x0                   	// #0
    ff3b01e4:	5280002e 	mov	w14, #0x1                   	// #1
    ff3b01e8:	1acc21c0 	lsl	w0, w14, w12
    ff3b01ec:	6a09001f 	tst	w0, w9
    ff3b01f0:	54000680 	b.eq	ff3b02c0 <data_training.constprop.0+0x178>  // b.none
    ff3b01f4:	2a0803e0 	mov	w0, w8
    ff3b01f8:	2a0c03e1 	mov	w1, w12
    ff3b01fc:	97ffffbe 	bl	ff3b00f4 <select_per_cs_training_index>
    ff3b0200:	b94000c0 	ldr	w0, [x6]
    ff3b0204:	1125c0a1 	add	w1, w5, #0x970
    ff3b0208:	12a06022 	mov	w2, #0xfcfeffff            	// #-50397185
    ff3b020c:	12167400 	and	w0, w0, #0xfffffcff
    ff3b0210:	52854a03 	mov	w3, #0x2a50                	// #10832
    ff3b0214:	32170000 	orr	w0, w0, #0x200
    ff3b0218:	b90000c0 	str	w0, [x6]
    ff3b021c:	52858a04 	mov	w4, #0x2c50                	// #11344
    ff3b0220:	0b0300a3 	add	w3, w5, w3
    ff3b0224:	b9400020 	ldr	w0, [x1]
    ff3b0228:	0b0400a4 	add	w4, w5, w4
    ff3b022c:	52850411 	mov	w17, #0x2820                	// #10272
    ff3b0230:	52850012 	mov	w18, #0x2800                	// #10240
    ff3b0234:	0a020000 	and	w0, w0, w2
    ff3b0238:	112ae0a2 	add	w2, w5, #0xab8
    ff3b023c:	2a0c6000 	orr	w0, w0, w12, lsl #24
    ff3b0240:	32100000 	orr	w0, w0, #0x10000
    ff3b0244:	b9000020 	str	w0, [x1]
    ff3b0248:	b9400041 	ldr	w1, [x2]
    ff3b024c:	b94001af 	ldr	w15, [x13]
    ff3b0250:	b9400070 	ldr	w16, [x3]
    ff3b0254:	b9400080 	ldr	w0, [x4]
    ff3b0258:	53087c33 	lsr	w19, w1, #8
    ff3b025c:	0a412221 	and	w1, w17, w1, lsr #8
    ff3b0260:	531e7e10 	lsr	w16, w16, #30
    ff3b0264:	6b12003f 	cmp	w1, w18
    ff3b0268:	2a4f7a0f 	orr	w15, w16, w15, lsr #30
    ff3b026c:	2a4079e0 	orr	w0, w15, w0, lsr #30
    ff3b0270:	54000041 	b.ne	ff3b0278 <data_training.constprop.0+0x130>  // b.any
    ff3b0274:	34000200 	cbz	w0, ff3b02b4 <data_training.constprop.0+0x16c>
    ff3b0278:	362801b3 	tbz	w19, #5, ff3b02ac <data_training.constprop.0+0x164>
    ff3b027c:	12800000 	mov	w0, #0xffffffff            	// #-1
    ff3b0280:	a94153f3 	ldp	x19, x20, [sp, #16]
    ff3b0284:	a8c27bfd 	ldp	x29, x30, [sp], #32
    ff3b0288:	d65f03c0 	ret
    ff3b028c:	7100057f 	cmp	w11, #0x1
    ff3b0290:	52800069 	mov	w9, #0x3                   	// #3
    ff3b0294:	1a9f1529 	csinc	w9, w9, wzr, ne  // ne = any
    ff3b0298:	17ffffbd 	b	ff3b018c <data_training.constprop.0+0x44>
    ff3b029c:	528003ca 	mov	w10, #0x1e                  	// #30
    ff3b02a0:	17ffffcc 	b	ff3b01d0 <data_training.constprop.0+0x88>
    ff3b02a4:	528000ea 	mov	w10, #0x7                   	// #7
    ff3b02a8:	17ffffca 	b	ff3b01d0 <data_training.constprop.0+0x88>
    ff3b02ac:	34fffce0 	cbz	w0, ff3b0248 <data_training.constprop.0+0x100>
    ff3b02b0:	17fffff3 	b	ff3b027c <data_training.constprop.0+0x134>
    ff3b02b4:	112af0a0 	add	w0, w5, #0xabc
    ff3b02b8:	5287ef81 	mov	w1, #0x3f7c                	// #16252
    ff3b02bc:	b9000001 	str	w1, [x0]
    ff3b02c0:	1100058c 	add	w12, w12, #0x1
    ff3b02c4:	7100119f 	cmp	w12, #0x4
    ff3b02c8:	54fff901 	b.ne	ff3b01e8 <data_training.constprop.0+0xa0>  // b.any
    ff3b02cc:	b94000c0 	ldr	w0, [x6]
    ff3b02d0:	12167400 	and	w0, w0, #0xfffffcff
    ff3b02d4:	b90000c0 	str	w0, [x6]
    ff3b02d8:	529fdfee 	mov	w14, #0xfeff                	// #65279
    ff3b02dc:	52841400 	mov	w0, #0x20a0                	// #8352
    ff3b02e0:	1123c0a6 	add	w6, w5, #0x8f0
    ff3b02e4:	0b0000ad 	add	w13, w5, w0
    ff3b02e8:	5280000c 	mov	w12, #0x0                   	// #0
    ff3b02ec:	72bfff8e 	movk	w14, #0xfffc, lsl #16
    ff3b02f0:	6b0c017f 	cmp	w11, w12
    ff3b02f4:	540008c8 	b.hi	ff3b040c <data_training.constprop.0+0x2c4>  // b.pmore
    ff3b02f8:	52840411 	mov	w17, #0x2020                	// #8224
    ff3b02fc:	52850412 	mov	w18, #0x2820                	// #10272
    ff3b0300:	0b1100a0 	add	w0, w5, w17
    ff3b0304:	0b1200a3 	add	w3, w5, w18
    ff3b0308:	2a0003e2 	mov	w2, w0
    ff3b030c:	b9400041 	ldr	w1, [x2]
    ff3b0310:	32100021 	orr	w1, w1, #0x10000
    ff3b0314:	b9000041 	str	w1, [x2]
    ff3b0318:	11037002 	add	w2, w0, #0xdc
    ff3b031c:	11080000 	add	w0, w0, #0x200
    ff3b0320:	6b00007f 	cmp	w3, w0
    ff3b0324:	b9400041 	ldr	w1, [x2]
    ff3b0328:	12003c21 	and	w1, w1, #0xffff
    ff3b032c:	32070021 	orr	w1, w1, #0x2000000
    ff3b0330:	b9000041 	str	w1, [x2]
    ff3b0334:	54fffea1 	b.ne	ff3b0308 <data_training.constprop.0+0x1c0>  // b.any
    ff3b0338:	110c80a0 	add	w0, w5, #0x320
    ff3b033c:	52841590 	mov	w16, #0x20ac                	// #8364
    ff3b0340:	1124a0ae 	add	w14, w5, #0x928
    ff3b0344:	0b1000ad 	add	w13, w5, w16
    ff3b0348:	5280000c 	mov	w12, #0x0                   	// #0
    ff3b034c:	b9400001 	ldr	w1, [x0]
    ff3b0350:	32180021 	orr	w1, w1, #0x100
    ff3b0354:	b9000001 	str	w1, [x0]
    ff3b0358:	b94000c0 	ldr	w0, [x6]
    ff3b035c:	12167400 	and	w0, w0, #0xfffffcff
    ff3b0360:	b90000c0 	str	w0, [x6]
    ff3b0364:	112500a6 	add	w6, w5, #0x940
    ff3b0368:	6b0c017f 	cmp	w11, w12
    ff3b036c:	54000a88 	b.hi	ff3b04bc <data_training.constprop.0+0x374>  // b.pmore
    ff3b0370:	b94000c0 	ldr	w0, [x6]
    ff3b0374:	12067400 	and	w0, w0, #0xfcffffff
    ff3b0378:	b90000c0 	str	w0, [x6]
    ff3b037c:	371813aa 	tbnz	w10, #3, ff3b05f0 <data_training.constprop.0+0x4a8>
    ff3b0380:	3620156a 	tbz	w10, #4, ff3b062c <data_training.constprop.0+0x4e4>
    ff3b0384:	1127c0a6 	add	w6, w5, #0x9f0
    ff3b0388:	112b50ab 	add	w11, w5, #0xad4
    ff3b038c:	112790ac 	add	w12, w5, #0x9e4
    ff3b0390:	5280000a 	mov	w10, #0x0                   	// #0
    ff3b0394:	52800020 	mov	w0, #0x1                   	// #1
    ff3b0398:	1aca2000 	lsl	w0, w0, w10
    ff3b039c:	6a09001f 	tst	w0, w9
    ff3b03a0:	540013a0 	b.eq	ff3b0614 <data_training.constprop.0+0x4cc>  // b.none
    ff3b03a4:	2a0803e0 	mov	w0, w8
    ff3b03a8:	2a0a03e1 	mov	w1, w10
    ff3b03ac:	97ffff52 	bl	ff3b00f4 <select_per_cs_training_index>
    ff3b03b0:	b9400160 	ldr	w0, [x11]
    ff3b03b4:	529fdfe1 	mov	w1, #0xfeff                	// #65279
    ff3b03b8:	52860803 	mov	w3, #0x3040                	// #12352
    ff3b03bc:	12177800 	and	w0, w0, #0xfffffeff
    ff3b03c0:	b9000160 	str	w0, [x11]
    ff3b03c4:	72bfff81 	movk	w1, #0xfffc, lsl #16
    ff3b03c8:	b94000c0 	ldr	w0, [x6]
    ff3b03cc:	120e7400 	and	w0, w0, #0xfffcffff
    ff3b03d0:	320f0000 	orr	w0, w0, #0x20000
    ff3b03d4:	b90000c0 	str	w0, [x6]
    ff3b03d8:	b9400180 	ldr	w0, [x12]
    ff3b03dc:	0a010000 	and	w0, w0, w1
    ff3b03e0:	112ae0a1 	add	w1, w5, #0xab8
    ff3b03e4:	2a0a4000 	orr	w0, w0, w10, lsl #16
    ff3b03e8:	32180000 	orr	w0, w0, #0x100
    ff3b03ec:	b9000180 	str	w0, [x12]
    ff3b03f0:	b9400020 	ldr	w0, [x1]
    ff3b03f4:	53087c02 	lsr	w2, w0, #8
    ff3b03f8:	0a402060 	and	w0, w3, w0, lsr #8
    ff3b03fc:	71400c1f 	cmp	w0, #0x3, lsl #12
    ff3b0400:	54001040 	b.eq	ff3b0608 <data_training.constprop.0+0x4c0>  // b.none
    ff3b0404:	3637ff62 	tbz	w2, #6, ff3b03f0 <data_training.constprop.0+0x2a8>
    ff3b0408:	17ffff9d 	b	ff3b027c <data_training.constprop.0+0x134>
    ff3b040c:	2a0803e0 	mov	w0, w8
    ff3b0410:	2a0c03e1 	mov	w1, w12
    ff3b0414:	97ffff38 	bl	ff3b00f4 <select_per_cs_training_index>
    ff3b0418:	b94000c0 	ldr	w0, [x6]
    ff3b041c:	1123b0a1 	add	w1, w5, #0x8ec
    ff3b0420:	52845413 	mov	w19, #0x22a0                	// #8864
    ff3b0424:	12167400 	and	w0, w0, #0xfffffcff
    ff3b0428:	52849414 	mov	w20, #0x24a0                	// #9376
    ff3b042c:	32170000 	orr	w0, w0, #0x200
    ff3b0430:	b90000c0 	str	w0, [x6]
    ff3b0434:	5284d41e 	mov	w30, #0x26a0                	// #9888
    ff3b0438:	112ae0a2 	add	w2, w5, #0xab8
    ff3b043c:	b9400020 	ldr	w0, [x1]
    ff3b0440:	0b1300a3 	add	w3, w5, w19
    ff3b0444:	0b1400a4 	add	w4, w5, w20
    ff3b0448:	0b1e00af 	add	w15, w5, w30
    ff3b044c:	0a0e0000 	and	w0, w0, w14
    ff3b0450:	52848211 	mov	w17, #0x2410                	// #9232
    ff3b0454:	2a0c4000 	orr	w0, w0, w12, lsl #16
    ff3b0458:	52848012 	mov	w18, #0x2400                	// #9216
    ff3b045c:	32180000 	orr	w0, w0, #0x100
    ff3b0460:	b9000020 	str	w0, [x1]
    ff3b0464:	b9400041 	ldr	w1, [x2]
    ff3b0468:	b94001a0 	ldr	w0, [x13]
    ff3b046c:	b940007e 	ldr	w30, [x3]
    ff3b0470:	b9400090 	ldr	w16, [x4]
    ff3b0474:	53087c33 	lsr	w19, w1, #8
    ff3b0478:	b94001f4 	ldr	w20, [x15]
    ff3b047c:	2a1e0000 	orr	w0, w0, w30
    ff3b0480:	0a412221 	and	w1, w17, w1, lsr #8
    ff3b0484:	2a140210 	orr	w16, w16, w20
    ff3b0488:	6b12003f 	cmp	w1, w18
    ff3b048c:	2a100000 	orr	w0, w0, w16
    ff3b0490:	12140000 	and	w0, w0, #0x1000
    ff3b0494:	54000041 	b.ne	ff3b049c <data_training.constprop.0+0x354>  // b.any
    ff3b0498:	34000080 	cbz	w0, ff3b04a8 <data_training.constprop.0+0x360>
    ff3b049c:	3727ef13 	tbnz	w19, #4, ff3b027c <data_training.constprop.0+0x134>
    ff3b04a0:	34fffe20 	cbz	w0, ff3b0464 <data_training.constprop.0+0x31c>
    ff3b04a4:	17ffff76 	b	ff3b027c <data_training.constprop.0+0x134>
    ff3b04a8:	112af0a0 	add	w0, w5, #0xabc
    ff3b04ac:	5287ef81 	mov	w1, #0x3f7c                	// #16252
    ff3b04b0:	1100058c 	add	w12, w12, #0x1
    ff3b04b4:	b9000001 	str	w1, [x0]
    ff3b04b8:	17ffff8e 	b	ff3b02f0 <data_training.constprop.0+0x1a8>
    ff3b04bc:	2a0c03e1 	mov	w1, w12
    ff3b04c0:	2a0803e0 	mov	w0, w8
    ff3b04c4:	97ffff0c 	bl	ff3b00f4 <select_per_cs_training_index>
    ff3b04c8:	2a0e03e1 	mov	w1, w14
    ff3b04cc:	52845580 	mov	w0, #0x22ac                	// #8876
    ff3b04d0:	0b0000a3 	add	w3, w5, w0
    ff3b04d4:	b94000c0 	ldr	w0, [x6]
    ff3b04d8:	12a06022 	mov	w2, #0xfcfeffff            	// #-50397185
    ff3b04dc:	52849584 	mov	w4, #0x24ac                	// #9388
    ff3b04e0:	5284d58f 	mov	w15, #0x26ac                	// #9900
    ff3b04e4:	12067400 	and	w0, w0, #0xfcffffff
    ff3b04e8:	0b0400a4 	add	w4, w5, w4
    ff3b04ec:	32070000 	orr	w0, w0, #0x2000000
    ff3b04f0:	b90000c0 	str	w0, [x6]
    ff3b04f4:	0b0f00af 	add	w15, w5, w15
    ff3b04f8:	52844112 	mov	w18, #0x2208                	// #8712
    ff3b04fc:	b9400020 	ldr	w0, [x1]
    ff3b0500:	5284401e 	mov	w30, #0x2200                	// #8704
    ff3b0504:	0a020000 	and	w0, w0, w2
    ff3b0508:	112ae0a2 	add	w2, w5, #0xab8
    ff3b050c:	2a0c6000 	orr	w0, w0, w12, lsl #24
    ff3b0510:	32100000 	orr	w0, w0, #0x10000
    ff3b0514:	b9000020 	str	w0, [x1]
    ff3b0518:	b9400041 	ldr	w1, [x2]
    ff3b051c:	b94001a0 	ldr	w0, [x13]
    ff3b0520:	b9400074 	ldr	w20, [x3]
    ff3b0524:	b9400090 	ldr	w16, [x4]
    ff3b0528:	53087c33 	lsr	w19, w1, #8
    ff3b052c:	b94001f1 	ldr	w17, [x15]
    ff3b0530:	2a140000 	orr	w0, w0, w20
    ff3b0534:	0a412241 	and	w1, w18, w1, lsr #8
    ff3b0538:	6b1e003f 	cmp	w1, w30
    ff3b053c:	53167e31 	lsr	w17, w17, #22
    ff3b0540:	2a505a30 	orr	w16, w17, w16, lsr #22
    ff3b0544:	2a405a00 	orr	w0, w16, w0, lsr #22
    ff3b0548:	12000400 	and	w0, w0, #0x3
    ff3b054c:	54000041 	b.ne	ff3b0554 <data_training.constprop.0+0x40c>  // b.any
    ff3b0550:	34000080 	cbz	w0, ff3b0560 <data_training.constprop.0+0x418>
    ff3b0554:	371fe953 	tbnz	w19, #3, ff3b027c <data_training.constprop.0+0x134>
    ff3b0558:	34fffe00 	cbz	w0, ff3b0518 <data_training.constprop.0+0x3d0>
    ff3b055c:	17ffff48 	b	ff3b027c <data_training.constprop.0+0x134>
    ff3b0560:	112af0a0 	add	w0, w5, #0xabc
    ff3b0564:	5287ef81 	mov	w1, #0x3f7c                	// #16252
    ff3b0568:	1100058c 	add	w12, w12, #0x1
    ff3b056c:	b9000001 	str	w1, [x0]
    ff3b0570:	17ffff7e 	b	ff3b0368 <data_training.constprop.0+0x220>
    ff3b0574:	2a0803e0 	mov	w0, w8
    ff3b0578:	2a0c03e1 	mov	w1, w12
    ff3b057c:	97fffede 	bl	ff3b00f4 <select_per_cs_training_index>
    ff3b0580:	b94000c0 	ldr	w0, [x6]
    ff3b0584:	52842082 	mov	w2, #0x2104                	// #8452
    ff3b0588:	52842003 	mov	w3, #0x2100                	// #8448
    ff3b058c:	120e7400 	and	w0, w0, #0xfffcffff
    ff3b0590:	320f0000 	orr	w0, w0, #0x20000
    ff3b0594:	b90000c0 	str	w0, [x6]
    ff3b0598:	b94001a0 	ldr	w0, [x13]
    ff3b059c:	0a0f0000 	and	w0, w0, w15
    ff3b05a0:	2a0c6000 	orr	w0, w0, w12, lsl #24
    ff3b05a4:	32180000 	orr	w0, w0, #0x100
    ff3b05a8:	b90001a0 	str	w0, [x13]
    ff3b05ac:	b94001c0 	ldr	w0, [x14]
    ff3b05b0:	53087c01 	lsr	w1, w0, #8
    ff3b05b4:	0a402040 	and	w0, w2, w0, lsr #8
    ff3b05b8:	6b03001f 	cmp	w0, w3
    ff3b05bc:	54000060 	b.eq	ff3b05c8 <data_training.constprop.0+0x480>  // b.none
    ff3b05c0:	3617ff61 	tbz	w1, #2, ff3b05ac <data_training.constprop.0+0x464>
    ff3b05c4:	17ffff2e 	b	ff3b027c <data_training.constprop.0+0x134>
    ff3b05c8:	112af0a0 	add	w0, w5, #0xabc
    ff3b05cc:	1100058c 	add	w12, w12, #0x1
    ff3b05d0:	5287ef81 	mov	w1, #0x3f7c                	// #16252
    ff3b05d4:	b9000001 	str	w1, [x0]
    ff3b05d8:	6b0c017f 	cmp	w11, w12
    ff3b05dc:	54fffcc8 	b.hi	ff3b0574 <data_training.constprop.0+0x42c>  // b.pmore
    ff3b05e0:	b94000c0 	ldr	w0, [x6]
    ff3b05e4:	120e7400 	and	w0, w0, #0xfffcffff
    ff3b05e8:	b90000c0 	str	w0, [x6]
    ff3b05ec:	17ffff65 	b	ff3b0380 <data_training.constprop.0+0x238>
    ff3b05f0:	529fdfef 	mov	w15, #0xfeff                	// #65279
    ff3b05f4:	1124a0ad 	add	w13, w5, #0x928
    ff3b05f8:	112ae0ae 	add	w14, w5, #0xab8
    ff3b05fc:	5280000c 	mov	w12, #0x0                   	// #0
    ff3b0600:	72bf9fef 	movk	w15, #0xfcff, lsl #16
    ff3b0604:	17fffff5 	b	ff3b05d8 <data_training.constprop.0+0x490>
    ff3b0608:	112af0a0 	add	w0, w5, #0xabc
    ff3b060c:	5287ef81 	mov	w1, #0x3f7c                	// #16252
    ff3b0610:	b9000001 	str	w1, [x0]
    ff3b0614:	1100054a 	add	w10, w10, #0x1
    ff3b0618:	7100115f 	cmp	w10, #0x4
    ff3b061c:	54ffebc1 	b.ne	ff3b0394 <data_training.constprop.0+0x24c>  // b.any
    ff3b0620:	b94000c0 	ldr	w0, [x6]
    ff3b0624:	120e7400 	and	w0, w0, #0xfffcffff
    ff3b0628:	b90000c0 	str	w0, [x6]
    ff3b062c:	b94000e0 	ldr	w0, [x7]
    ff3b0630:	12097800 	and	w0, w0, #0xffbfffff
    ff3b0634:	b90000e0 	str	w0, [x7]
    ff3b0638:	52800000 	mov	w0, #0x0                   	// #0
    ff3b063c:	17ffff11 	b	ff3b0280 <data_training.constprop.0+0x138>

00000000ff3b0640 <dmc_resume>:
    ff3b0640:	a9ba7bfd 	stp	x29, x30, [sp, #-96]!
    ff3b0644:	d280a200 	mov	x0, #0x510                 	// #1296
    ff3b0648:	f2bfeec0 	movk	x0, #0xff76, lsl #16
    ff3b064c:	910003fd 	mov	x29, sp
    ff3b0650:	a90153f3 	stp	x19, x20, [sp, #16]
    ff3b0654:	52800041 	mov	w1, #0x2                   	// #2
    ff3b0658:	a9025bf5 	stp	x21, x22, [sp, #32]
    ff3b065c:	a90363f7 	stp	x23, x24, [sp, #48]
    ff3b0660:	a9046bf9 	stp	x25, x26, [sp, #64]
    ff3b0664:	f9002bfb 	str	x27, [sp, #80]
    ff3b0668:	b9000001 	str	w1, [x0]
    ff3b066c:	d2900080 	mov	x0, #0x8004                	// #32772
    ff3b0670:	f2bff080 	movk	x0, #0xff84, lsl #16
    ff3b0674:	52800121 	mov	w1, #0x9                   	// #9
    ff3b0678:	b9000001 	str	w1, [x0]
    ff3b067c:	d2900001 	mov	x1, #0x8000                	// #32768
    ff3b0680:	f2bff081 	movk	x1, #0xff84, lsl #16
    ff3b0684:	b9400020 	ldr	w0, [x1]
    ff3b0688:	32000000 	orr	w0, w0, #0x1
    ff3b068c:	b9000020 	str	w0, [x1]
    ff3b0690:	d2900180 	mov	x0, #0x800c                	// #32780
    ff3b0694:	52800ec1 	mov	w1, #0x76                  	// #118
    ff3b0698:	f2bff080 	movk	x0, #0xff84, lsl #16
    ff3b069c:	b9000001 	str	w1, [x0]
    ff3b06a0:	940001ad 	bl	ff3b0d54 <secure_watchdog_ungate>
    ff3b06a4:	d2800b81 	mov	x1, #0x5c                  	// #92
    ff3b06a8:	12800282 	mov	w2, #0xffffffeb            	// #-21
    ff3b06ac:	f2bfe621 	movk	x1, #0xff31, lsl #16
    ff3b06b0:	b9400020 	ldr	w0, [x1]
    ff3b06b4:	0a020000 	and	w0, w0, w2
    ff3b06b8:	b9000020 	str	w0, [x1]
    ff3b06bc:	940001b7 	bl	ff3b0d98 <pmu_sgrf_rst_hld_release>
    ff3b06c0:	940001bb 	bl	ff3b0dac <restore_pmu_rsthold>
    ff3b06c4:	940001a9 	bl	ff3b0d68 <sram_secure_timer_init>
    ff3b06c8:	b0000000 	adrp	x0, ff3b1000 <rk3399m0pmu_bin>
    ff3b06cc:	d2802302 	mov	x2, #0x118                 	// #280
    ff3b06d0:	913cc001 	add	x1, x0, #0xf30
    ff3b06d4:	f2bfeec2 	movk	x2, #0xff76, lsl #16
    ff3b06d8:	b94f3000 	ldr	w0, [x0, #3888]
    ff3b06dc:	d2800983 	mov	x3, #0x4c                  	// #76
    ff3b06e0:	f2bfeec3 	movk	x3, #0xff76, lsl #16
    ff3b06e4:	d2800a04 	mov	x4, #0x50                  	// #80
    ff3b06e8:	32103c00 	orr	w0, w0, #0xffff0000
    ff3b06ec:	b9000040 	str	w0, [x2]
    ff3b06f0:	52a06000 	mov	w0, #0x3000000             	// #50331648
    ff3b06f4:	b9000060 	str	w0, [x3]
    ff3b06f8:	d2800802 	mov	x2, #0x40                  	// #64
    ff3b06fc:	91001020 	add	x0, x1, #0x4
    ff3b0700:	f2bfeec2 	movk	x2, #0xff76, lsl #16
    ff3b0704:	b9400421 	ldr	w1, [x1, #4]
    ff3b0708:	f2bfeec4 	movk	x4, #0xff76, lsl #16
    ff3b070c:	32103c21 	orr	w1, w1, #0xffff0000
    ff3b0710:	b9000041 	str	w1, [x2]
    ff3b0714:	b9400401 	ldr	w1, [x0, #4]
    ff3b0718:	32103c21 	orr	w1, w1, #0xffff0000
    ff3b071c:	b9000441 	str	w1, [x2, #4]
    ff3b0720:	d2800901 	mov	x1, #0x48                  	// #72
    ff3b0724:	f2bfeec1 	movk	x1, #0xff76, lsl #16
    ff3b0728:	b9400802 	ldr	w2, [x0, #8]
    ff3b072c:	b9000022 	str	w2, [x1]
    ff3b0730:	b9401002 	ldr	w2, [x0, #16]
    ff3b0734:	32103c42 	orr	w2, w2, #0xffff0000
    ff3b0738:	b9000082 	str	w2, [x4]
    ff3b073c:	b9401402 	ldr	w2, [x0, #20]
    ff3b0740:	32103c42 	orr	w2, w2, #0xffff0000
    ff3b0744:	b9000482 	str	w2, [x4, #4]
    ff3b0748:	b9400c00 	ldr	w0, [x0, #12]
    ff3b074c:	32103c00 	orr	w0, w0, #0xffff0000
    ff3b0750:	b9000060 	str	w0, [x3]
    ff3b0754:	b9400020 	ldr	w0, [x1]
    ff3b0758:	36ffffe0 	tbz	w0, #31, ff3b0754 <dmc_resume+0x114>
    ff3b075c:	d2800800 	mov	x0, #0x40                  	// #64
    ff3b0760:	52984001 	mov	w1, #0xc200                	// #49664
    ff3b0764:	f2bfe660 	movk	x0, #0xff33, lsl #16
    ff3b0768:	b0000013 	adrp	x19, ff3b1000 <rk3399m0pmu_bin>
    ff3b076c:	b0000016 	adrp	x22, ff3b1000 <rk3399m0pmu_bin>
    ff3b0770:	d2802215 	mov	x21, #0x110                 	// #272
    ff3b0774:	91090273 	add	x19, x19, #0x240
    ff3b0778:	910a52d6 	add	x22, x22, #0x294
    ff3b077c:	72b84001 	movk	w1, #0xc200, lsl #16
    ff3b0780:	52800014 	mov	w20, #0x0                   	// #0
    ff3b0784:	f2bff515 	movk	x21, #0xffa8, lsl #16
    ff3b0788:	b9000001 	str	w1, [x0]
    ff3b078c:	52850005 	mov	w5, #0x2800                	// #10240
    ff3b0790:	52800006 	mov	w6, #0x0                   	// #0
    ff3b0794:	72bff505 	movk	w5, #0xffa8, lsl #16
    ff3b0798:	39413660 	ldrb	w0, [x19, #77]
    ff3b079c:	6b06001f 	cmp	w0, w6
    ff3b07a0:	54000528 	b.hi	ff3b0844 <dmc_resume+0x204>  // b.pmore
    ff3b07a4:	39400660 	ldrb	w0, [x19, #1]
    ff3b07a8:	34000040 	cbz	w0, ff3b07b0 <dmc_resume+0x170>
    ff3b07ac:	32000294 	orr	w20, w20, #0x1
    ff3b07b0:	39409660 	ldrb	w0, [x19, #37]
    ff3b07b4:	34000040 	cbz	w0, ff3b07bc <dmc_resume+0x17c>
    ff3b07b8:	321f0294 	orr	w20, w20, #0x2
    ff3b07bc:	b94002a0 	ldr	w0, [x21]
    ff3b07c0:	d2902201 	mov	x1, #0x8110                	// #33040
    ff3b07c4:	f2bff501 	movk	x1, #0xffa8, lsl #16
    ff3b07c8:	32100000 	orr	w0, w0, #0x10000
    ff3b07cc:	b90002a0 	str	w0, [x21]
    ff3b07d0:	b9400020 	ldr	w0, [x1]
    ff3b07d4:	32100000 	orr	w0, w0, #0x10000
    ff3b07d8:	b9000020 	str	w0, [x1]
    ff3b07dc:	12000281 	and	w1, w20, #0x1
    ff3b07e0:	360000d4 	tbz	w20, #0, ff3b07f8 <dmc_resume+0x1b8>
    ff3b07e4:	d2800402 	mov	x2, #0x20                  	// #32
    ff3b07e8:	f2bfe622 	movk	x2, #0xff31, lsl #16
    ff3b07ec:	b9400040 	ldr	w0, [x2]
    ff3b07f0:	320d0000 	orr	w0, w0, #0x80000
    ff3b07f4:	b9000040 	str	w0, [x2]
    ff3b07f8:	121f0286 	and	w6, w20, #0x2
    ff3b07fc:	36080f34 	tbz	w20, #1, ff3b09e0 <dmc_resume+0x3a0>
    ff3b0800:	d2800402 	mov	x2, #0x20                  	// #32
    ff3b0804:	f2bfe622 	movk	x2, #0xff31, lsl #16
    ff3b0808:	b9400040 	ldr	w0, [x2]
    ff3b080c:	32090000 	orr	w0, w0, #0x800000
    ff3b0810:	b9000040 	str	w0, [x2]
    ff3b0814:	35000e81 	cbnz	w1, ff3b09e4 <dmc_resume+0x3a4>
    ff3b0818:	d295de82 	mov	x2, #0xaef4                	// #44788
    ff3b081c:	f2bff502 	movk	x2, #0xffa8, lsl #16
    ff3b0820:	b9400040 	ldr	w0, [x2]
    ff3b0824:	12067400 	and	w0, w0, #0xfcffffff
    ff3b0828:	32070000 	orr	w0, w0, #0x2000000
    ff3b082c:	b9000040 	str	w0, [x2]
    ff3b0830:	35000e81 	cbnz	w1, ff3b0a00 <dmc_resume+0x3c0>
    ff3b0834:	d2906586 	mov	x6, #0x832c                	// #33580
    ff3b0838:	52800cc5 	mov	w5, #0x66                  	// #102
    ff3b083c:	f2bff506 	movk	x6, #0xffa8, lsl #16
    ff3b0840:	140000fa 	b	ff3b0c28 <dmc_resume+0x5e8>
    ff3b0844:	52800022 	mov	w2, #0x1                   	// #1
    ff3b0848:	2a0203e1 	mov	w1, w2
    ff3b084c:	2a0603e0 	mov	w0, w6
    ff3b0850:	97fffe17 	bl	ff3b00ac <rkclk_ddr_reset>
    ff3b0854:	52800140 	mov	w0, #0xa                   	// #10
    ff3b0858:	97fffe09 	bl	ff3b007c <sram_udelay>
    ff3b085c:	2a0603e0 	mov	w0, w6
    ff3b0860:	52800002 	mov	w2, #0x0                   	// #0
    ff3b0864:	52800021 	mov	w1, #0x1                   	// #1
    ff3b0868:	97fffe11 	bl	ff3b00ac <rkclk_ddr_reset>
    ff3b086c:	52800140 	mov	w0, #0xa                   	// #10
    ff3b0870:	97fffe03 	bl	ff3b007c <sram_udelay>
    ff3b0874:	52800002 	mov	w2, #0x0                   	// #0
    ff3b0878:	52800001 	mov	w1, #0x0                   	// #0
    ff3b087c:	2a0603e0 	mov	w0, w6
    ff3b0880:	97fffe0b 	bl	ff3b00ac <rkclk_ddr_reset>
    ff3b0884:	52800140 	mov	w0, #0xa                   	// #10
    ff3b0888:	97fffdfd 	bl	ff3b007c <sram_udelay>
    ff3b088c:	aa1603e1 	mov	x1, x22
    ff3b0890:	52802962 	mov	w2, #0x14b                 	// #331
    ff3b0894:	1284ff60 	mov	w0, #0xffffd804            	// #-10236
    ff3b0898:	0b0000a0 	add	w0, w5, w0
    ff3b089c:	97fffdef 	bl	ff3b0058 <sram_regcpy>
    ff3b08a0:	514008a4 	sub	w4, w5, #0x2, lsl #12
    ff3b08a4:	1284ffe1 	mov	w1, #0xffffd800            	// #-10240
    ff3b08a8:	0b0100a7 	add	w7, w5, w1
    ff3b08ac:	b9405260 	ldr	w0, [x19, #80]
    ff3b08b0:	52801902 	mov	w2, #0xc8                  	// #200
    ff3b08b4:	b0000001 	adrp	x1, ff3b1000 <rk3399m0pmu_bin>
    ff3b08b8:	911f0021 	add	x1, x1, #0x7c0
    ff3b08bc:	b90000e0 	str	w0, [x7]
    ff3b08c0:	aa0403e0 	mov	x0, x4
    ff3b08c4:	97fffde5 	bl	ff3b0058 <sram_regcpy>
    ff3b08c8:	1118e0a0 	add	w0, w5, #0x638
    ff3b08cc:	52800062 	mov	w2, #0x3                   	// #3
    ff3b08d0:	b0000001 	adrp	x1, ff3b1000 <rk3399m0pmu_bin>
    ff3b08d4:	91393021 	add	x1, x1, #0xe4c
    ff3b08d8:	97fffde0 	bl	ff3b0058 <sram_regcpy>
    ff3b08dc:	1284dde2 	mov	w2, #0xffffd910            	// #-9968
    ff3b08e0:	0b0200a1 	add	w1, w5, w2
    ff3b08e4:	b9400020 	ldr	w0, [x1]
    ff3b08e8:	32100000 	orr	w0, w0, #0x10000
    ff3b08ec:	b9000020 	str	w0, [x1]
    ff3b08f0:	111bd0a1 	add	w1, w5, #0x6f4
    ff3b08f4:	b9400020 	ldr	w0, [x1]
    ff3b08f8:	12067400 	and	w0, w0, #0xfcffffff
    ff3b08fc:	32080000 	orr	w0, w0, #0x1000000
    ff3b0900:	b9000020 	str	w0, [x1]
    ff3b0904:	d5033ebf 	dmb	st
    ff3b0908:	b9400080 	ldr	w0, [x4]
    ff3b090c:	111980a2 	add	w2, w5, #0x660
    ff3b0910:	111990a3 	add	w3, w5, #0x664
    ff3b0914:	1118f0a1 	add	w1, w5, #0x63c
    ff3b0918:	32000000 	orr	w0, w0, #0x1
    ff3b091c:	b9000080 	str	w0, [x4]
    ff3b0920:	1119a0a4 	add	w4, w5, #0x668
    ff3b0924:	b94000e0 	ldr	w0, [x7]
    ff3b0928:	32000000 	orr	w0, w0, #0x1
    ff3b092c:	b90000e0 	str	w0, [x7]
    ff3b0930:	320083e7 	mov	w7, #0x10001               	// #65537
    ff3b0934:	b9400049 	ldr	w9, [x2]
    ff3b0938:	b9400060 	ldr	w0, [x3]
    ff3b093c:	b9400088 	ldr	w8, [x4]
    ff3b0940:	368000a9 	tbz	w9, #16, ff3b0954 <dmc_resume+0x314>
    ff3b0944:	12008000 	and	w0, w0, #0x10001
    ff3b0948:	6b07001f 	cmp	w0, w7
    ff3b094c:	54000041 	b.ne	ff3b0954 <dmc_resume+0x314>  // b.any
    ff3b0950:	37000068 	tbnz	w8, #0, ff3b095c <dmc_resume+0x31c>
    ff3b0954:	b9400020 	ldr	w0, [x1]
    ff3b0958:	3607fee0 	tbz	w0, #0, ff3b0934 <dmc_resume+0x2f4>
    ff3b095c:	111800a0 	add	w0, w5, #0x600
    ff3b0960:	528007e2 	mov	w2, #0x3f                  	// #63
    ff3b0964:	b0000001 	adrp	x1, ff3b1000 <rk3399m0pmu_bin>
    ff3b0968:	91385021 	add	x1, x1, #0xe14
    ff3b096c:	97fffdbb 	bl	ff3b0058 <sram_regcpy>
    ff3b0970:	512000a4 	sub	w4, w5, #0x800
    ff3b0974:	b0000007 	adrp	x7, ff3b1000 <rk3399m0pmu_bin>
    ff3b0978:	912b80e7 	add	x7, x7, #0xae0
    ff3b097c:	2a0403e0 	mov	w0, w4
    ff3b0980:	aa0703e1 	mov	x1, x7
    ff3b0984:	52800b62 	mov	w2, #0x5b                  	// #91
    ff3b0988:	97fffdb4 	bl	ff3b0058 <sram_regcpy>
    ff3b098c:	11080084 	add	w4, w4, #0x200
    ff3b0990:	6b0400bf 	cmp	w5, w4
    ff3b0994:	54ffff41 	b.ne	ff3b097c <dmc_resume+0x33c>  // b.any
    ff3b0998:	2a0503e0 	mov	w0, w5
    ff3b099c:	528004c2 	mov	w2, #0x26                  	// #38
    ff3b09a0:	b0000001 	adrp	x1, ff3b1000 <rk3399m0pmu_bin>
    ff3b09a4:	91313021 	add	x1, x1, #0xc4c
    ff3b09a8:	97fffdac 	bl	ff3b0058 <sram_regcpy>
    ff3b09ac:	110800a0 	add	w0, w5, #0x200
    ff3b09b0:	528004c2 	mov	w2, #0x26                  	// #38
    ff3b09b4:	b0000001 	adrp	x1, ff3b1000 <rk3399m0pmu_bin>
    ff3b09b8:	91339021 	add	x1, x1, #0xce4
    ff3b09bc:	97fffda7 	bl	ff3b0058 <sram_regcpy>
    ff3b09c0:	528004c2 	mov	w2, #0x26                  	// #38
    ff3b09c4:	111000a0 	add	w0, w5, #0x400
    ff3b09c8:	b0000001 	adrp	x1, ff3b1000 <rk3399m0pmu_bin>
    ff3b09cc:	9135f021 	add	x1, x1, #0xd7c
    ff3b09d0:	97fffda2 	bl	ff3b0058 <sram_regcpy>
    ff3b09d4:	110004c6 	add	w6, w6, #0x1
    ff3b09d8:	114020a5 	add	w5, w5, #0x8, lsl #12
    ff3b09dc:	17ffff6f 	b	ff3b0798 <dmc_resume+0x158>
    ff3b09e0:	340003e1 	cbz	w1, ff3b0a5c <dmc_resume+0x41c>
    ff3b09e4:	d285de82 	mov	x2, #0x2ef4                	// #12020
    ff3b09e8:	f2bff502 	movk	x2, #0xffa8, lsl #16
    ff3b09ec:	b9400040 	ldr	w0, [x2]
    ff3b09f0:	12067400 	and	w0, w0, #0xfcffffff
    ff3b09f4:	32070000 	orr	w0, w0, #0x2000000
    ff3b09f8:	b9000040 	str	w0, [x2]
    ff3b09fc:	35fff0e6 	cbnz	w6, ff3b0818 <dmc_resume+0x1d8>
    ff3b0a00:	d2806587 	mov	x7, #0x32c                 	// #812
    ff3b0a04:	52800cc5 	mov	w5, #0x66                  	// #102
    ff3b0a08:	f2bff507 	movk	x7, #0xffa8, lsl #16
    ff3b0a0c:	b94000e0 	ldr	w0, [x7]
    ff3b0a10:	36180fa0 	tbz	w0, #3, ff3b0c04 <dmc_resume+0x5c4>
    ff3b0a14:	b94002a0 	ldr	w0, [x21]
    ff3b0a18:	b0000002 	adrp	x2, ff3b1000 <rk3399m0pmu_bin>
    ff3b0a1c:	d2851c83 	mov	x3, #0x28e4                	// #10468
    ff3b0a20:	913c4042 	add	x2, x2, #0xf10
    ff3b0a24:	120f7800 	and	w0, w0, #0xfffeffff
    ff3b0a28:	b90002a0 	str	w0, [x21]
    ff3b0a2c:	d2841c80 	mov	x0, #0x20e4                	// #8420
    ff3b0a30:	f2bff503 	movk	x3, #0xffa8, lsl #16
    ff3b0a34:	f2bff500 	movk	x0, #0xffa8, lsl #16
    ff3b0a38:	b9400001 	ldr	w1, [x0]
    ff3b0a3c:	b8404444 	ldr	w4, [x2], #4
    ff3b0a40:	12044c21 	and	w1, w1, #0xf000ffff
    ff3b0a44:	2a040021 	orr	w1, w1, w4
    ff3b0a48:	b9000001 	str	w1, [x0]
    ff3b0a4c:	91080000 	add	x0, x0, #0x200
    ff3b0a50:	eb03001f 	cmp	x0, x3
    ff3b0a54:	54ffff21 	b.ne	ff3b0a38 <dmc_resume+0x3f8>  // b.any
    ff3b0a58:	35ffeee6 	cbnz	w6, ff3b0834 <dmc_resume+0x1f4>
    ff3b0a5c:	d288011b 	mov	x27, #0x4008                	// #16392
    ff3b0a60:	aa1303f9 	mov	x25, x19
    ff3b0a64:	f2bff51b 	movk	x27, #0xffa8, lsl #16
    ff3b0a68:	5280001a 	mov	w26, #0x0                   	// #0
    ff3b0a6c:	52800037 	mov	w23, #0x1                   	// #1
    ff3b0a70:	52800078 	mov	w24, #0x3                   	// #3
    ff3b0a74:	39413660 	ldrb	w0, [x19, #77]
    ff3b0a78:	6b1a001f 	cmp	w0, w26
    ff3b0a7c:	54001028 	b.hi	ff3b0c80 <dmc_resume+0x640>  // b.pmore
    ff3b0a80:	39400660 	ldrb	w0, [x19, #1]
    ff3b0a84:	340002a0 	cbz	w0, ff3b0ad8 <dmc_resume+0x498>
    ff3b0a88:	d2880200 	mov	x0, #0x4010                	// #16400
    ff3b0a8c:	b9400e61 	ldr	w1, [x19, #12]
    ff3b0a90:	f2bff500 	movk	x0, #0xffa8, lsl #16
    ff3b0a94:	b9000001 	str	w1, [x0]
    ff3b0a98:	b9401261 	ldr	w1, [x19, #16]
    ff3b0a9c:	b9000401 	str	w1, [x0, #4]
    ff3b0aa0:	b9401661 	ldr	w1, [x19, #20]
    ff3b0aa4:	b9000801 	str	w1, [x0, #8]
    ff3b0aa8:	b9401a61 	ldr	w1, [x19, #24]
    ff3b0aac:	b9000c01 	str	w1, [x0, #12]
    ff3b0ab0:	b9401e61 	ldr	w1, [x19, #28]
    ff3b0ab4:	b9010001 	str	w1, [x0, #256]
    ff3b0ab8:	39400260 	ldrb	w0, [x19]
    ff3b0abc:	7100041f 	cmp	w0, #0x1
    ff3b0ac0:	540000c1 	b.ne	ff3b0ad8 <dmc_resume+0x498>  // b.any
    ff3b0ac4:	d2808a01 	mov	x1, #0x450                 	// #1104
    ff3b0ac8:	f2bff501 	movk	x1, #0xffa8, lsl #16
    ff3b0acc:	b9400020 	ldr	w0, [x1]
    ff3b0ad0:	320f0000 	orr	w0, w0, #0x20000
    ff3b0ad4:	b9000020 	str	w0, [x1]
    ff3b0ad8:	39409660 	ldrb	w0, [x19, #37]
    ff3b0adc:	340002a0 	cbz	w0, ff3b0b30 <dmc_resume+0x4f0>
    ff3b0ae0:	d2980200 	mov	x0, #0xc010                	// #49168
    ff3b0ae4:	b9403261 	ldr	w1, [x19, #48]
    ff3b0ae8:	f2bff500 	movk	x0, #0xffa8, lsl #16
    ff3b0aec:	b9000001 	str	w1, [x0]
    ff3b0af0:	b9403661 	ldr	w1, [x19, #52]
    ff3b0af4:	b9000401 	str	w1, [x0, #4]
    ff3b0af8:	b9403a61 	ldr	w1, [x19, #56]
    ff3b0afc:	b9000801 	str	w1, [x0, #8]
    ff3b0b00:	b9403e61 	ldr	w1, [x19, #60]
    ff3b0b04:	b9000c01 	str	w1, [x0, #12]
    ff3b0b08:	b9404261 	ldr	w1, [x19, #64]
    ff3b0b0c:	b9010001 	str	w1, [x0, #256]
    ff3b0b10:	39409260 	ldrb	w0, [x19, #36]
    ff3b0b14:	7100041f 	cmp	w0, #0x1
    ff3b0b18:	540000c1 	b.ne	ff3b0b30 <dmc_resume+0x4f0>  // b.any
    ff3b0b1c:	d2908a01 	mov	x1, #0x8450                	// #33872
    ff3b0b20:	f2bff501 	movk	x1, #0xffa8, lsl #16
    ff3b0b24:	b9400020 	ldr	w0, [x1]
    ff3b0b28:	320f0000 	orr	w0, w0, #0x20000
    ff3b0b2c:	b9000020 	str	w0, [x1]
    ff3b0b30:	39413a60 	ldrb	w0, [x19, #78]
    ff3b0b34:	d29c0201 	mov	x1, #0xe010                	// #57360
    ff3b0b38:	f2bfe661 	movk	x1, #0xff33, lsl #16
    ff3b0b3c:	53165400 	lsl	w0, w0, #10
    ff3b0b40:	32061000 	orr	w0, w0, #0x7c000000
    ff3b0b44:	b9000020 	str	w0, [x1]
    ff3b0b48:	d2802480 	mov	x0, #0x124                 	// #292
    ff3b0b4c:	52803001 	mov	w1, #0x180                 	// #384
    ff3b0b50:	f2bfeea0 	movk	x0, #0xff75, lsl #16
    ff3b0b54:	72a03801 	movk	w1, #0x1c0, lsl #16
    ff3b0b58:	b9000001 	str	w1, [x0]
    ff3b0b5c:	d280a201 	mov	x1, #0x510                 	// #1296
    ff3b0b60:	f2bfeec1 	movk	x1, #0xff76, lsl #16
    ff3b0b64:	b9400020 	ldr	w0, [x1]
    ff3b0b68:	32000400 	orr	w0, w0, #0x3
    ff3b0b6c:	b9000020 	str	w0, [x1]
    ff3b0b70:	d2803780 	mov	x0, #0x1bc                 	// #444
    ff3b0b74:	528000a1 	mov	w1, #0x5                   	// #5
    ff3b0b78:	f2bff500 	movk	x0, #0xffa8, lsl #16
    ff3b0b7c:	72a006a1 	movk	w1, #0x35, lsl #16
    ff3b0b80:	b9400000 	ldr	w0, [x0]
    ff3b0b84:	53107c00 	lsr	w0, w0, #16
    ff3b0b88:	11000400 	add	w0, w0, #0x1
    ff3b0b8c:	12000014 	and	w20, w0, #0x1
    ff3b0b90:	531c0000 	ubfiz	w0, w0, #4, #1
    ff3b0b94:	2a010000 	orr	w0, w0, w1
    ff3b0b98:	d2bfec41 	mov	x1, #0xff620000            	// #4284612608
    ff3b0b9c:	b9000020 	str	w0, [x1]
    ff3b0ba0:	d2800200 	mov	x0, #0x10                  	// #16
    ff3b0ba4:	f2bfec40 	movk	x0, #0xff62, lsl #16
    ff3b0ba8:	aa0003e1 	mov	x1, x0
    ff3b0bac:	b9400002 	ldr	w2, [x0]
    ff3b0bb0:	3617ffe2 	tbz	w2, #2, ff3b0bac <dmc_resume+0x56c>
    ff3b0bb4:	d2bfec40 	mov	x0, #0xff620000            	// #4284612608
    ff3b0bb8:	320f83e2 	mov	w2, #0x20002               	// #131074
    ff3b0bbc:	b9000002 	str	w2, [x0]
    ff3b0bc0:	b9400020 	ldr	w0, [x1]
    ff3b0bc4:	3607ffe0 	tbz	w0, #0, ff3b0bc0 <dmc_resume+0x580>
    ff3b0bc8:	5285c016 	mov	w22, #0x2e00                	// #11776
    ff3b0bcc:	53185e94 	lsl	w20, w20, #8
    ff3b0bd0:	39413675 	ldrb	w21, [x19, #77]
    ff3b0bd4:	72bff516 	movk	w22, #0xffa8, lsl #16
    ff3b0bd8:	52800013 	mov	w19, #0x0                   	// #0
    ff3b0bdc:	12806037 	mov	w23, #0xfffffcfe            	// #-770
    ff3b0be0:	6b1302bf 	cmp	w21, w19
    ff3b0be4:	54000a48 	b.hi	ff3b0d2c <dmc_resume+0x6ec>  // b.pmore
    ff3b0be8:	a94153f3 	ldp	x19, x20, [sp, #16]
    ff3b0bec:	a9425bf5 	ldp	x21, x22, [sp, #32]
    ff3b0bf0:	a94363f7 	ldp	x23, x24, [sp, #48]
    ff3b0bf4:	a9446bf9 	ldp	x25, x26, [sp, #64]
    ff3b0bf8:	f9402bfb 	ldr	x27, [sp, #80]
    ff3b0bfc:	a8c67bfd 	ldp	x29, x30, [sp], #96
    ff3b0c00:	d65f03c0 	ret
    ff3b0c04:	710004a5 	subs	w5, w5, #0x1
    ff3b0c08:	54ffdc20 	b.eq	ff3b078c <dmc_resume+0x14c>  // b.none
    ff3b0c0c:	52800c80 	mov	w0, #0x64                  	// #100
    ff3b0c10:	97fffd1b 	bl	ff3b007c <sram_udelay>
    ff3b0c14:	17ffff7e 	b	ff3b0a0c <dmc_resume+0x3cc>
    ff3b0c18:	710004a5 	subs	w5, w5, #0x1
    ff3b0c1c:	54ffdb80 	b.eq	ff3b078c <dmc_resume+0x14c>  // b.none
    ff3b0c20:	52800c80 	mov	w0, #0x64                  	// #100
    ff3b0c24:	97fffd16 	bl	ff3b007c <sram_udelay>
    ff3b0c28:	b94000c0 	ldr	w0, [x6]
    ff3b0c2c:	361fff60 	tbz	w0, #3, ff3b0c18 <dmc_resume+0x5d8>
    ff3b0c30:	d2902201 	mov	x1, #0x8110                	// #33040
    ff3b0c34:	b0000002 	adrp	x2, ff3b1000 <rk3399m0pmu_bin>
    ff3b0c38:	f2bff501 	movk	x1, #0xffa8, lsl #16
    ff3b0c3c:	d2951c83 	mov	x3, #0xa8e4                	// #43236
    ff3b0c40:	913c8042 	add	x2, x2, #0xf20
    ff3b0c44:	f2bff503 	movk	x3, #0xffa8, lsl #16
    ff3b0c48:	b9400020 	ldr	w0, [x1]
    ff3b0c4c:	120f7800 	and	w0, w0, #0xfffeffff
    ff3b0c50:	b9000020 	str	w0, [x1]
    ff3b0c54:	d2941c80 	mov	x0, #0xa0e4                	// #41188
    ff3b0c58:	f2bff500 	movk	x0, #0xffa8, lsl #16
    ff3b0c5c:	b9400001 	ldr	w1, [x0]
    ff3b0c60:	b8404444 	ldr	w4, [x2], #4
    ff3b0c64:	12044c21 	and	w1, w1, #0xf000ffff
    ff3b0c68:	2a040021 	orr	w1, w1, w4
    ff3b0c6c:	b9000001 	str	w1, [x0]
    ff3b0c70:	91080000 	add	x0, x0, #0x200
    ff3b0c74:	eb03001f 	cmp	x0, x3
    ff3b0c78:	54ffff21 	b.ne	ff3b0c5c <dmc_resume+0x61c>  // b.any
    ff3b0c7c:	17ffff78 	b	ff3b0a5c <dmc_resume+0x41c>
    ff3b0c80:	39413260 	ldrb	w0, [x19, #76]
    ff3b0c84:	7100181f 	cmp	w0, #0x6
    ff3b0c88:	54000061 	b.ne	ff3b0c94 <dmc_resume+0x654>  // b.any
    ff3b0c8c:	52800140 	mov	w0, #0xa                   	// #10
    ff3b0c90:	97fffcfb 	bl	ff3b007c <sram_udelay>
    ff3b0c94:	2a1a03e0 	mov	w0, w26
    ff3b0c98:	97fffd2c 	bl	ff3b0148 <data_training.constprop.0>
    ff3b0c9c:	35ffd780 	cbnz	w0, ff3b078c <dmc_resume+0x14c>
    ff3b0ca0:	39401b20 	ldrb	w0, [x25, #6]
    ff3b0ca4:	39400721 	ldrb	w1, [x25, #1]
    ff3b0ca8:	39400b22 	ldrb	w2, [x25, #2]
    ff3b0cac:	0b000021 	add	w1, w1, w0
    ff3b0cb0:	39400324 	ldrb	w4, [x25]
    ff3b0cb4:	0b020021 	add	w1, w1, w2
    ff3b0cb8:	39400f22 	ldrb	w2, [x25, #3]
    ff3b0cbc:	b9400b23 	ldr	w3, [x25, #8]
    ff3b0cc0:	7100049f 	cmp	w4, #0x1
    ff3b0cc4:	0b020021 	add	w1, w1, w2
    ff3b0cc8:	51005021 	sub	w1, w1, #0x14
    ff3b0ccc:	1ac122e2 	lsl	w2, w23, w1
    ff3b0cd0:	540002a9 	b.ls	ff3b0d24 <dmc_resume+0x6e4>  // b.plast
    ff3b0cd4:	39401f24 	ldrb	w4, [x25, #7]
    ff3b0cd8:	4b040000 	sub	w0, w0, w4
    ff3b0cdc:	1ac02440 	lsr	w0, w2, w0
    ff3b0ce0:	39401724 	ldrb	w4, [x25, #5]
    ff3b0ce4:	340000a4 	cbz	w4, ff3b0cf8 <dmc_resume+0x6b8>
    ff3b0ce8:	0b000400 	add	w0, w0, w0, lsl #1
    ff3b0cec:	1ac12301 	lsl	w1, w24, w1
    ff3b0cf0:	53027c22 	lsr	w2, w1, #2
    ff3b0cf4:	53027c00 	lsr	w0, w0, #2
    ff3b0cf8:	53057c00 	lsr	w0, w0, #5
    ff3b0cfc:	2a031863 	orr	w3, w3, w3, lsl #6
    ff3b0d00:	d3453041 	ubfx	x1, x2, #5, #8
    ff3b0d04:	b9000363 	str	w3, [x27]
    ff3b0d08:	53181c00 	ubfiz	w0, w0, #8, #8
    ff3b0d0c:	1100075a 	add	w26, w26, #0x1
    ff3b0d10:	2a010000 	orr	w0, w0, w1
    ff3b0d14:	91009339 	add	x25, x25, #0x24
    ff3b0d18:	b9000760 	str	w0, [x27, #4]
    ff3b0d1c:	9140237b 	add	x27, x27, #0x8, lsl #12
    ff3b0d20:	17ffff55 	b	ff3b0a74 <dmc_resume+0x434>
    ff3b0d24:	52800000 	mov	w0, #0x0                   	// #0
    ff3b0d28:	17ffffee 	b	ff3b0ce0 <dmc_resume+0x6a0>
    ff3b0d2c:	0b133ec1 	add	w1, w22, w19, lsl #15
    ff3b0d30:	b9400020 	ldr	w0, [x1]
    ff3b0d34:	0a170000 	and	w0, w0, w23
    ff3b0d38:	2a140000 	orr	w0, w0, w20
    ff3b0d3c:	b9000020 	str	w0, [x1]
    ff3b0d40:	2a1303e0 	mov	w0, w19
    ff3b0d44:	97fffd01 	bl	ff3b0148 <data_training.constprop.0>
    ff3b0d48:	35fff500 	cbnz	w0, ff3b0be8 <dmc_resume+0x5a8>
    ff3b0d4c:	11000673 	add	w19, w19, #0x1
    ff3b0d50:	17ffffa4 	b	ff3b0be0 <dmc_resume+0x5a0>

00000000ff3b0d54 <secure_watchdog_ungate>:
    ff3b0d54:	d29c0180 	mov	x0, #0xe00c                	// #57356
    ff3b0d58:	52a0a001 	mov	w1, #0x5000000             	// #83886080
    ff3b0d5c:	f2bfe660 	movk	x0, #0xff33, lsl #16
    ff3b0d60:	b9000001 	str	w1, [x0]
    ff3b0d64:	d65f03c0 	ret

00000000ff3b0d68 <sram_secure_timer_init>:
    ff3b0d68:	d2901401 	mov	x1, #0x80a0                	// #32928
    ff3b0d6c:	12800000 	mov	w0, #0xffffffff            	// #-1
    ff3b0d70:	f2bff0c1 	movk	x1, #0xff86, lsl #16
    ff3b0d74:	b9000020 	str	w0, [x1]
    ff3b0d78:	b9000420 	str	w0, [x1, #4]
    ff3b0d7c:	d2901600 	mov	x0, #0x80b0                	// #32944
    ff3b0d80:	f2bff0c0 	movk	x0, #0xff86, lsl #16
    ff3b0d84:	52800021 	mov	w1, #0x1                   	// #1
    ff3b0d88:	b900001f 	str	wzr, [x0]
    ff3b0d8c:	b900001f 	str	wzr, [x0]
    ff3b0d90:	b9000c01 	str	w1, [x0, #12]
    ff3b0d94:	d65f03c0 	ret

00000000ff3b0d98 <pmu_sgrf_rst_hld_release>:
    ff3b0d98:	d2802480 	mov	x0, #0x124                 	// #292
    ff3b0d9c:	52a00801 	mov	w1, #0x400000              	// #4194304
    ff3b0da0:	f2bfeea0 	movk	x0, #0xff75, lsl #16
    ff3b0da4:	b9000001 	str	w1, [x0]
    ff3b0da8:	d65f03c0 	ret

00000000ff3b0dac <restore_pmu_rsthold>:
    ff3b0dac:	b0000000 	adrp	x0, ff3b1000 <rk3399m0pmu_bin>
    ff3b0db0:	d2802402 	mov	x2, #0x120                 	// #288
    ff3b0db4:	913d3001 	add	x1, x0, #0xf4c
    ff3b0db8:	f2bfeea2 	movk	x2, #0xff75, lsl #16
    ff3b0dbc:	b94f4c00 	ldr	w0, [x0, #3916]
    ff3b0dc0:	32103c00 	orr	w0, w0, #0xffff0000
    ff3b0dc4:	b9000040 	str	w0, [x2]
    ff3b0dc8:	b9400420 	ldr	w0, [x1, #4]
    ff3b0dcc:	d2802481 	mov	x1, #0x124                 	// #292
    ff3b0dd0:	f2bfeea1 	movk	x1, #0xff75, lsl #16
    ff3b0dd4:	32103c00 	orr	w0, w0, #0xffff0000
    ff3b0dd8:	b9000020 	str	w0, [x1]
    ff3b0ddc:	d65f03c0 	ret

00000000ff3b0de0 <__bl31_pmusram_text_end>:
	...

00000000ff3b1000 <rk3399m0pmu_bin>:
    ff3b1000:	00000240 00000135 00000131 00000131     @...5...1...1...
	...
    ff3b102c:	00000131 00000000 00000000 00000131     1...........1...
    ff3b103c:	00000131 00000000 00000000 00000000     1...............
	...
    ff3b10e8:	681a4b0e d0fc2a00 4a0d2101 438b6813     .K.h.*...!.J.h.C
    ff3b10f8:	4b0a6013 2a10681a 2102d9fc 68134a09     .`.K.h.*...!.J.h
    ff3b1108:	6013430b 681a4b05 d9fc2a19 4a052102     .C.`.K.h.*...!.J
    ff3b1118:	438b6813 bf306013 46c0e7fd 47310078     .h.C.`0....Fx.1G
    ff3b1128:	47310020 47310024 46c0e7fe f7ffb510      .1G$.1G...F....
    ff3b1138:	bd10ffd7 00000000 00000000 00000000     ................
	...

00000000ff3b1240 <sdram_config>:
	...

00000000ff3b1f30 <cru_clksel_con6>:
    ff3b1f30:	00000000                                ....

00000000ff3b1f34 <dpll_data>:
	...

00000000ff3b1f4c <pmu_slp_data>:
	...

Disassembly of section ro:

0000000000040000 <bl31_entrypoint>:
   40000:	aa0003f4 	mov	x20, x0
   40004:	aa0103f5 	mov	x21, x1
   40008:	aa0203f6 	mov	x22, x2
   4000c:	aa0303f7 	mov	x23, x3
   40010:	10103f80 	adr	x0, 60800 <sync_exception_sp_el0>
   40014:	d51ec000 	msr	vbar_el3, x0
   40018:	d5033fdf 	isb
   4001c:	94007703 	bl	5dc28 <reset_handler>
   40020:	d2820141 	mov	x1, #0x100a                	// #4106
   40024:	d53e1000 	mrs	x0, sctlr_el3
   40028:	aa010000 	orr	x0, x0, x1
   4002c:	d51e1000 	msr	sctlr_el3, x0
   40030:	d5033fdf 	isb
   40034:	940077ad 	bl	5dee8 <init_cpu_data_ptr>
   40038:	d2804700 	mov	x0, #0x238                 	// #568
   4003c:	d51e1100 	msr	scr_el3, x0
   40040:	d2900000 	mov	x0, #0x8000                	// #32768
   40044:	f2a01020 	movk	x0, #0x81, lsl #16
   40048:	d51e1320 	msr	mdcr_el3, x0
   4004c:	d2801c00 	mov	x0, #0xe0                  	// #224
   40050:	d51b9c00 	msr	pmcr_el0, x0
   40054:	d50344ff 	msr	daifclr, #0x4
   40058:	d2800000 	mov	x0, #0x0                   	// #0
   4005c:	d51e1140 	msr	cptr_el3, x0
   40060:	d5380400 	mrs	x0, id_aa64pfr0_el1
   40064:	d370cc00 	ubfx	x0, x0, #48, #4
   40068:	f100041f 	cmp	x0, #0x1
   4006c:	54000061 	b.ne	40078 <bl31_entrypoint+0x78>  // b.any
   40070:	d2a02000 	mov	x0, #0x1000000             	// #16777216
   40074:	d51b42a0 	msr	dit, x0
   40078:	d0000100 	adrp	x0, 62000 <__RO_END__>
   4007c:	91000000 	add	x0, x0, #0x0
   40080:	d0000301 	adrp	x1, a2000 <__BL31_END__>
   40084:	91000021 	add	x1, x1, #0x0
   40088:	cb000021 	sub	x1, x1, x0
   4008c:	94007823 	bl	5e118 <inv_dcache_range>
   40090:	b0000120 	adrp	x0, 65000 <__STACKS_START__+0x2f80>
   40094:	91020000 	add	x0, x0, #0x80
   40098:	90000261 	adrp	x1, 8c000 <store_sram+0x2413>
   4009c:	91300021 	add	x1, x1, #0xc00
   400a0:	cb000021 	sub	x1, x1, x0
   400a4:	9400786a 	bl	5e24c <zeromem>
   400a8:	b0000300 	adrp	x0, a1000 <psci_locks>
   400ac:	91000000 	add	x0, x0, #0x0
   400b0:	b0000301 	adrp	x1, a1000 <psci_locks>
   400b4:	91048021 	add	x1, x1, #0x120
   400b8:	cb000021 	sub	x1, x1, x0
   400bc:	94007864 	bl	5e24c <zeromem>
   400c0:	d50040bf 	msr	spsel, #0x0
   400c4:	940077c4 	bl	5dfd4 <plat_set_my_stack>
   400c8:	aa1403e0 	mov	x0, x20
   400cc:	aa1503e1 	mov	x1, x21
   400d0:	aa1603e2 	mov	x2, x22
   400d4:	aa1703e3 	mov	x3, x23
   400d8:	94004003 	bl	500e4 <bl31_setup>
   400dc:	9400401f 	bl	50158 <bl31_main>
   400e0:	d0000100 	adrp	x0, 62000 <__RO_END__>
   400e4:	91000000 	add	x0, x0, #0x0
   400e8:	d0000101 	adrp	x1, 62000 <__RO_END__>
   400ec:	91018821 	add	x1, x1, #0x62
   400f0:	cb000021 	sub	x1, x1, x0
   400f4:	940077fb 	bl	5e0e0 <clean_dcache_range>
   400f8:	b0000120 	adrp	x0, 65000 <__STACKS_START__+0x2f80>
   400fc:	91020000 	add	x0, x0, #0x80
   40100:	90000261 	adrp	x1, 8c000 <store_sram+0x2413>
   40104:	91300021 	add	x1, x1, #0xc00
   40108:	cb000021 	sub	x1, x1, x0
   4010c:	940077f5 	bl	5e0e0 <clean_dcache_range>
   40110:	14007767 	b	5deac <el3_exit>
   40114:	00000000 	.inst	0x00000000 ; undefined
   40118:	14000008 	b	40138 <bl31_warm_entrypoint>
   4011c:	d503201f 	nop

0000000000040120 <__sram_func_set_ddrctl_pll_veneer>:
   40120:	b07fc410 	adrp	x16, ff8c1000 <sram_func_set_ddrctl_pll>
   40124:	91000210 	add	x16, x16, #0x0
   40128:	d61f0200 	br	x16
	...

0000000000040138 <bl31_warm_entrypoint>:
   40138:	10103640 	adr	x0, 60800 <sync_exception_sp_el0>
   4013c:	d51ec000 	msr	vbar_el3, x0
   40140:	d5033fdf 	isb
   40144:	940076b9 	bl	5dc28 <reset_handler>
   40148:	d2820141 	mov	x1, #0x100a                	// #4106
   4014c:	d53e1000 	mrs	x0, sctlr_el3
   40150:	aa010000 	orr	x0, x0, x1
   40154:	d51e1000 	msr	sctlr_el3, x0
   40158:	d5033fdf 	isb
   4015c:	94007763 	bl	5dee8 <init_cpu_data_ptr>
   40160:	d2804700 	mov	x0, #0x238                 	// #568
   40164:	d51e1100 	msr	scr_el3, x0
   40168:	d2900000 	mov	x0, #0x8000                	// #32768
   4016c:	f2a01020 	movk	x0, #0x81, lsl #16
   40170:	d51e1320 	msr	mdcr_el3, x0
   40174:	d2801c00 	mov	x0, #0xe0                  	// #224
   40178:	d51b9c00 	msr	pmcr_el0, x0
   4017c:	d50344ff 	msr	daifclr, #0x4
   40180:	d2800000 	mov	x0, #0x0                   	// #0
   40184:	d51e1140 	msr	cptr_el3, x0
   40188:	d5380400 	mrs	x0, id_aa64pfr0_el1
   4018c:	d370cc00 	ubfx	x0, x0, #48, #4
   40190:	f100041f 	cmp	x0, #0x1
   40194:	54000061 	b.ne	401a0 <bl31_warm_entrypoint+0x68>  // b.any
   40198:	d2a02000 	mov	x0, #0x1000000             	// #16777216
   4019c:	d51b42a0 	msr	dit, x0
   401a0:	d50040bf 	msr	spsel, #0x0
   401a4:	9400778c 	bl	5dfd4 <plat_set_my_stack>
   401a8:	d2800020 	mov	x0, #0x1                   	// #1
   401ac:	94007865 	bl	5e340 <bl31_plat_enable_mmu>
   401b0:	9400479e 	bl	52028 <psci_warmboot_entrypoint>
   401b4:	1400773e 	b	5deac <el3_exit>
	...

0000000000050000 <platform_cpu_warmboot>:
   50000:	d53800a0 	mrs	x0, mpidr_el1
   50004:	92401c13 	and	x19, x0, #0xff
   50008:	92781c14 	and	x20, x0, #0xff00
   5000c:	aa1403e0 	mov	x0, x20
   50010:	10288844 	adr	x4, a1118 <clst_warmboot_data>
   50014:	d346fc05 	lsr	x5, x0, #6
   50018:	b8656883 	ldr	w3, [x4, x5]
   5001c:	b825689f 	str	wzr, [x4, x5]
   50020:	7102947f 	cmp	w3, #0xa5
   50024:	540000a1 	b.ne	50038 <clst_warmboot_end>  // b.any
   50028:	18000246 	ldr	w6, 50070 <boot_entry+0x10>
   5002c:	58000267 	ldr	x7, 50078 <boot_entry+0x18>
   50030:	d343fc02 	lsr	x2, x0, #3
   50034:	b82268e6 	str	w6, [x7, x2]

0000000000050038 <clst_warmboot_end>:
   50038:	8b541a75 	add	x21, x19, x20, lsr #6
   5003c:	10288624 	adr	x4, a1100 <cpuson_flags>
   50040:	8b150884 	add	x4, x4, x21, lsl #2
   50044:	b9400081 	ldr	w1, [x4]
   50048:	7103c03f 	cmp	w1, #0xf0
   5004c:	540000a0 	b.eq	50060 <boot_entry>  // b.none
   50050:	713c003f 	cmp	w1, #0xf00
   50054:	54000060 	b.eq	50060 <boot_entry>  // b.none

0000000000050058 <wfe_loop>:
   50058:	d503205f 	wfe
   5005c:	17ffffff 	b	50058 <wfe_loop>

0000000000050060 <boot_entry>:
   50060:	b900009f 	str	wzr, [x4]
   50064:	10288365 	adr	x5, a10d0 <cpuson_entry_point>
   50068:	f87578a2 	ldr	x2, [x5, x21, lsl #3]
   5006c:	d61f0040 	br	x2
   50070:	03000100 	.word	0x03000100
   50074:	00000000 	.inst	0x00000000 ; undefined
   50078:	ff76000c 	.word	0xff76000c
   5007c:	00000000 	.word	0x00000000

0000000000050080 <cm_get_context>:
   50080:	d53ed041 	mrs	x1, tpidr_el3
   50084:	f8605820 	ldr	x0, [x1, w0, uxtw #3]
   50088:	d65f03c0 	ret

000000000005008c <cm_get_context_by_index>:
   5008c:	a9be7bfd 	stp	x29, x30, [sp, #-32]!
   50090:	910003fd 	mov	x29, sp
   50094:	f9000bf3 	str	x19, [sp, #16]
   50098:	2a0103f3 	mov	w19, w1
   5009c:	94003798 	bl	5defc <_cpu_data_by_index>
   500a0:	f8735800 	ldr	x0, [x0, w19, uxtw #3]
   500a4:	f9400bf3 	ldr	x19, [sp, #16]
   500a8:	a8c27bfd 	ldp	x29, x30, [sp], #32
   500ac:	d65f03c0 	ret

00000000000500b0 <cm_set_context_by_index>:
   500b0:	a9be7bfd 	stp	x29, x30, [sp, #-32]!
   500b4:	910003fd 	mov	x29, sp
   500b8:	a90153f3 	stp	x19, x20, [sp, #16]
   500bc:	2a0203f3 	mov	w19, w2
   500c0:	aa0103f4 	mov	x20, x1
   500c4:	9400378e 	bl	5defc <_cpu_data_by_index>
   500c8:	f8335814 	str	x20, [x0, w19, uxtw #3]
   500cc:	a94153f3 	ldp	x19, x20, [sp, #16]
   500d0:	a8c27bfd 	ldp	x29, x30, [sp], #32
   500d4:	d65f03c0 	ret

00000000000500d8 <get_arm_std_svc_args>:
   500d8:	f0000060 	adrp	x0, 5f000 <fdt_ro_probe_+0x20>
   500dc:	912a2000 	add	x0, x0, #0xa88
   500e0:	d65f03c0 	ret

00000000000500e4 <bl31_setup>:
   500e4:	a9bf7bfd 	stp	x29, x30, [sp, #-16]!
   500e8:	910003fd 	mov	x29, sp
   500ec:	94000c35 	bl	531c0 <bl31_early_platform_setup2>
   500f0:	a8c17bfd 	ldp	x29, x30, [sp], #16
   500f4:	14000c58 	b	53254 <bl31_plat_arch_setup>

00000000000500f8 <bl31_prepare_next_image_entry>:
   500f8:	a9be7bfd 	stp	x29, x30, [sp, #-32]!
   500fc:	910003fd 	mov	x29, sp
   50100:	a90153f3 	stp	x19, x20, [sp, #16]
   50104:	d5380400 	mrs	x0, id_aa64pfr0_el1
   50108:	d3441c00 	ubfx	x0, x0, #4, #4
   5010c:	f100041f 	cmp	x0, #0x1
   50110:	540000c1 	b.ne	50128 <bl31_prepare_next_image_entry+0x30>  // b.any
   50114:	f0000060 	adrp	x0, 5f000 <fdt_ro_probe_+0x20>
   50118:	913ed800 	add	x0, x0, #0xfb6
   5011c:	9400335d 	bl	5ce90 <tf_log>
   50120:	940033c3 	bl	5d02c <console_flush>
   50124:	940037d5 	bl	5e078 <do_panic>
   50128:	d0000080 	adrp	x0, 62000 <__RO_END__>
   5012c:	b9402814 	ldr	w20, [x0, #40]
   50130:	2a1403e0 	mov	w0, w20
   50134:	94000c19 	bl	53198 <bl31_plat_get_next_image_ep_info>
   50138:	aa0003f3 	mov	x19, x0
   5013c:	94003354 	bl	5ce8c <print_entry_point_info>
   50140:	aa1303e0 	mov	x0, x19
   50144:	94000549 	bl	51668 <cm_init_my_context>
   50148:	2a1403e0 	mov	w0, w20
   5014c:	a94153f3 	ldp	x19, x20, [sp, #16]
   50150:	a8c27bfd 	ldp	x29, x30, [sp], #32
   50154:	14000577 	b	51730 <cm_prepare_el3_exit>

0000000000050158 <bl31_main>:
   50158:	a9be7bfd 	stp	x29, x30, [sp, #-32]!
   5015c:	f0000061 	adrp	x1, 5f000 <fdt_ro_probe_+0x20>
   50160:	913e5021 	add	x1, x1, #0xf94
   50164:	910003fd 	mov	x29, sp
   50168:	f9000bf3 	str	x19, [sp, #16]
   5016c:	90000093 	adrp	x19, 60000 <version_string+0x6c>
   50170:	91001a73 	add	x19, x19, #0x6
   50174:	aa1303e0 	mov	x0, x19
   50178:	94003346 	bl	5ce90 <tf_log>
   5017c:	aa1303e0 	mov	x0, x19
   50180:	f0000061 	adrp	x1, 5f000 <fdt_ro_probe_+0x20>
   50184:	913dd821 	add	x1, x1, #0xf76
   50188:	94003342 	bl	5ce90 <tf_log>
   5018c:	94000c2a 	bl	53234 <bl31_platform_setup>
   50190:	940004b9 	bl	51474 <cm_init>
   50194:	9400001f 	bl	50210 <runtime_svc_init>
   50198:	b00000a0 	adrp	x0, 65000 <__STACKS_START__+0x2f80>
   5019c:	f947a000 	ldr	x0, [x0, #3904]
   501a0:	b4000040 	cbz	x0, 501a8 <bl31_main+0x50>
   501a4:	d63f0000 	blr	x0
   501a8:	97ffffd4 	bl	500f8 <bl31_prepare_next_image_entry>
   501ac:	940033a0 	bl	5d02c <console_flush>
   501b0:	f9400bf3 	ldr	x19, [sp, #16]
   501b4:	a8c27bfd 	ldp	x29, x30, [sp], #32
   501b8:	140033c4 	b	5d0c8 <bl31_plat_runtime_setup>

00000000000501bc <get_scr_el3_from_routing_model>:
   501bc:	b00000a1 	adrp	x1, 65000 <__STACKS_START__+0x2f80>
   501c0:	913d2022 	add	x2, x1, #0xf48
   501c4:	2a0003e1 	mov	w1, w0
   501c8:	8b010c40 	add	x0, x2, x1, lsl #3
   501cc:	8b010c43 	add	x3, x2, x1, lsl #3
   501d0:	8b010c41 	add	x1, x2, x1, lsl #3
   501d4:	f9400463 	ldr	x3, [x3, #8]
   501d8:	f9402400 	ldr	x0, [x0, #72]
   501dc:	f9401421 	ldr	x1, [x1, #40]
   501e0:	aa030000 	orr	x0, x0, x3
   501e4:	aa010000 	orr	x0, x0, x1
   501e8:	d65f03c0 	ret

00000000000501ec <get_interrupt_type_handler>:
   501ec:	7100081f 	cmp	w0, #0x2
   501f0:	540000c8 	b.hi	50208 <get_interrupt_type_handler+0x1c>  // b.pmore
   501f4:	d37b7c00 	ubfiz	x0, x0, #5, #32
   501f8:	b00000a1 	adrp	x1, 65000 <__STACKS_START__+0x2f80>
   501fc:	913d2021 	add	x1, x1, #0xf48
   50200:	f8606820 	ldr	x0, [x1, x0]
   50204:	d65f03c0 	ret
   50208:	d2800000 	mov	x0, #0x0                   	// #0
   5020c:	17fffffe 	b	50204 <get_interrupt_type_handler+0x18>

0000000000050210 <runtime_svc_init>:
   50210:	a9bb7bfd 	stp	x29, x30, [sp, #-80]!
   50214:	910003fd 	mov	x29, sp
   50218:	a90153f3 	stp	x19, x20, [sp, #16]
   5021c:	90000093 	adrp	x19, 60000 <version_string+0x6c>
   50220:	91110273 	add	x19, x19, #0x440
   50224:	a9025bf5 	stp	x21, x22, [sp, #32]
   50228:	90000096 	adrp	x22, 60000 <version_string+0x6c>
   5022c:	910f82d6 	add	x22, x22, #0x3e0
   50230:	a90363f7 	stp	x23, x24, [sp, #48]
   50234:	cb160273 	sub	x19, x19, x22
   50238:	f1007e7f 	cmp	x19, #0x1f
   5023c:	f90023f9 	str	x25, [sp, #64]
   50240:	540001a9 	b.ls	50274 <runtime_svc_init+0x64>  // b.plast
   50244:	90000098 	adrp	x24, 60000 <version_string+0x6c>
   50248:	d345fe73 	lsr	x19, x19, #5
   5024c:	9100e718 	add	x24, x24, #0x39
   50250:	52800015 	mov	w21, #0x0                   	// #0
   50254:	b00000d7 	adrp	x23, 69000 <pmu_slpdata+0x40>
   50258:	912d82f7 	add	x23, x23, #0xb60
   5025c:	aa1703e0 	mov	x0, x23
   50260:	d2801002 	mov	x2, #0x80                  	// #128
   50264:	12800001 	mov	w1, #0xffffffff            	// #-1
   50268:	94003c83 	bl	5f474 <memset>
   5026c:	eb35027f 	cmp	x19, w21, uxtb
   50270:	540000e8 	b.hi	5028c <runtime_svc_init+0x7c>  // b.pmore
   50274:	a94153f3 	ldp	x19, x20, [sp, #16]
   50278:	a9425bf5 	ldp	x21, x22, [sp, #32]
   5027c:	a94363f7 	ldp	x23, x24, [sp, #48]
   50280:	f94023f9 	ldr	x25, [sp, #64]
   50284:	a8c57bfd 	ldp	x29, x30, [sp], #80
   50288:	d65f03c0 	ret
   5028c:	d37b1eb9 	ubfiz	x25, x21, #5, #8
   50290:	8b1902d4 	add	x20, x22, x25
   50294:	38796ac1 	ldrb	w1, [x22, x25]
   50298:	39400680 	ldrb	w0, [x20, #1]
   5029c:	6b00003f 	cmp	w1, w0
   502a0:	54000148 	b.hi	502c8 <runtime_svc_init+0xb8>  // b.pmore
   502a4:	7100fc1f 	cmp	w0, #0x3f
   502a8:	54000108 	b.hi	502c8 <runtime_svc_init+0xb8>  // b.pmore
   502ac:	39400a80 	ldrb	w0, [x20, #2]
   502b0:	7100041f 	cmp	w0, #0x1
   502b4:	540000a8 	b.hi	502c8 <runtime_svc_init+0xb8>  // b.pmore
   502b8:	f9400a80 	ldr	x0, [x20, #16]
   502bc:	b5000120 	cbnz	x0, 502e0 <runtime_svc_init+0xd0>
   502c0:	f9400e80 	ldr	x0, [x20, #24]
   502c4:	b50001e0 	cbnz	x0, 50300 <runtime_svc_init+0xf0>
   502c8:	aa1403e1 	mov	x1, x20
   502cc:	90000080 	adrp	x0, 60000 <version_string+0x6c>
   502d0:	91004400 	add	x0, x0, #0x11
   502d4:	940032ef 	bl	5ce90 <tf_log>
   502d8:	94003355 	bl	5d02c <console_flush>
   502dc:	94003767 	bl	5e078 <do_panic>
   502e0:	d63f0000 	blr	x0
   502e4:	340000e0 	cbz	w0, 50300 <runtime_svc_init+0xf0>
   502e8:	f9400681 	ldr	x1, [x20, #8]
   502ec:	aa1803e0 	mov	x0, x24
   502f0:	940032e8 	bl	5ce90 <tf_log>
   502f4:	110006b5 	add	w21, w21, #0x1
   502f8:	12001eb5 	and	w21, w21, #0xff
   502fc:	17ffffdc 	b	5026c <runtime_svc_init+0x5c>
   50300:	39400a82 	ldrb	w2, [x20, #2]
   50304:	38796ac0 	ldrb	w0, [x22, x25]
   50308:	531a0043 	ubfiz	w3, w2, #6, #1
   5030c:	39400682 	ldrb	w2, [x20, #1]
   50310:	12001400 	and	w0, w0, #0x3f
   50314:	2a030001 	orr	w1, w0, w3
   50318:	12001442 	and	w2, w2, #0x3f
   5031c:	2a0103e0 	mov	w0, w1
   50320:	2a030042 	orr	w2, w2, w3
   50324:	8b0102e1 	add	x1, x23, x1
   50328:	6b02001f 	cmp	w0, w2
   5032c:	54fffe48 	b.hi	502f4 <runtime_svc_init+0xe4>  // b.pmore
   50330:	11000400 	add	w0, w0, #0x1
   50334:	38001435 	strb	w21, [x1], #1
   50338:	12001c00 	and	w0, w0, #0xff
   5033c:	17fffffb 	b	50328 <runtime_svc_init+0x118>

0000000000050340 <cci_init>:
   50340:	b00000a2 	adrp	x2, 65000 <__STACKS_START__+0x2f80>
   50344:	f907d440 	str	x0, [x2, #4008]
   50348:	b00000a0 	adrp	x0, 65000 <__STACKS_START__+0x2f80>
   5034c:	f907d801 	str	x1, [x0, #4016]
   50350:	d65f03c0 	ret

0000000000050354 <cci_enable_snoop_dvm_reqs>:
   50354:	b00000a1 	adrp	x1, 65000 <__STACKS_START__+0x2f80>
   50358:	52800063 	mov	w3, #0x3                   	// #3
   5035c:	f947d821 	ldr	x1, [x1, #4016]
   50360:	b8a05820 	ldrsw	x0, [x1, w0, uxtw #2]
   50364:	b00000a1 	adrp	x1, 65000 <__STACKS_START__+0x2f80>
   50368:	91000400 	add	x0, x0, #0x1
   5036c:	f947d422 	ldr	x2, [x1, #4008]
   50370:	d374cc00 	lsl	x0, x0, #12
   50374:	b8226803 	str	w3, [x0, x2]
   50378:	d5033b9f 	dsb	ish
   5037c:	f947d420 	ldr	x0, [x1, #4008]
   50380:	91003000 	add	x0, x0, #0xc
   50384:	b9400001 	ldr	w1, [x0]
   50388:	3707ffe1 	tbnz	w1, #0, 50384 <cci_enable_snoop_dvm_reqs+0x30>
   5038c:	d65f03c0 	ret

0000000000050390 <cci_disable_snoop_dvm_reqs>:
   50390:	b00000a1 	adrp	x1, 65000 <__STACKS_START__+0x2f80>
   50394:	12800063 	mov	w3, #0xfffffffc            	// #-4
   50398:	f947d821 	ldr	x1, [x1, #4016]
   5039c:	b8a05820 	ldrsw	x0, [x1, w0, uxtw #2]
   503a0:	b00000a1 	adrp	x1, 65000 <__STACKS_START__+0x2f80>
   503a4:	91000400 	add	x0, x0, #0x1
   503a8:	f947d422 	ldr	x2, [x1, #4008]
   503ac:	d374cc00 	lsl	x0, x0, #12
   503b0:	b8226803 	str	w3, [x0, x2]
   503b4:	d5033b9f 	dsb	ish
   503b8:	f947d420 	ldr	x0, [x1, #4008]
   503bc:	91003000 	add	x0, x0, #0xc
   503c0:	b9400001 	ldr	w1, [x0]
   503c4:	3707ffe1 	tbnz	w1, #0, 503c0 <cci_disable_snoop_dvm_reqs+0x30>
   503c8:	d65f03c0 	ret

00000000000503cc <arm_gicv3_distif_pre_save>:
   503cc:	b00000a1 	adrp	x1, 65000 <__STACKS_START__+0x2f80>
   503d0:	f947dc21 	ldr	x1, [x1, #4024]
   503d4:	f9401021 	ldr	x1, [x1, #32]
   503d8:	f8605820 	ldr	x0, [x1, w0, uxtw #3]
   503dc:	91005002 	add	x2, x0, #0x14
   503e0:	b9401401 	ldr	w1, [x0, #20]
   503e4:	32000021 	orr	w1, w1, #0x1
   503e8:	b9001401 	str	w1, [x0, #20]
   503ec:	b9400040 	ldr	w0, [x2]
   503f0:	36ffffe0 	tbz	w0, #31, 503ec <arm_gicv3_distif_pre_save+0x20>
   503f4:	d65f03c0 	ret

00000000000503f8 <arm_gicv3_distif_post_restore>:
   503f8:	b00000a1 	adrp	x1, 65000 <__STACKS_START__+0x2f80>
   503fc:	f947dc21 	ldr	x1, [x1, #4024]
   50400:	f9401021 	ldr	x1, [x1, #32]
   50404:	f8605820 	ldr	x0, [x1, w0, uxtw #3]
   50408:	91005002 	add	x2, x0, #0x14
   5040c:	b9401401 	ldr	w1, [x0, #20]
   50410:	360000c1 	tbz	w1, #0, 50428 <arm_gicv3_distif_post_restore+0x30>
   50414:	b9401401 	ldr	w1, [x0, #20]
   50418:	121f7821 	and	w1, w1, #0xfffffffe
   5041c:	b9001401 	str	w1, [x0, #20]
   50420:	b9400040 	ldr	w0, [x2]
   50424:	37ffffe0 	tbnz	w0, #31, 50420 <arm_gicv3_distif_post_restore+0x28>
   50428:	d65f03c0 	ret

000000000005042c <gicv3_distif_pre_save>:
   5042c:	17ffffe8 	b	503cc <arm_gicv3_distif_pre_save>

0000000000050430 <gicv3_distif_post_restore>:
   50430:	17fffff2 	b	503f8 <arm_gicv3_distif_post_restore>

0000000000050434 <gicv3_rdistif_on>:
   50434:	d65f03c0 	ret

0000000000050438 <gicd_set_icfgr>:
   50438:	531f0c24 	ubfiz	w4, w1, #1, #4
   5043c:	53047c21 	lsr	w1, w1, #4
   50440:	91300000 	add	x0, x0, #0xc00
   50444:	12000442 	and	w2, w2, #0x3
   50448:	d37ef421 	lsl	x1, x1, #2
   5044c:	52800063 	mov	w3, #0x3                   	// #3
   50450:	1ac42063 	lsl	w3, w3, w4
   50454:	1ac42042 	lsl	w2, w2, w4
   50458:	b8606825 	ldr	w5, [x1, x0]
   5045c:	0a2300a3 	bic	w3, w5, w3
   50460:	2a020063 	orr	w3, w3, w2
   50464:	b8206823 	str	w3, [x1, x0]
   50468:	d65f03c0 	ret

000000000005046c <gicd_clr_igroupr>:
   5046c:	53057c23 	lsr	w3, w1, #5
   50470:	91020000 	add	x0, x0, #0x80
   50474:	52800022 	mov	w2, #0x1                   	// #1
   50478:	d37ef463 	lsl	x3, x3, #2
   5047c:	1ac12041 	lsl	w1, w2, w1
   50480:	b8606864 	ldr	w4, [x3, x0]
   50484:	0a210081 	bic	w1, w4, w1
   50488:	b8206861 	str	w1, [x3, x0]
   5048c:	d65f03c0 	ret

0000000000050490 <gicd_set_igrpmodr>:
   50490:	53057c23 	lsr	w3, w1, #5
   50494:	91340000 	add	x0, x0, #0xd00
   50498:	52800022 	mov	w2, #0x1                   	// #1
   5049c:	d37ef463 	lsl	x3, x3, #2
   504a0:	1ac12041 	lsl	w1, w2, w1
   504a4:	b8606864 	ldr	w4, [x3, x0]
   504a8:	2a040021 	orr	w1, w1, w4
   504ac:	b8206861 	str	w1, [x3, x0]
   504b0:	d65f03c0 	ret

00000000000504b4 <gicd_clr_igrpmodr>:
   504b4:	53057c23 	lsr	w3, w1, #5
   504b8:	91340000 	add	x0, x0, #0xd00
   504bc:	52800022 	mov	w2, #0x1                   	// #1
   504c0:	d37ef463 	lsl	x3, x3, #2
   504c4:	1ac12041 	lsl	w1, w2, w1
   504c8:	b8606864 	ldr	w4, [x3, x0]
   504cc:	0a210081 	bic	w1, w4, w1
   504d0:	b8206861 	str	w1, [x3, x0]
   504d4:	d65f03c0 	ret

00000000000504d8 <gicd_set_isenabler>:
   504d8:	52800022 	mov	w2, #0x1                   	// #1
   504dc:	91040000 	add	x0, x0, #0x100
   504e0:	1ac12042 	lsl	w2, w2, w1
   504e4:	53057c21 	lsr	w1, w1, #5
   504e8:	d37ef421 	lsl	x1, x1, #2
   504ec:	b8206822 	str	w2, [x1, x0]
   504f0:	d65f03c0 	ret

00000000000504f4 <gicd_set_ipriorityr>:
   504f4:	91100000 	add	x0, x0, #0x400
   504f8:	2a0103e1 	mov	w1, w1
   504fc:	12001c42 	and	w2, w2, #0xff
   50500:	38216802 	strb	w2, [x0, x1]
   50504:	d65f03c0 	ret

0000000000050508 <gicd_read_icfgr>:
   50508:	53047c21 	lsr	w1, w1, #4
   5050c:	91300000 	add	x0, x0, #0xc00
   50510:	d37ef421 	lsl	x1, x1, #2
   50514:	b8606820 	ldr	w0, [x1, x0]
   50518:	d65f03c0 	ret

000000000005051c <gicd_write_icfgr>:
   5051c:	53047c21 	lsr	w1, w1, #4
   50520:	91300000 	add	x0, x0, #0xc00
   50524:	d37ef421 	lsl	x1, x1, #2
   50528:	b8206822 	str	w2, [x1, x0]
   5052c:	d65f03c0 	ret

0000000000050530 <gicd_read_igroupr>:
   50530:	53057c21 	lsr	w1, w1, #5
   50534:	91020000 	add	x0, x0, #0x80
   50538:	d37ef421 	lsl	x1, x1, #2
   5053c:	b8606820 	ldr	w0, [x1, x0]
   50540:	d65f03c0 	ret

0000000000050544 <gicd_write_igroupr>:
   50544:	53057c21 	lsr	w1, w1, #5
   50548:	91020000 	add	x0, x0, #0x80
   5054c:	d37ef421 	lsl	x1, x1, #2
   50550:	b8206822 	str	w2, [x1, x0]
   50554:	d65f03c0 	ret

0000000000050558 <gicd_read_igrpmodr>:
   50558:	53057c21 	lsr	w1, w1, #5
   5055c:	91340000 	add	x0, x0, #0xd00
   50560:	d37ef421 	lsl	x1, x1, #2
   50564:	b8606820 	ldr	w0, [x1, x0]
   50568:	d65f03c0 	ret

000000000005056c <gicd_write_igrpmodr>:
   5056c:	53057c21 	lsr	w1, w1, #5
   50570:	91340000 	add	x0, x0, #0xd00
   50574:	d37ef421 	lsl	x1, x1, #2
   50578:	b8206822 	str	w2, [x1, x0]
   5057c:	d65f03c0 	ret

0000000000050580 <gicd_read_ipriorityr>:
   50580:	927e7421 	and	x1, x1, #0xfffffffc
   50584:	91100000 	add	x0, x0, #0x400
   50588:	b8606820 	ldr	w0, [x1, x0]
   5058c:	d65f03c0 	ret

0000000000050590 <gicd_write_ipriorityr>:
   50590:	927e7421 	and	x1, x1, #0xfffffffc
   50594:	91100000 	add	x0, x0, #0x400
   50598:	b8206822 	str	w2, [x1, x0]
   5059c:	d65f03c0 	ret

00000000000505a0 <gicd_read_isactiver>:
   505a0:	53057c21 	lsr	w1, w1, #5
   505a4:	910c0000 	add	x0, x0, #0x300
   505a8:	d37ef421 	lsl	x1, x1, #2
   505ac:	b8606820 	ldr	w0, [x1, x0]
   505b0:	d65f03c0 	ret

00000000000505b4 <gicd_write_isactiver>:
   505b4:	53057c21 	lsr	w1, w1, #5
   505b8:	910c0000 	add	x0, x0, #0x300
   505bc:	d37ef421 	lsl	x1, x1, #2
   505c0:	b8206822 	str	w2, [x1, x0]
   505c4:	d65f03c0 	ret

00000000000505c8 <gicd_read_isenabler>:
   505c8:	53057c21 	lsr	w1, w1, #5
   505cc:	91040000 	add	x0, x0, #0x100
   505d0:	d37ef421 	lsl	x1, x1, #2
   505d4:	b8606820 	ldr	w0, [x1, x0]
   505d8:	d65f03c0 	ret

00000000000505dc <gicd_write_isenabler>:
   505dc:	53057c21 	lsr	w1, w1, #5
   505e0:	91040000 	add	x0, x0, #0x100
   505e4:	d37ef421 	lsl	x1, x1, #2
   505e8:	b8206822 	str	w2, [x1, x0]
   505ec:	d65f03c0 	ret

00000000000505f0 <gicd_read_ispendr>:
   505f0:	53057c21 	lsr	w1, w1, #5
   505f4:	91080000 	add	x0, x0, #0x200
   505f8:	d37ef421 	lsl	x1, x1, #2
   505fc:	b8606820 	ldr	w0, [x1, x0]
   50600:	d65f03c0 	ret

0000000000050604 <gicd_write_ispendr>:
   50604:	53057c21 	lsr	w1, w1, #5
   50608:	91080000 	add	x0, x0, #0x200
   5060c:	d37ef421 	lsl	x1, x1, #2
   50610:	b8206822 	str	w2, [x1, x0]
   50614:	d65f03c0 	ret

0000000000050618 <gicd_read_nsacr>:
   50618:	53047c21 	lsr	w1, w1, #4
   5061c:	91380000 	add	x0, x0, #0xe00
   50620:	d37ef421 	lsl	x1, x1, #2
   50624:	b8606820 	ldr	w0, [x1, x0]
   50628:	d65f03c0 	ret

000000000005062c <gicd_write_nsacr>:
   5062c:	53047c21 	lsr	w1, w1, #4
   50630:	91380000 	add	x0, x0, #0xe00
   50634:	d37ef421 	lsl	x1, x1, #2
   50638:	b8206822 	str	w2, [x1, x0]
   5063c:	d65f03c0 	ret

0000000000050640 <gicr_write_ipriorityr>:
   50640:	91404000 	add	x0, x0, #0x10, lsl #12
   50644:	927e7421 	and	x1, x1, #0xfffffffc
   50648:	91100000 	add	x0, x0, #0x400
   5064c:	b8206822 	str	w2, [x1, x0]
   50650:	d65f03c0 	ret

0000000000050654 <gicr_set_ipriorityr>:
   50654:	91404000 	add	x0, x0, #0x10, lsl #12
   50658:	2a0103e1 	mov	w1, w1
   5065c:	91100000 	add	x0, x0, #0x400
   50660:	12001c42 	and	w2, w2, #0xff
   50664:	38216802 	strb	w2, [x0, x1]
   50668:	d65f03c0 	ret

000000000005066c <gicr_clr_igroupr>:
   5066c:	53057c23 	lsr	w3, w1, #5
   50670:	91404000 	add	x0, x0, #0x10, lsl #12
   50674:	91020000 	add	x0, x0, #0x80
   50678:	52800022 	mov	w2, #0x1                   	// #1
   5067c:	d37ef463 	lsl	x3, x3, #2
   50680:	1ac12041 	lsl	w1, w2, w1
   50684:	b8606864 	ldr	w4, [x3, x0]
   50688:	0a210081 	bic	w1, w4, w1
   5068c:	b8206861 	str	w1, [x3, x0]
   50690:	d65f03c0 	ret

0000000000050694 <gicr_set_igrpmodr>:
   50694:	53057c23 	lsr	w3, w1, #5
   50698:	91404000 	add	x0, x0, #0x10, lsl #12
   5069c:	91340000 	add	x0, x0, #0xd00
   506a0:	52800022 	mov	w2, #0x1                   	// #1
   506a4:	d37ef463 	lsl	x3, x3, #2
   506a8:	1ac12041 	lsl	w1, w2, w1
   506ac:	b8606864 	ldr	w4, [x3, x0]
   506b0:	2a040021 	orr	w1, w1, w4
   506b4:	b8206861 	str	w1, [x3, x0]
   506b8:	d65f03c0 	ret

00000000000506bc <gicr_clr_igrpmodr>:
   506bc:	53057c23 	lsr	w3, w1, #5
   506c0:	91404000 	add	x0, x0, #0x10, lsl #12
   506c4:	91340000 	add	x0, x0, #0xd00
   506c8:	52800022 	mov	w2, #0x1                   	// #1
   506cc:	d37ef463 	lsl	x3, x3, #2
   506d0:	1ac12041 	lsl	w1, w2, w1
   506d4:	b8606864 	ldr	w4, [x3, x0]
   506d8:	0a210081 	bic	w1, w4, w1
   506dc:	b8206861 	str	w1, [x3, x0]
   506e0:	d65f03c0 	ret

00000000000506e4 <gicr_set_isenabler>:
   506e4:	52800022 	mov	w2, #0x1                   	// #1
   506e8:	91404000 	add	x0, x0, #0x10, lsl #12
   506ec:	1ac12042 	lsl	w2, w2, w1
   506f0:	53057c21 	lsr	w1, w1, #5
   506f4:	91040000 	add	x0, x0, #0x100
   506f8:	d37ef421 	lsl	x1, x1, #2
   506fc:	b8206822 	str	w2, [x1, x0]
   50700:	d65f03c0 	ret

0000000000050704 <gicr_set_icfgr>:
   50704:	531f0c24 	ubfiz	w4, w1, #1, #4
   50708:	53047c21 	lsr	w1, w1, #4
   5070c:	91404000 	add	x0, x0, #0x10, lsl #12
   50710:	12000442 	and	w2, w2, #0x3
   50714:	d37ef421 	lsl	x1, x1, #2
   50718:	91300000 	add	x0, x0, #0xc00
   5071c:	52800063 	mov	w3, #0x3                   	// #3
   50720:	1ac42042 	lsl	w2, w2, w4
   50724:	1ac42063 	lsl	w3, w3, w4
   50728:	b8606825 	ldr	w5, [x1, x0]
   5072c:	0a2300a3 	bic	w3, w5, w3
   50730:	2a020063 	orr	w3, w3, w2
   50734:	b8206823 	str	w3, [x1, x0]
   50738:	d65f03c0 	ret

000000000005073c <gicv3_rdistif_mark_core_awake>:
   5073c:	b9401401 	ldr	w1, [x0, #20]
   50740:	91005002 	add	x2, x0, #0x14
   50744:	121e7821 	and	w1, w1, #0xfffffffd
   50748:	b9001401 	str	w1, [x0, #20]
   5074c:	b9400040 	ldr	w0, [x2]
   50750:	3717ffe0 	tbnz	w0, #2, 5074c <gicv3_rdistif_mark_core_awake+0x10>
   50754:	d65f03c0 	ret

0000000000050758 <gicv3_rdistif_mark_core_asleep>:
   50758:	b9401401 	ldr	w1, [x0, #20]
   5075c:	91005002 	add	x2, x0, #0x14
   50760:	321f0021 	orr	w1, w1, #0x2
   50764:	b9001401 	str	w1, [x0, #20]
   50768:	b9400040 	ldr	w0, [x2]
   5076c:	3617ffe0 	tbz	w0, #2, 50768 <gicv3_rdistif_mark_core_asleep+0x10>
   50770:	d65f03c0 	ret

0000000000050774 <gicv3_rdistif_base_addrs_probe>:
   50774:	a9bc7bfd 	stp	x29, x30, [sp, #-64]!
   50778:	910003fd 	mov	x29, sp
   5077c:	a90153f3 	stp	x19, x20, [sp, #16]
   50780:	aa0203f3 	mov	x19, x2
   50784:	a9025bf5 	stp	x21, x22, [sp, #32]
   50788:	aa0003f6 	mov	x22, x0
   5078c:	aa0303f5 	mov	x21, x3
   50790:	f9001bf7 	str	x23, [sp, #48]
   50794:	2a0103f7 	mov	w23, w1
   50798:	f9400674 	ldr	x20, [x19, #8]
   5079c:	b40001f5 	cbz	x21, 507d8 <gicv3_rdistif_base_addrs_probe+0x64>
   507a0:	d360de81 	ubfx	x1, x20, #32, #24
   507a4:	d378fe80 	lsr	x0, x20, #56
   507a8:	aa008020 	orr	x0, x1, x0, lsl #32
   507ac:	d63f02a0 	blr	x21
   507b0:	6b17001f 	cmp	w0, w23
   507b4:	54000042 	b.cs	507bc <gicv3_rdistif_base_addrs_probe+0x48>  // b.hs, b.nlast
   507b8:	f8205ad3 	str	x19, [x22, w0, uxtw #3]
   507bc:	91408273 	add	x19, x19, #0x20, lsl #12
   507c0:	3627fed4 	tbz	w20, #4, 50798 <gicv3_rdistif_base_addrs_probe+0x24>
   507c4:	a94153f3 	ldp	x19, x20, [sp, #16]
   507c8:	a9425bf5 	ldp	x21, x22, [sp, #32]
   507cc:	f9401bf7 	ldr	x23, [sp, #48]
   507d0:	a8c47bfd 	ldp	x29, x30, [sp], #64
   507d4:	d65f03c0 	ret
   507d8:	53085e80 	ubfx	w0, w20, #8, #16
   507dc:	17fffff5 	b	507b0 <gicv3_rdistif_base_addrs_probe+0x3c>

00000000000507e0 <gicv3_spis_config_defaults>:
   507e0:	a9bd7bfd 	stp	x29, x30, [sp, #-48]!
   507e4:	910003fd 	mov	x29, sp
   507e8:	a90153f3 	stp	x19, x20, [sp, #16]
   507ec:	aa0003f4 	mov	x20, x0
   507f0:	b9400413 	ldr	w19, [x0, #4]
   507f4:	52807f80 	mov	w0, #0x3fc                 	// #1020
   507f8:	f90013f5 	str	x21, [sp, #32]
   507fc:	52800415 	mov	w21, #0x20                  	// #32
   50800:	531b1273 	ubfiz	w19, w19, #5, #5
   50804:	11008273 	add	w19, w19, #0x20
   50808:	710ff27f 	cmp	w19, #0x3fc
   5080c:	1a809273 	csel	w19, w19, w0, ls  // ls = plast
   50810:	6b1302bf 	cmp	w21, w19
   50814:	54000163 	b.cc	50840 <gicv3_spis_config_defaults+0x60>  // b.lo, b.ul, b.last
   50818:	52800415 	mov	w21, #0x20                  	// #32
   5081c:	6b1302bf 	cmp	w21, w19
   50820:	540001c3 	b.cc	50858 <gicv3_spis_config_defaults+0x78>  // b.lo, b.ul, b.last
   50824:	52800415 	mov	w21, #0x20                  	// #32
   50828:	6b1302bf 	cmp	w21, w19
   5082c:	54000223 	b.cc	50870 <gicv3_spis_config_defaults+0x90>  // b.lo, b.ul, b.last
   50830:	a94153f3 	ldp	x19, x20, [sp, #16]
   50834:	f94013f5 	ldr	x21, [sp, #32]
   50838:	a8c37bfd 	ldp	x29, x30, [sp], #48
   5083c:	d65f03c0 	ret
   50840:	2a1503e1 	mov	w1, w21
   50844:	aa1403e0 	mov	x0, x20
   50848:	12800002 	mov	w2, #0xffffffff            	// #-1
   5084c:	110082b5 	add	w21, w21, #0x20
   50850:	97ffff3d 	bl	50544 <gicd_write_igroupr>
   50854:	17ffffef 	b	50810 <gicv3_spis_config_defaults+0x30>
   50858:	2a1503e1 	mov	w1, w21
   5085c:	aa1403e0 	mov	x0, x20
   50860:	3201c3e2 	mov	w2, #0x80808080            	// #-2139062144
   50864:	110012b5 	add	w21, w21, #0x4
   50868:	97ffff4a 	bl	50590 <gicd_write_ipriorityr>
   5086c:	17ffffec 	b	5081c <gicv3_spis_config_defaults+0x3c>
   50870:	2a1503e1 	mov	w1, w21
   50874:	aa1403e0 	mov	x0, x20
   50878:	52800002 	mov	w2, #0x0                   	// #0
   5087c:	110042b5 	add	w21, w21, #0x10
   50880:	97ffff27 	bl	5051c <gicd_write_icfgr>
   50884:	17ffffe9 	b	50828 <gicv3_spis_config_defaults+0x48>

0000000000050888 <gicv3_secure_spis_config_props>:
   50888:	a9bb7bfd 	stp	x29, x30, [sp, #-80]!
   5088c:	910003fd 	mov	x29, sp
   50890:	a90153f3 	stp	x19, x20, [sp, #16]
   50894:	aa0103f3 	mov	x19, x1
   50898:	a9025bf5 	stp	x21, x22, [sp, #32]
   5089c:	aa0003f5 	mov	x21, x0
   508a0:	52800016 	mov	w22, #0x0                   	// #0
   508a4:	a90363f7 	stp	x23, x24, [sp, #48]
   508a8:	8b224837 	add	x23, x1, w2, uxtw #2
   508ac:	f90023f9 	str	x25, [sp, #64]
   508b0:	91401819 	add	x25, x0, #0x6, lsl #12
   508b4:	eb17027f 	cmp	x19, x23
   508b8:	54000101 	b.ne	508d8 <gicv3_secure_spis_config_props+0x50>  // b.any
   508bc:	2a1603e0 	mov	w0, w22
   508c0:	a94153f3 	ldp	x19, x20, [sp, #16]
   508c4:	a9425bf5 	ldp	x21, x22, [sp, #32]
   508c8:	a94363f7 	ldp	x23, x24, [sp, #48]
   508cc:	f94023f9 	ldr	x25, [sp, #64]
   508d0:	a8c57bfd 	ldp	x29, x30, [sp], #80
   508d4:	d65f03c0 	ret
   508d8:	79400274 	ldrh	w20, [x19]
   508dc:	d3402698 	ubfx	x24, x20, #0, #10
   508e0:	12002694 	and	w20, w20, #0x3ff
   508e4:	51008280 	sub	w0, w20, #0x20
   508e8:	710f6c1f 	cmp	w0, #0x3db
   508ec:	54000388 	b.hi	5095c <gicv3_secure_spis_config_props+0xd4>  // b.pmore
   508f0:	2a1403e1 	mov	w1, w20
   508f4:	aa1503e0 	mov	x0, x21
   508f8:	97fffedd 	bl	5046c <gicd_clr_igroupr>
   508fc:	39400a60 	ldrb	w0, [x19, #2]
   50900:	2a1403e1 	mov	w1, w20
   50904:	721e041f 	tst	w0, #0xc
   50908:	aa1503e0 	mov	x0, x21
   5090c:	540002c1 	b.ne	50964 <gicv3_secure_spis_config_props+0xdc>  // b.any
   50910:	321e02d6 	orr	w22, w22, #0x4
   50914:	97fffedf 	bl	50490 <gicd_set_igrpmodr>
   50918:	39400a62 	ldrb	w2, [x19, #2]
   5091c:	2a1403e1 	mov	w1, w20
   50920:	aa1503e0 	mov	x0, x21
   50924:	d3441442 	ubfx	x2, x2, #4, #2
   50928:	97fffec4 	bl	50438 <gicd_set_icfgr>
   5092c:	b9400262 	ldr	w2, [x19]
   50930:	2a1403e1 	mov	w1, w20
   50934:	aa1503e0 	mov	x0, x21
   50938:	d34a4442 	ubfx	x2, x2, #10, #8
   5093c:	97fffeee 	bl	504f4 <gicd_set_ipriorityr>
   50940:	d53800a0 	mrs	x0, mpidr_el1
   50944:	d37d2718 	ubfiz	x24, x24, #3, #10
   50948:	92405c00 	and	x0, x0, #0xffffff
   5094c:	2a1403e1 	mov	w1, w20
   50950:	f8386b20 	str	x0, [x25, x24]
   50954:	aa1503e0 	mov	x0, x21
   50958:	97fffee0 	bl	504d8 <gicd_set_isenabler>
   5095c:	91001273 	add	x19, x19, #0x4
   50960:	17ffffd5 	b	508b4 <gicv3_secure_spis_config_props+0x2c>
   50964:	320002d6 	orr	w22, w22, #0x1
   50968:	97fffed3 	bl	504b4 <gicd_clr_igrpmodr>
   5096c:	17ffffeb 	b	50918 <gicv3_secure_spis_config_props+0x90>

0000000000050970 <gicv3_ppi_sgi_config_defaults>:
   50970:	a9be7bfd 	stp	x29, x30, [sp, #-32]!
   50974:	12800001 	mov	w1, #0xffffffff            	// #-1
   50978:	910003fd 	mov	x29, sp
   5097c:	a90153f3 	stp	x19, x20, [sp, #16]
   50980:	aa0003f3 	mov	x19, x0
   50984:	d2803000 	mov	x0, #0x180                 	// #384
   50988:	f2a00020 	movk	x0, #0x1, lsl #16
   5098c:	b8206a61 	str	w1, [x19, x0]
   50990:	b9400260 	ldr	w0, [x19]
   50994:	121d0014 	and	w20, w0, #0x8
   50998:	371fffc0 	tbnz	w0, #3, 50990 <gicv3_ppi_sgi_config_defaults+0x20>
   5099c:	d2801000 	mov	x0, #0x80                  	// #128
   509a0:	12800001 	mov	w1, #0xffffffff            	// #-1
   509a4:	f2a00020 	movk	x0, #0x1, lsl #16
   509a8:	b8206a61 	str	w1, [x19, x0]
   509ac:	2a1403e1 	mov	w1, w20
   509b0:	aa1303e0 	mov	x0, x19
   509b4:	11000694 	add	w20, w20, #0x1
   509b8:	3201c3e2 	mov	w2, #0x80808080            	// #-2139062144
   509bc:	97ffff21 	bl	50640 <gicr_write_ipriorityr>
   509c0:	7100229f 	cmp	w20, #0x8
   509c4:	54ffff41 	b.ne	509ac <gicv3_ppi_sgi_config_defaults+0x3c>  // b.any
   509c8:	d2818080 	mov	x0, #0xc04                 	// #3076
   509cc:	f2a00020 	movk	x0, #0x1, lsl #16
   509d0:	b8206a7f 	str	wzr, [x19, x0]
   509d4:	a94153f3 	ldp	x19, x20, [sp, #16]
   509d8:	a8c27bfd 	ldp	x29, x30, [sp], #32
   509dc:	d65f03c0 	ret

00000000000509e0 <gicv3_secure_ppi_sgi_config_props>:
   509e0:	a9bc7bfd 	stp	x29, x30, [sp, #-64]!
   509e4:	910003fd 	mov	x29, sp
   509e8:	a90153f3 	stp	x19, x20, [sp, #16]
   509ec:	aa0103f3 	mov	x19, x1
   509f0:	a9025bf5 	stp	x21, x22, [sp, #32]
   509f4:	aa0003f5 	mov	x21, x0
   509f8:	52800016 	mov	w22, #0x0                   	// #0
   509fc:	f9001bf7 	str	x23, [sp, #48]
   50a00:	8b224837 	add	x23, x1, w2, uxtw #2
   50a04:	eb17027f 	cmp	x19, x23
   50a08:	540000e1 	b.ne	50a24 <gicv3_secure_ppi_sgi_config_props+0x44>  // b.any
   50a0c:	2a1603e0 	mov	w0, w22
   50a10:	a94153f3 	ldp	x19, x20, [sp, #16]
   50a14:	a9425bf5 	ldp	x21, x22, [sp, #32]
   50a18:	f9401bf7 	ldr	x23, [sp, #48]
   50a1c:	a8c47bfd 	ldp	x29, x30, [sp], #64
   50a20:	d65f03c0 	ret
   50a24:	79400274 	ldrh	w20, [x19]
   50a28:	12002694 	and	w20, w20, #0x3ff
   50a2c:	71007e9f 	cmp	w20, #0x1f
   50a30:	54000348 	b.hi	50a98 <gicv3_secure_ppi_sgi_config_props+0xb8>  // b.pmore
   50a34:	2a1403e1 	mov	w1, w20
   50a38:	aa1503e0 	mov	x0, x21
   50a3c:	97ffff0c 	bl	5066c <gicr_clr_igroupr>
   50a40:	39400a60 	ldrb	w0, [x19, #2]
   50a44:	2a1403e1 	mov	w1, w20
   50a48:	721e041f 	tst	w0, #0xc
   50a4c:	aa1503e0 	mov	x0, x21
   50a50:	54000281 	b.ne	50aa0 <gicv3_secure_ppi_sgi_config_props+0xc0>  // b.any
   50a54:	321e02d6 	orr	w22, w22, #0x4
   50a58:	97ffff0f 	bl	50694 <gicr_set_igrpmodr>
   50a5c:	b9400262 	ldr	w2, [x19]
   50a60:	2a1403e1 	mov	w1, w20
   50a64:	aa1503e0 	mov	x0, x21
   50a68:	d34a4442 	ubfx	x2, x2, #10, #8
   50a6c:	97fffefa 	bl	50654 <gicr_set_ipriorityr>
   50a70:	71003e9f 	cmp	w20, #0xf
   50a74:	540000c9 	b.ls	50a8c <gicv3_secure_ppi_sgi_config_props+0xac>  // b.plast
   50a78:	39400a62 	ldrb	w2, [x19, #2]
   50a7c:	2a1403e1 	mov	w1, w20
   50a80:	aa1503e0 	mov	x0, x21
   50a84:	d3441442 	ubfx	x2, x2, #4, #2
   50a88:	97ffff1f 	bl	50704 <gicr_set_icfgr>
   50a8c:	2a1403e1 	mov	w1, w20
   50a90:	aa1503e0 	mov	x0, x21
   50a94:	97ffff14 	bl	506e4 <gicr_set_isenabler>
   50a98:	91001273 	add	x19, x19, #0x4
   50a9c:	17ffffda 	b	50a04 <gicv3_secure_ppi_sgi_config_props+0x24>
   50aa0:	320002d6 	orr	w22, w22, #0x1
   50aa4:	97ffff06 	bl	506bc <gicr_clr_igrpmodr>
   50aa8:	17ffffed 	b	50a5c <gicv3_secure_ppi_sgi_config_props+0x7c>

0000000000050aac <gicd_wait_for_pending_write>:
   50aac:	b9400001 	ldr	w1, [x0]
   50ab0:	37ffffe1 	tbnz	w1, #31, 50aac <gicd_wait_for_pending_write>
   50ab4:	d65f03c0 	ret

0000000000050ab8 <gicr_wait_for_pending_write>:
   50ab8:	b9400001 	ldr	w1, [x0]
   50abc:	371fffe1 	tbnz	w1, #3, 50ab8 <gicr_wait_for_pending_write>
   50ac0:	d65f03c0 	ret

0000000000050ac4 <gicv3_driver_init>:
   50ac4:	a9be7bfd 	stp	x29, x30, [sp, #-32]!
   50ac8:	d29ffd01 	mov	x1, #0xffe8                	// #65512
   50acc:	910003fd 	mov	x29, sp
   50ad0:	a90153f3 	stp	x19, x20, [sp, #16]
   50ad4:	aa0003f3 	mov	x19, x0
   50ad8:	f9400000 	ldr	x0, [x0]
   50adc:	f9400662 	ldr	x2, [x19, #8]
   50ae0:	b8616801 	ldr	w1, [x0, x1]
   50ae4:	b9400000 	ldr	w0, [x0]
   50ae8:	b4000102 	cbz	x2, 50b08 <gicv3_driver_init+0x44>
   50aec:	a9420e60 	ldp	x0, x3, [x19, #32]
   50af0:	b9401e61 	ldr	w1, [x19, #28]
   50af4:	97ffff20 	bl	50774 <gicv3_rdistif_base_addrs_probe>
   50af8:	f9401260 	ldr	x0, [x19, #32]
   50afc:	b9401e61 	ldr	w1, [x19, #28]
   50b00:	d37df021 	lsl	x1, x1, #3
   50b04:	94003569 	bl	5e0a8 <flush_dcache_range>
   50b08:	b00000b4 	adrp	x20, 65000 <__STACKS_START__+0x2f80>
   50b0c:	d2800101 	mov	x1, #0x8                   	// #8
   50b10:	913ee280 	add	x0, x20, #0xfb8
   50b14:	f907de93 	str	x19, [x20, #4024]
   50b18:	94003564 	bl	5e0a8 <flush_dcache_range>
   50b1c:	f947de80 	ldr	x0, [x20, #4024]
   50b20:	d2800601 	mov	x1, #0x30                  	// #48
   50b24:	a94153f3 	ldp	x19, x20, [sp, #16]
   50b28:	a8c27bfd 	ldp	x29, x30, [sp], #32
   50b2c:	1400355f 	b	5e0a8 <flush_dcache_range>

0000000000050b30 <gicv3_distif_init>:
   50b30:	a9be7bfd 	stp	x29, x30, [sp, #-32]!
   50b34:	910003fd 	mov	x29, sp
   50b38:	f9000bf3 	str	x19, [sp, #16]
   50b3c:	b00000b3 	adrp	x19, 65000 <__STACKS_START__+0x2f80>
   50b40:	f947de60 	ldr	x0, [x19, #4024]
   50b44:	f9400000 	ldr	x0, [x0]
   50b48:	b9400001 	ldr	w1, [x0]
   50b4c:	121d7021 	and	w1, w1, #0xfffffff8
   50b50:	b9000001 	str	w1, [x0]
   50b54:	97ffffd6 	bl	50aac <gicd_wait_for_pending_write>
   50b58:	f947de60 	ldr	x0, [x19, #4024]
   50b5c:	f9400000 	ldr	x0, [x0]
   50b60:	b9400001 	ldr	w1, [x0]
   50b64:	321c0421 	orr	w1, w1, #0x30
   50b68:	b9000001 	str	w1, [x0]
   50b6c:	97ffffd0 	bl	50aac <gicd_wait_for_pending_write>
   50b70:	f947de60 	ldr	x0, [x19, #4024]
   50b74:	f9400000 	ldr	x0, [x0]
   50b78:	97ffff1a 	bl	507e0 <gicv3_spis_config_defaults>
   50b7c:	f947de60 	ldr	x0, [x19, #4024]
   50b80:	b9401802 	ldr	w2, [x0, #24]
   50b84:	f9400801 	ldr	x1, [x0, #16]
   50b88:	f9400000 	ldr	x0, [x0]
   50b8c:	97ffff3f 	bl	50888 <gicv3_secure_spis_config_props>
   50b90:	f947de61 	ldr	x1, [x19, #4024]
   50b94:	f9400bf3 	ldr	x19, [sp, #16]
   50b98:	f9400021 	ldr	x1, [x1]
   50b9c:	b9400022 	ldr	w2, [x1]
   50ba0:	2a020000 	orr	w0, w0, w2
   50ba4:	b9000020 	str	w0, [x1]
   50ba8:	aa0103e0 	mov	x0, x1
   50bac:	a8c27bfd 	ldp	x29, x30, [sp], #32
   50bb0:	17ffffbf 	b	50aac <gicd_wait_for_pending_write>

0000000000050bb4 <gicv3_rdistif_init>:
   50bb4:	a9bd7bfd 	stp	x29, x30, [sp, #-48]!
   50bb8:	910003fd 	mov	x29, sp
   50bbc:	a90153f3 	stp	x19, x20, [sp, #16]
   50bc0:	b00000b3 	adrp	x19, 65000 <__STACKS_START__+0x2f80>
   50bc4:	2a0003f4 	mov	w20, w0
   50bc8:	f947de61 	ldr	x1, [x19, #4024]
   50bcc:	f9400021 	ldr	x1, [x1]
   50bd0:	f90013f5 	str	x21, [sp, #32]
   50bd4:	b9400035 	ldr	w21, [x1]
   50bd8:	97fffe17 	bl	50434 <gicv3_rdistif_on>
   50bdc:	f947de60 	ldr	x0, [x19, #4024]
   50be0:	f9401000 	ldr	x0, [x0, #32]
   50be4:	f8745814 	ldr	x20, [x0, w20, uxtw #3]
   50be8:	aa1403e0 	mov	x0, x20
   50bec:	97ffff61 	bl	50970 <gicv3_ppi_sgi_config_defaults>
   50bf0:	f947de60 	ldr	x0, [x19, #4024]
   50bf4:	b9401802 	ldr	w2, [x0, #24]
   50bf8:	f9400801 	ldr	x1, [x0, #16]
   50bfc:	aa1403e0 	mov	x0, x20
   50c00:	97ffff78 	bl	509e0 <gicv3_secure_ppi_sgi_config_props>
   50c04:	6a35001f 	bics	wzr, w0, w21
   50c08:	54000160 	b.eq	50c34 <gicv3_rdistif_init+0x80>  // b.none
   50c0c:	2a0003e1 	mov	w1, w0
   50c10:	f947de60 	ldr	x0, [x19, #4024]
   50c14:	a94153f3 	ldp	x19, x20, [sp, #16]
   50c18:	f9400000 	ldr	x0, [x0]
   50c1c:	f94013f5 	ldr	x21, [sp, #32]
   50c20:	b9400002 	ldr	w2, [x0]
   50c24:	2a020021 	orr	w1, w1, w2
   50c28:	b9000001 	str	w1, [x0]
   50c2c:	a8c37bfd 	ldp	x29, x30, [sp], #48
   50c30:	17ffff9f 	b	50aac <gicd_wait_for_pending_write>
   50c34:	a94153f3 	ldp	x19, x20, [sp, #16]
   50c38:	f94013f5 	ldr	x21, [sp, #32]
   50c3c:	a8c37bfd 	ldp	x29, x30, [sp], #48
   50c40:	d65f03c0 	ret

0000000000050c44 <gicv3_cpuif_enable>:
   50c44:	a9bf7bfd 	stp	x29, x30, [sp, #-16]!
   50c48:	b00000a1 	adrp	x1, 65000 <__STACKS_START__+0x2f80>
   50c4c:	910003fd 	mov	x29, sp
   50c50:	f947dc21 	ldr	x1, [x1, #4024]
   50c54:	f9401021 	ldr	x1, [x1, #32]
   50c58:	f8605820 	ldr	x0, [x1, w0, uxtw #3]
   50c5c:	97fffeb8 	bl	5073c <gicv3_rdistif_mark_core_awake>
   50c60:	d53ecca0 	mrs	x0, s3_6_c12_c12_5
   50c64:	b2400c00 	orr	x0, x0, #0xf
   50c68:	d51ecca0 	msr	s3_6_c12_c12_5, x0
   50c6c:	d53e1100 	mrs	x0, scr_el3
   50c70:	b2400001 	orr	x1, x0, #0x1
   50c74:	d51e1101 	msr	scr_el3, x1
   50c78:	d5033fdf 	isb
   50c7c:	d53cc9a1 	mrs	x1, s3_4_c12_c9_5
   50c80:	b2400c21 	orr	x1, x1, #0xf
   50c84:	d51cc9a1 	msr	s3_4_c12_c9_5, x1
   50c88:	d2800021 	mov	x1, #0x1                   	// #1
   50c8c:	d518cca1 	msr	s3_0_c12_c12_5, x1
   50c90:	d5033fdf 	isb
   50c94:	927ff800 	and	x0, x0, #0xfffffffffffffffe
   50c98:	d51e1100 	msr	scr_el3, x0
   50c9c:	d5033fdf 	isb
   50ca0:	d518cca1 	msr	s3_0_c12_c12_5, x1
   50ca4:	d5033fdf 	isb
   50ca8:	d2801fe0 	mov	x0, #0xff                  	// #255
   50cac:	d5184600 	msr	s3_0_c4_c6_0, x0
   50cb0:	d518ccc1 	msr	s3_0_c12_c12_6, x1
   50cb4:	d53ecce0 	mrs	x0, s3_6_c12_c12_7
   50cb8:	b27f0000 	orr	x0, x0, #0x2
   50cbc:	d51ecce0 	msr	s3_6_c12_c12_7, x0
   50cc0:	d5033fdf 	isb
   50cc4:	a8c17bfd 	ldp	x29, x30, [sp], #16
   50cc8:	d65f03c0 	ret

0000000000050ccc <gicv3_cpuif_disable>:
   50ccc:	d53ecca1 	mrs	x1, s3_6_c12_c12_5
   50cd0:	b27f0421 	orr	x1, x1, #0x6
   50cd4:	d51ecca1 	msr	s3_6_c12_c12_5, x1
   50cd8:	d538ccc1 	mrs	x1, s3_0_c12_c12_6
   50cdc:	927f7821 	and	x1, x1, #0xfffffffe
   50ce0:	d518ccc1 	msr	s3_0_c12_c12_6, x1
   50ce4:	d53ecce1 	mrs	x1, s3_6_c12_c12_7
   50ce8:	927e7421 	and	x1, x1, #0xfffffffc
   50cec:	d51ecce1 	msr	s3_6_c12_c12_7, x1
   50cf0:	d5033fdf 	isb
   50cf4:	b00000a1 	adrp	x1, 65000 <__STACKS_START__+0x2f80>
   50cf8:	f947dc21 	ldr	x1, [x1, #4024]
   50cfc:	f9401021 	ldr	x1, [x1, #32]
   50d00:	f8605820 	ldr	x0, [x1, w0, uxtw #3]
   50d04:	17fffe95 	b	50758 <gicv3_rdistif_mark_core_asleep>

0000000000050d08 <gicv3_get_pending_interrupt_type>:
   50d08:	d538c840 	mrs	x0, s3_0_c12_c8_2
   50d0c:	12005c00 	and	w0, w0, #0xffffff
   50d10:	d65f03c0 	ret

0000000000050d14 <gicv3_rdistif_save>:
   50d14:	a9bf7bfd 	stp	x29, x30, [sp, #-16]!
   50d18:	2a0003e3 	mov	w3, w0
   50d1c:	b00000a0 	adrp	x0, 65000 <__STACKS_START__+0x2f80>
   50d20:	910003fd 	mov	x29, sp
   50d24:	f947dc00 	ldr	x0, [x0, #4024]
   50d28:	aa0103e2 	mov	x2, x1
   50d2c:	f9401000 	ldr	x0, [x0, #32]
   50d30:	f8635800 	ldr	x0, [x0, w3, uxtw #3]
   50d34:	97ffff61 	bl	50ab8 <gicr_wait_for_pending_write>
   50d38:	b9400001 	ldr	w1, [x0]
   50d3c:	b9001041 	str	w1, [x2, #16]
   50d40:	91404004 	add	x4, x0, #0x10, lsl #12
   50d44:	f9403801 	ldr	x1, [x0, #112]
   50d48:	f9000041 	str	x1, [x2]
   50d4c:	91108084 	add	x4, x4, #0x420
   50d50:	f9403c01 	ldr	x1, [x0, #120]
   50d54:	f9000441 	str	x1, [x2, #8]
   50d58:	d2801001 	mov	x1, #0x80                  	// #128
   50d5c:	f2a00021 	movk	x1, #0x1, lsl #16
   50d60:	b8616801 	ldr	w1, [x0, x1]
   50d64:	b9001441 	str	w1, [x2, #20]
   50d68:	d2802001 	mov	x1, #0x100                 	// #256
   50d6c:	f2a00021 	movk	x1, #0x1, lsl #16
   50d70:	b8616801 	ldr	w1, [x0, x1]
   50d74:	b9001841 	str	w1, [x2, #24]
   50d78:	d2804001 	mov	x1, #0x200                 	// #512
   50d7c:	f2a00021 	movk	x1, #0x1, lsl #16
   50d80:	b8616801 	ldr	w1, [x0, x1]
   50d84:	b9001c41 	str	w1, [x2, #28]
   50d88:	d2806001 	mov	x1, #0x300                 	// #768
   50d8c:	f2a00021 	movk	x1, #0x1, lsl #16
   50d90:	b8616801 	ldr	w1, [x0, x1]
   50d94:	b9002041 	str	w1, [x2, #32]
   50d98:	d281a001 	mov	x1, #0xd00                 	// #3328
   50d9c:	f2a00021 	movk	x1, #0x1, lsl #16
   50da0:	b8616801 	ldr	w1, [x0, x1]
   50da4:	b9004c41 	str	w1, [x2, #76]
   50da8:	d2818001 	mov	x1, #0xc00                 	// #3072
   50dac:	f2a00021 	movk	x1, #0x1, lsl #16
   50db0:	b8616801 	ldr	w1, [x0, x1]
   50db4:	b9004441 	str	w1, [x2, #68]
   50db8:	d2818081 	mov	x1, #0xc04                 	// #3076
   50dbc:	f2a00021 	movk	x1, #0x1, lsl #16
   50dc0:	b8616801 	ldr	w1, [x0, x1]
   50dc4:	b9004841 	str	w1, [x2, #72]
   50dc8:	d281c001 	mov	x1, #0xe00                 	// #3584
   50dcc:	f2a00021 	movk	x1, #0x1, lsl #16
   50dd0:	b8616801 	ldr	w1, [x0, x1]
   50dd4:	b9005041 	str	w1, [x2, #80]
   50dd8:	cb000042 	sub	x2, x2, x0
   50ddc:	91404001 	add	x1, x0, #0x10, lsl #12
   50de0:	d1404042 	sub	x2, x2, #0x10, lsl #12
   50de4:	91100021 	add	x1, x1, #0x400
   50de8:	d10f7042 	sub	x2, x2, #0x3dc
   50dec:	b9400020 	ldr	w0, [x1]
   50df0:	b8216840 	str	w0, [x2, x1]
   50df4:	91001021 	add	x1, x1, #0x4
   50df8:	eb04003f 	cmp	x1, x4
   50dfc:	54ffff81 	b.ne	50dec <gicv3_rdistif_save+0xd8>  // b.any
   50e00:	a8c17bfd 	ldp	x29, x30, [sp], #16
   50e04:	2a0303e0 	mov	w0, w3
   50e08:	17fffd89 	b	5042c <gicv3_distif_pre_save>

0000000000050e0c <gicv3_rdistif_init_restore>:
   50e0c:	a9bd7bfd 	stp	x29, x30, [sp, #-48]!
   50e10:	910003fd 	mov	x29, sp
   50e14:	a90153f3 	stp	x19, x20, [sp, #16]
   50e18:	aa0103f4 	mov	x20, x1
   50e1c:	b00000a1 	adrp	x1, 65000 <__STACKS_START__+0x2f80>
   50e20:	f947dc21 	ldr	x1, [x1, #4024]
   50e24:	f9401021 	ldr	x1, [x1, #32]
   50e28:	f90013f5 	str	x21, [sp, #32]
   50e2c:	2a0003f5 	mov	w21, w0
   50e30:	f8755833 	ldr	x19, [x1, w21, uxtw #3]
   50e34:	97fffd80 	bl	50434 <gicv3_rdistif_on>
   50e38:	2a1503e0 	mov	w0, w21
   50e3c:	97fffd7d 	bl	50430 <gicv3_distif_post_restore>
   50e40:	d2803000 	mov	x0, #0x180                 	// #384
   50e44:	12800001 	mov	w1, #0xffffffff            	// #-1
   50e48:	f2a00020 	movk	x0, #0x1, lsl #16
   50e4c:	b8206a61 	str	w1, [x19, x0]
   50e50:	aa1303e0 	mov	x0, x19
   50e54:	97ffff19 	bl	50ab8 <gicr_wait_for_pending_write>
   50e58:	b9401280 	ldr	w0, [x20, #16]
   50e5c:	91404262 	add	x2, x19, #0x10, lsl #12
   50e60:	91108042 	add	x2, x2, #0x420
   50e64:	121f7800 	and	w0, w0, #0xfffffffe
   50e68:	b9000260 	str	w0, [x19]
   50e6c:	f9400280 	ldr	x0, [x20]
   50e70:	b9401681 	ldr	w1, [x20, #20]
   50e74:	f9003a60 	str	x0, [x19, #112]
   50e78:	f9400680 	ldr	x0, [x20, #8]
   50e7c:	f9003e60 	str	x0, [x19, #120]
   50e80:	d2801000 	mov	x0, #0x80                  	// #128
   50e84:	f2a00020 	movk	x0, #0x1, lsl #16
   50e88:	b8206a61 	str	w1, [x19, x0]
   50e8c:	91320000 	add	x0, x0, #0xc80
   50e90:	b9404e81 	ldr	w1, [x20, #76]
   50e94:	b8206a61 	str	w1, [x19, x0]
   50e98:	cb130281 	sub	x1, x20, x19
   50e9c:	91404260 	add	x0, x19, #0x10, lsl #12
   50ea0:	d1404021 	sub	x1, x1, #0x10, lsl #12
   50ea4:	91100000 	add	x0, x0, #0x400
   50ea8:	d10f7021 	sub	x1, x1, #0x3dc
   50eac:	b8606823 	ldr	w3, [x1, x0]
   50eb0:	b8004403 	str	w3, [x0], #4
   50eb4:	eb02001f 	cmp	x0, x2
   50eb8:	54ffffa1 	b.ne	50eac <gicv3_rdistif_init_restore+0xa0>  // b.any
   50ebc:	d2818000 	mov	x0, #0xc00                 	// #3072
   50ec0:	b9404681 	ldr	w1, [x20, #68]
   50ec4:	f2a00020 	movk	x0, #0x1, lsl #16
   50ec8:	b8206a61 	str	w1, [x19, x0]
   50ecc:	91001000 	add	x0, x0, #0x4
   50ed0:	b9404a81 	ldr	w1, [x20, #72]
   50ed4:	b8206a61 	str	w1, [x19, x0]
   50ed8:	9107f000 	add	x0, x0, #0x1fc
   50edc:	b9405281 	ldr	w1, [x20, #80]
   50ee0:	b8206a61 	str	w1, [x19, x0]
   50ee4:	d2804000 	mov	x0, #0x200                 	// #512
   50ee8:	f2a00020 	movk	x0, #0x1, lsl #16
   50eec:	b9401e81 	ldr	w1, [x20, #28]
   50ef0:	b8206a61 	str	w1, [x19, x0]
   50ef4:	91040000 	add	x0, x0, #0x100
   50ef8:	b9402281 	ldr	w1, [x20, #32]
   50efc:	b8206a61 	str	w1, [x19, x0]
   50f00:	aa1303e0 	mov	x0, x19
   50f04:	97fffeea 	bl	50aac <gicd_wait_for_pending_write>
   50f08:	d2802000 	mov	x0, #0x100                 	// #256
   50f0c:	b9401a81 	ldr	w1, [x20, #24]
   50f10:	f2a00020 	movk	x0, #0x1, lsl #16
   50f14:	f94013f5 	ldr	x21, [sp, #32]
   50f18:	b8206a61 	str	w1, [x19, x0]
   50f1c:	b9401280 	ldr	w0, [x20, #16]
   50f20:	b9000260 	str	w0, [x19]
   50f24:	aa1303e0 	mov	x0, x19
   50f28:	a94153f3 	ldp	x19, x20, [sp, #16]
   50f2c:	a8c37bfd 	ldp	x29, x30, [sp], #48
   50f30:	17fffee2 	b	50ab8 <gicr_wait_for_pending_write>

0000000000050f34 <gicv3_distif_save>:
   50f34:	a9bd7bfd 	stp	x29, x30, [sp, #-48]!
   50f38:	910003fd 	mov	x29, sp
   50f3c:	a9025bf5 	stp	x21, x22, [sp, #32]
   50f40:	aa0003f5 	mov	x21, x0
   50f44:	b00000a0 	adrp	x0, 65000 <__STACKS_START__+0x2f80>
   50f48:	a90153f3 	stp	x19, x20, [sp, #16]
   50f4c:	52800416 	mov	w22, #0x20                  	// #32
   50f50:	f947dc00 	ldr	x0, [x0, #4024]
   50f54:	f9400014 	ldr	x20, [x0]
   50f58:	52807f80 	mov	w0, #0x3fc                 	// #1020
   50f5c:	b9400693 	ldr	w19, [x20, #4]
   50f60:	531b1273 	ubfiz	w19, w19, #5, #5
   50f64:	11008273 	add	w19, w19, #0x20
   50f68:	710ff27f 	cmp	w19, #0x3fc
   50f6c:	1a809273 	csel	w19, w19, w0, ls  // ls = plast
   50f70:	aa1403e0 	mov	x0, x20
   50f74:	97fffece 	bl	50aac <gicd_wait_for_pending_write>
   50f78:	b9400280 	ldr	w0, [x20]
   50f7c:	b91ee2a0 	str	w0, [x21, #7904]
   50f80:	6b1302df 	cmp	w22, w19
   50f84:	54000423 	b.cc	51008 <gicv3_distif_save+0xd4>  // b.lo, b.ul, b.last
   50f88:	52800416 	mov	w22, #0x20                  	// #32
   50f8c:	6b1302df 	cmp	w22, w19
   50f90:	540004e3 	b.cc	5102c <gicv3_distif_save+0xf8>  // b.lo, b.ul, b.last
   50f94:	52800416 	mov	w22, #0x20                  	// #32
   50f98:	6b1302df 	cmp	w22, w19
   50f9c:	540005a3 	b.cc	51050 <gicv3_distif_save+0x11c>  // b.lo, b.ul, b.last
   50fa0:	52800416 	mov	w22, #0x20                  	// #32
   50fa4:	6b1302df 	cmp	w22, w19
   50fa8:	54000663 	b.cc	51074 <gicv3_distif_save+0x140>  // b.lo, b.ul, b.last
   50fac:	52800416 	mov	w22, #0x20                  	// #32
   50fb0:	6b1302df 	cmp	w22, w19
   50fb4:	54000723 	b.cc	51098 <gicv3_distif_save+0x164>  // b.lo, b.ul, b.last
   50fb8:	52800416 	mov	w22, #0x20                  	// #32
   50fbc:	6b1302df 	cmp	w22, w19
   50fc0:	540007e3 	b.cc	510bc <gicv3_distif_save+0x188>  // b.lo, b.ul, b.last
   50fc4:	52800416 	mov	w22, #0x20                  	// #32
   50fc8:	6b1302df 	cmp	w22, w19
   50fcc:	540008a3 	b.cc	510e0 <gicv3_distif_save+0x1ac>  // b.lo, b.ul, b.last
   50fd0:	52800416 	mov	w22, #0x20                  	// #32
   50fd4:	6b1302df 	cmp	w22, w19
   50fd8:	54000963 	b.cc	51104 <gicv3_distif_save+0x1d0>  // b.lo, b.ul, b.last
   50fdc:	92801fe0 	mov	x0, #0xffffffffffffff00    	// #-256
   50fe0:	d28c2001 	mov	x1, #0x6100                	// #24832
   50fe4:	8b010294 	add	x20, x20, x1
   50fe8:	8b334c13 	add	x19, x0, w19, uxtw #3
   50fec:	d2800000 	mov	x0, #0x0                   	// #0
   50ff0:	eb13001f 	cmp	x0, x19
   50ff4:	540009a1 	b.ne	51128 <gicv3_distif_save+0x1f4>  // b.any
   50ff8:	a94153f3 	ldp	x19, x20, [sp, #16]
   50ffc:	a9425bf5 	ldp	x21, x22, [sp, #32]
   51000:	a8c37bfd 	ldp	x29, x30, [sp], #48
   51004:	d65f03c0 	ret
   51008:	2a1603e1 	mov	w1, w22
   5100c:	aa1403e0 	mov	x0, x20
   51010:	97fffd48 	bl	50530 <gicd_read_igroupr>
   51014:	510082c1 	sub	w1, w22, #0x20
   51018:	110082d6 	add	w22, w22, #0x20
   5101c:	53057c21 	lsr	w1, w1, #5
   51020:	8b010aa1 	add	x1, x21, x1, lsl #2
   51024:	b91ee420 	str	w0, [x1, #7908]
   51028:	17ffffd6 	b	50f80 <gicv3_distif_save+0x4c>
   5102c:	2a1603e1 	mov	w1, w22
   51030:	aa1403e0 	mov	x0, x20
   51034:	97fffd65 	bl	505c8 <gicd_read_isenabler>
   51038:	510082c1 	sub	w1, w22, #0x20
   5103c:	110082d6 	add	w22, w22, #0x20
   51040:	53057c21 	lsr	w1, w1, #5
   51044:	911f6021 	add	x1, x1, #0x7d8
   51048:	b8217aa0 	str	w0, [x21, x1, lsl #2]
   5104c:	17ffffd0 	b	50f8c <gicv3_distif_save+0x58>
   51050:	2a1603e1 	mov	w1, w22
   51054:	aa1403e0 	mov	x0, x20
   51058:	97fffd66 	bl	505f0 <gicd_read_ispendr>
   5105c:	510082c1 	sub	w1, w22, #0x20
   51060:	110082d6 	add	w22, w22, #0x20
   51064:	53057c21 	lsr	w1, w1, #5
   51068:	8b010aa1 	add	x1, x21, x1, lsl #2
   5106c:	b91fdc20 	str	w0, [x1, #8156]
   51070:	17ffffca 	b	50f98 <gicv3_distif_save+0x64>
   51074:	2a1603e1 	mov	w1, w22
   51078:	aa1403e0 	mov	x0, x20
   5107c:	97fffd49 	bl	505a0 <gicd_read_isactiver>
   51080:	510082c1 	sub	w1, w22, #0x20
   51084:	110082d6 	add	w22, w22, #0x20
   51088:	53057c21 	lsr	w1, w1, #5
   5108c:	8b010aa1 	add	x1, x21, x1, lsl #2
   51090:	b9205820 	str	w0, [x1, #8280]
   51094:	17ffffc4 	b	50fa4 <gicv3_distif_save+0x70>
   51098:	2a1603e1 	mov	w1, w22
   5109c:	aa1403e0 	mov	x0, x20
   510a0:	97fffd38 	bl	50580 <gicd_read_ipriorityr>
   510a4:	510082c1 	sub	w1, w22, #0x20
   510a8:	110012d6 	add	w22, w22, #0x4
   510ac:	927e7421 	and	x1, x1, #0xfffffffc
   510b0:	8b0102a1 	add	x1, x21, x1
   510b4:	b920d420 	str	w0, [x1, #8404]
   510b8:	17ffffbe 	b	50fb0 <gicv3_distif_save+0x7c>
   510bc:	2a1603e1 	mov	w1, w22
   510c0:	aa1403e0 	mov	x0, x20
   510c4:	97fffd11 	bl	50508 <gicd_read_icfgr>
   510c8:	510082c1 	sub	w1, w22, #0x20
   510cc:	110042d6 	add	w22, w22, #0x10
   510d0:	53047c21 	lsr	w1, w1, #4
   510d4:	9124b021 	add	x1, x1, #0x92c
   510d8:	b8217aa0 	str	w0, [x21, x1, lsl #2]
   510dc:	17ffffb8 	b	50fbc <gicv3_distif_save+0x88>
   510e0:	2a1603e1 	mov	w1, w22
   510e4:	aa1403e0 	mov	x0, x20
   510e8:	97fffd1c 	bl	50558 <gicd_read_igrpmodr>
   510ec:	510082c1 	sub	w1, w22, #0x20
   510f0:	110082d6 	add	w22, w22, #0x20
   510f4:	53057c21 	lsr	w1, w1, #5
   510f8:	8b010aa1 	add	x1, x21, x1, lsl #2
   510fc:	b925a820 	str	w0, [x1, #9640]
   51100:	17ffffb2 	b	50fc8 <gicv3_distif_save+0x94>
   51104:	2a1603e1 	mov	w1, w22
   51108:	aa1403e0 	mov	x0, x20
   5110c:	97fffd43 	bl	50618 <gicd_read_nsacr>
   51110:	510082c1 	sub	w1, w22, #0x20
   51114:	110042d6 	add	w22, w22, #0x10
   51118:	53047c21 	lsr	w1, w1, #4
   5111c:	8b010aa1 	add	x1, x21, x1, lsl #2
   51120:	b9262420 	str	w0, [x1, #9764]
   51124:	17ffffac 	b	50fd4 <gicv3_distif_save+0xa0>
   51128:	f8606a81 	ldr	x1, [x20, x0]
   5112c:	f8206aa1 	str	x1, [x21, x0]
   51130:	91002000 	add	x0, x0, #0x8
   51134:	17ffffaf 	b	50ff0 <gicv3_distif_save+0xbc>

0000000000051138 <gicv3_distif_init_restore>:
   51138:	a9bd7bfd 	stp	x29, x30, [sp, #-48]!
   5113c:	910003fd 	mov	x29, sp
   51140:	a9025bf5 	stp	x21, x22, [sp, #32]
   51144:	aa0003f5 	mov	x21, x0
   51148:	900000a0 	adrp	x0, 65000 <__STACKS_START__+0x2f80>
   5114c:	a90153f3 	stp	x19, x20, [sp, #16]
   51150:	52800416 	mov	w22, #0x20                  	// #32
   51154:	f947dc00 	ldr	x0, [x0, #4024]
   51158:	f9400013 	ldr	x19, [x0]
   5115c:	b9400260 	ldr	w0, [x19]
   51160:	121d7000 	and	w0, w0, #0xfffffff8
   51164:	b9000260 	str	w0, [x19]
   51168:	aa1303e0 	mov	x0, x19
   5116c:	97fffe50 	bl	50aac <gicd_wait_for_pending_write>
   51170:	b9400260 	ldr	w0, [x19]
   51174:	321c0400 	orr	w0, w0, #0x30
   51178:	b9000260 	str	w0, [x19]
   5117c:	aa1303e0 	mov	x0, x19
   51180:	97fffe4b 	bl	50aac <gicd_wait_for_pending_write>
   51184:	b9400674 	ldr	w20, [x19, #4]
   51188:	52807f80 	mov	w0, #0x3fc                 	// #1020
   5118c:	531b1294 	ubfiz	w20, w20, #5, #5
   51190:	11008294 	add	w20, w20, #0x20
   51194:	710ff29f 	cmp	w20, #0x3fc
   51198:	1a809294 	csel	w20, w20, w0, ls  // ls = plast
   5119c:	6b1402df 	cmp	w22, w20
   511a0:	54000463 	b.cc	5122c <gicv3_distif_init_restore+0xf4>  // b.lo, b.ul, b.last
   511a4:	52800416 	mov	w22, #0x20                  	// #32
   511a8:	6b1402df 	cmp	w22, w20
   511ac:	54000523 	b.cc	51250 <gicv3_distif_init_restore+0x118>  // b.lo, b.ul, b.last
   511b0:	52800416 	mov	w22, #0x20                  	// #32
   511b4:	6b1402df 	cmp	w22, w20
   511b8:	540005e3 	b.cc	51274 <gicv3_distif_init_restore+0x13c>  // b.lo, b.ul, b.last
   511bc:	52800416 	mov	w22, #0x20                  	// #32
   511c0:	6b1402df 	cmp	w22, w20
   511c4:	540006a3 	b.cc	51298 <gicv3_distif_init_restore+0x160>  // b.lo, b.ul, b.last
   511c8:	52800416 	mov	w22, #0x20                  	// #32
   511cc:	6b1402df 	cmp	w22, w20
   511d0:	54000763 	b.cc	512bc <gicv3_distif_init_restore+0x184>  // b.lo, b.ul, b.last
   511d4:	d28c2000 	mov	x0, #0x6100                	// #24832
   511d8:	8b000261 	add	x1, x19, x0
   511dc:	d2800000 	mov	x0, #0x0                   	// #0
   511e0:	11008002 	add	w2, w0, #0x20
   511e4:	6b02029f 	cmp	w20, w2
   511e8:	540007c8 	b.hi	512e0 <gicv3_distif_init_restore+0x1a8>  // b.pmore
   511ec:	52800416 	mov	w22, #0x20                  	// #32
   511f0:	6b1402df 	cmp	w22, w20
   511f4:	540007e3 	b.cc	512f0 <gicv3_distif_init_restore+0x1b8>  // b.lo, b.ul, b.last
   511f8:	52800416 	mov	w22, #0x20                  	// #32
   511fc:	6b1402df 	cmp	w22, w20
   51200:	540008a3 	b.cc	51314 <gicv3_distif_init_restore+0x1dc>  // b.lo, b.ul, b.last
   51204:	52800416 	mov	w22, #0x20                  	// #32
   51208:	6b1402df 	cmp	w22, w20
   5120c:	54000963 	b.cc	51338 <gicv3_distif_init_restore+0x200>  // b.lo, b.ul, b.last
   51210:	b95ee2a0 	ldr	w0, [x21, #7904]
   51214:	a9425bf5 	ldp	x21, x22, [sp, #32]
   51218:	b9000260 	str	w0, [x19]
   5121c:	aa1303e0 	mov	x0, x19
   51220:	a94153f3 	ldp	x19, x20, [sp, #16]
   51224:	a8c37bfd 	ldp	x29, x30, [sp], #48
   51228:	17fffe21 	b	50aac <gicd_wait_for_pending_write>
   5122c:	510082c0 	sub	w0, w22, #0x20
   51230:	2a1603e1 	mov	w1, w22
   51234:	110082d6 	add	w22, w22, #0x20
   51238:	53057c00 	lsr	w0, w0, #5
   5123c:	8b000aa0 	add	x0, x21, x0, lsl #2
   51240:	b95ee402 	ldr	w2, [x0, #7908]
   51244:	aa1303e0 	mov	x0, x19
   51248:	97fffcbf 	bl	50544 <gicd_write_igroupr>
   5124c:	17ffffd4 	b	5119c <gicv3_distif_init_restore+0x64>
   51250:	510082c0 	sub	w0, w22, #0x20
   51254:	2a1603e1 	mov	w1, w22
   51258:	927e7400 	and	x0, x0, #0xfffffffc
   5125c:	110012d6 	add	w22, w22, #0x4
   51260:	8b0002a0 	add	x0, x21, x0
   51264:	b960d402 	ldr	w2, [x0, #8404]
   51268:	aa1303e0 	mov	x0, x19
   5126c:	97fffcc9 	bl	50590 <gicd_write_ipriorityr>
   51270:	17ffffce 	b	511a8 <gicv3_distif_init_restore+0x70>
   51274:	510082c0 	sub	w0, w22, #0x20
   51278:	2a1603e1 	mov	w1, w22
   5127c:	110042d6 	add	w22, w22, #0x10
   51280:	53047c00 	lsr	w0, w0, #4
   51284:	9124b000 	add	x0, x0, #0x92c
   51288:	b8607aa2 	ldr	w2, [x21, x0, lsl #2]
   5128c:	aa1303e0 	mov	x0, x19
   51290:	97fffca3 	bl	5051c <gicd_write_icfgr>
   51294:	17ffffc8 	b	511b4 <gicv3_distif_init_restore+0x7c>
   51298:	510082c0 	sub	w0, w22, #0x20
   5129c:	2a1603e1 	mov	w1, w22
   512a0:	110082d6 	add	w22, w22, #0x20
   512a4:	53057c00 	lsr	w0, w0, #5
   512a8:	8b000aa0 	add	x0, x21, x0, lsl #2
   512ac:	b965a802 	ldr	w2, [x0, #9640]
   512b0:	aa1303e0 	mov	x0, x19
   512b4:	97fffcae 	bl	5056c <gicd_write_igrpmodr>
   512b8:	17ffffc2 	b	511c0 <gicv3_distif_init_restore+0x88>
   512bc:	510082c0 	sub	w0, w22, #0x20
   512c0:	2a1603e1 	mov	w1, w22
   512c4:	110042d6 	add	w22, w22, #0x10
   512c8:	53047c00 	lsr	w0, w0, #4
   512cc:	8b000aa0 	add	x0, x21, x0, lsl #2
   512d0:	b9662402 	ldr	w2, [x0, #9764]
   512d4:	aa1303e0 	mov	x0, x19
   512d8:	97fffcd5 	bl	5062c <gicd_write_nsacr>
   512dc:	17ffffbc 	b	511cc <gicv3_distif_init_restore+0x94>
   512e0:	f8607aa2 	ldr	x2, [x21, x0, lsl #3]
   512e4:	91000400 	add	x0, x0, #0x1
   512e8:	f8008422 	str	x2, [x1], #8
   512ec:	17ffffbd 	b	511e0 <gicv3_distif_init_restore+0xa8>
   512f0:	510082c0 	sub	w0, w22, #0x20
   512f4:	2a1603e1 	mov	w1, w22
   512f8:	110082d6 	add	w22, w22, #0x20
   512fc:	53057c00 	lsr	w0, w0, #5
   51300:	911f6000 	add	x0, x0, #0x7d8
   51304:	b8607aa2 	ldr	w2, [x21, x0, lsl #2]
   51308:	aa1303e0 	mov	x0, x19
   5130c:	97fffcb4 	bl	505dc <gicd_write_isenabler>
   51310:	17ffffb8 	b	511f0 <gicv3_distif_init_restore+0xb8>
   51314:	510082c0 	sub	w0, w22, #0x20
   51318:	2a1603e1 	mov	w1, w22
   5131c:	110082d6 	add	w22, w22, #0x20
   51320:	53057c00 	lsr	w0, w0, #5
   51324:	8b000aa0 	add	x0, x21, x0, lsl #2
   51328:	b95fdc02 	ldr	w2, [x0, #8156]
   5132c:	aa1303e0 	mov	x0, x19
   51330:	97fffcb5 	bl	50604 <gicd_write_ispendr>
   51334:	17ffffb2 	b	511fc <gicv3_distif_init_restore+0xc4>
   51338:	510082c0 	sub	w0, w22, #0x20
   5133c:	2a1603e1 	mov	w1, w22
   51340:	110082d6 	add	w22, w22, #0x20
   51344:	53057c00 	lsr	w0, w0, #5
   51348:	8b000aa0 	add	x0, x21, x0, lsl #2
   5134c:	b9605802 	ldr	w2, [x0, #8280]
   51350:	aa1303e0 	mov	x0, x19
   51354:	97fffc98 	bl	505b4 <gicd_write_isactiver>
   51358:	17ffffac 	b	51208 <gicv3_distif_init_restore+0xd0>

000000000005135c <udelay>:
   5135c:	a9bd7bfd 	stp	x29, x30, [sp, #-48]!
   51360:	910003fd 	mov	x29, sp
   51364:	a90153f3 	stp	x19, x20, [sp, #16]
   51368:	900000b4 	adrp	x20, 65000 <__STACKS_START__+0x2f80>
   5136c:	2a0003f3 	mov	w19, w0
   51370:	f947e280 	ldr	x0, [x20, #4032]
   51374:	f9400000 	ldr	x0, [x0]
   51378:	f90013f5 	str	x21, [sp, #32]
   5137c:	d63f0000 	blr	x0
   51380:	2a0003f5 	mov	w21, w0
   51384:	f947e282 	ldr	x2, [x20, #4032]
   51388:	29410841 	ldp	w1, w2, [x2, #8]
   5138c:	d1000420 	sub	x0, x1, #0x1
   51390:	9ba20273 	umaddl	x19, w19, w2, x0
   51394:	9ac10a73 	udiv	x19, x19, x1
   51398:	91000673 	add	x19, x19, #0x1
   5139c:	f947e280 	ldr	x0, [x20, #4032]
   513a0:	f9400000 	ldr	x0, [x0]
   513a4:	d63f0000 	blr	x0
   513a8:	4b0002a1 	sub	w1, w21, w0
   513ac:	eb13003f 	cmp	x1, x19
   513b0:	54ffff63 	b.cc	5139c <udelay+0x40>  // b.lo, b.ul, b.last
   513b4:	a94153f3 	ldp	x19, x20, [sp, #16]
   513b8:	f94013f5 	ldr	x21, [sp, #32]
   513bc:	a8c37bfd 	ldp	x29, x30, [sp], #48
   513c0:	d65f03c0 	ret

00000000000513c4 <timer_init>:
   513c4:	900000a1 	adrp	x1, 65000 <__STACKS_START__+0x2f80>
   513c8:	f907e020 	str	x0, [x1, #4032]
   513cc:	d65f03c0 	ret

00000000000513d0 <get_timer_value>:
   513d0:	d53be020 	mrs	x0, cntpct_el0
   513d4:	2a2003e0 	mvn	w0, w0
   513d8:	d65f03c0 	ret

00000000000513dc <generic_delay_timer_init_args>:
   513dc:	2a0003e4 	mov	w4, w0
   513e0:	900000a3 	adrp	x3, 65000 <__STACKS_START__+0x2f80>
   513e4:	913f2060 	add	x0, x3, #0xfc8
   513e8:	90000002 	adrp	x2, 51000 <gicv3_distif_save+0xcc>
   513ec:	910f4042 	add	x2, x2, #0x3d0
   513f0:	f907e462 	str	x2, [x3, #4040]
   513f4:	29010404 	stp	w4, w1, [x0, #8]
   513f8:	17fffff3 	b	513c4 <timer_init>

00000000000513fc <generic_delay_timer_init>:
   513fc:	a9bf7bfd 	stp	x29, x30, [sp, #-16]!
   51400:	910003fd 	mov	x29, sp
   51404:	94000757 	bl	53160 <plat_get_syscnt_freq2>
   51408:	2a0003e1 	mov	w1, w0
   5140c:	52884800 	mov	w0, #0x4240                	// #16960
   51410:	528000c3 	mov	w3, #0x6                   	// #6
   51414:	72a001e0 	movk	w0, #0xf, lsl #16
   51418:	52800142 	mov	w2, #0xa                   	// #10
   5141c:	1ac20824 	udiv	w4, w1, w2
   51420:	1b028485 	msub	w5, w4, w2, w1
   51424:	350000a5 	cbnz	w5, 51438 <generic_delay_timer_init+0x3c>
   51428:	1ac20800 	udiv	w0, w0, w2
   5142c:	2a0403e1 	mov	w1, w4
   51430:	71000463 	subs	w3, w3, #0x1
   51434:	54ffff41 	b.ne	5141c <generic_delay_timer_init+0x20>  // b.any
   51438:	a8c17bfd 	ldp	x29, x30, [sp], #16
   5143c:	17ffffe8 	b	513dc <generic_delay_timer_init_args>

0000000000051440 <gpio_set_direction>:
   51440:	900000a2 	adrp	x2, 65000 <__STACKS_START__+0x2f80>
   51444:	f947ec42 	ldr	x2, [x2, #4056]
   51448:	f9400442 	ldr	x2, [x2, #8]
   5144c:	aa0203f0 	mov	x16, x2
   51450:	d61f0200 	br	x16

0000000000051454 <gpio_set_value>:
   51454:	900000a2 	adrp	x2, 65000 <__STACKS_START__+0x2f80>
   51458:	f947ec42 	ldr	x2, [x2, #4056]
   5145c:	f9400c42 	ldr	x2, [x2, #24]
   51460:	aa0203f0 	mov	x16, x2
   51464:	d61f0200 	br	x16

0000000000051468 <gpio_init>:
   51468:	900000a1 	adrp	x1, 65000 <__STACKS_START__+0x2f80>
   5146c:	f907ec20 	str	x0, [x1, #4056]
   51470:	d65f03c0 	ret

0000000000051474 <cm_init>:
   51474:	d65f03c0 	ret

0000000000051478 <cm_setup_context>:
   51478:	a9bd7bfd 	stp	x29, x30, [sp, #-48]!
   5147c:	910003fd 	mov	x29, sp
   51480:	a9025bf5 	stp	x21, x22, [sp, #32]
   51484:	aa0003f6 	mov	x22, x0
   51488:	b9400435 	ldr	w21, [x1, #4]
   5148c:	a90153f3 	stp	x19, x20, [sp, #16]
   51490:	aa0103f4 	mov	x20, x1
   51494:	120002b5 	and	w21, w21, #0x1
   51498:	d2804601 	mov	x1, #0x230                 	// #560
   5149c:	9400336c 	bl	5e24c <zeromem>
   514a0:	d53e1113 	mrs	x19, scr_el3
   514a4:	9281a0e0 	mov	x0, #0xfffffffffffff2f8    	// #-3336
   514a8:	8a000273 	and	x19, x19, x0
   514ac:	34000055 	cbz	w21, 514b4 <cm_setup_context+0x3c>
   514b0:	b2400273 	orr	x19, x19, #0x1
   514b4:	b9401280 	ldr	w0, [x20, #16]
   514b8:	37200040 	tbnz	w0, #4, 514c0 <cm_setup_context+0x48>
   514bc:	b2760273 	orr	x19, x19, #0x400
   514c0:	b9400680 	ldr	w0, [x20, #4]
   514c4:	36100040 	tbz	w0, #2, 514cc <cm_setup_context+0x54>
   514c8:	b2750273 	orr	x19, x19, #0x800
   514cc:	927cfa73 	and	x19, x19, #0xfffffffffffffff7
   514d0:	34000055 	cbz	w21, 514d8 <cm_setup_context+0x60>
   514d4:	b2700673 	orr	x19, x19, #0x30000
   514d8:	d5380420 	mrs	x0, id_aa64pfr1_el1
   514dc:	53082c00 	ubfx	w0, w0, #8, #4
   514e0:	7100041f 	cmp	w0, #0x1
   514e4:	540000a0 	b.eq	514f8 <cm_setup_context+0x80>  // b.none
   514e8:	51000800 	sub	w0, w0, #0x2
   514ec:	7100041f 	cmp	w0, #0x1
   514f0:	54000068 	b.hi	514fc <cm_setup_context+0x84>  // b.pmore
   514f4:	34000055 	cbz	w21, 514fc <cm_setup_context+0x84>
   514f8:	b2660273 	orr	x19, x19, #0x4000000
   514fc:	2a1503e0 	mov	w0, w21
   51500:	97fffb2f 	bl	501bc <get_scr_el3_from_routing_model>
   51504:	b9401281 	ldr	w1, [x20, #16]
   51508:	aa000273 	orr	x19, x19, x0
   5150c:	d3441023 	ubfx	x3, x1, #4, #1
   51510:	37200241 	tbnz	w1, #4, 51558 <cm_setup_context+0xe0>
   51514:	d3420c20 	ubfx	x0, x1, #2, #2
   51518:	7100081f 	cmp	w0, #0x2
   5151c:	540003a1 	b.ne	51590 <cm_setup_context+0x118>  // b.any
   51520:	d5380702 	mrs	x2, id_aa64mmfr0_el1
   51524:	d2802000 	mov	x0, #0x100                 	// #256
   51528:	d378ec42 	ubfx	x2, x2, #56, #4
   5152c:	b2780264 	orr	x4, x19, #0x100
   51530:	f100045f 	cmp	x2, #0x1
   51534:	f2a10000 	movk	x0, #0x800, lsl #16
   51538:	aa000273 	orr	x19, x19, x0
   5153c:	9a840273 	csel	x19, x19, x4, eq  // eq = none
   51540:	d5380700 	mrs	x0, id_aa64mmfr0_el1
   51544:	d37cfc00 	lsr	x0, x0, #60
   51548:	f100081f 	cmp	x0, #0x2
   5154c:	540000c1 	b.ne	51564 <cm_setup_context+0xec>  // b.any
   51550:	b2640273 	orr	x19, x19, #0x10000000
   51554:	14000004 	b	51564 <cm_setup_context+0xec>
   51558:	12000c20 	and	w0, w1, #0xf
   5155c:	7100281f 	cmp	w0, #0xa
   51560:	54fffe00 	b.eq	51520 <cm_setup_context+0xa8>  // b.none
   51564:	35000175 	cbnz	w21, 51590 <cm_setup_context+0x118>
   51568:	d3420c21 	ubfx	x1, x1, #2, #2
   5156c:	7100083f 	cmp	w1, #0x2
   51570:	54000101 	b.ne	51590 <cm_setup_context+0x118>  // b.any
   51574:	b26e0273 	orr	x19, x19, #0x40000
   51578:	340000c3 	cbz	w3, 51590 <cm_setup_context+0x118>
   5157c:	f0000060 	adrp	x0, 60000 <version_string+0x6c>
   51580:	91018400 	add	x0, x0, #0x61
   51584:	94002e43 	bl	5ce90 <tf_log>
   51588:	94002ea9 	bl	5d02c <console_flush>
   5158c:	940032bb 	bl	5e078 <do_panic>
   51590:	d5380400 	mrs	x0, id_aa64pfr0_el1
   51594:	d36cfc00 	lsr	x0, x0, #44
   51598:	f27f081f 	tst	x0, #0xe
   5159c:	540000a0 	b.eq	515b0 <cm_setup_context+0x138>  // b.none
   515a0:	d5380400 	mrs	x0, id_aa64pfr0_el1
   515a4:	f2780c1f 	tst	x0, #0xf00
   515a8:	54000040 	b.eq	515b0 <cm_setup_context+0x138>  // b.none
   515ac:	b25d0273 	orr	x19, x19, #0x800000000
   515b0:	b9400681 	ldr	w1, [x20, #4]
   515b4:	d2810015 	mov	x21, #0x800                 	// #2048
   515b8:	d2810700 	mov	x0, #0x838                 	// #2104
   515bc:	7100007f 	cmp	w3, #0x0
   515c0:	f2a018a0 	movk	x0, #0xc5, lsl #16
   515c4:	f2a61a15 	movk	x21, #0x30d0, lsl #16
   515c8:	d3689c21 	lsl	x1, x1, #24
   515cc:	92670021 	and	x1, x1, #0x2000000
   515d0:	aa150035 	orr	x21, x1, x21
   515d4:	aa000021 	orr	x1, x1, x0
   515d8:	9a951035 	csel	x21, x1, x21, ne  // ne = any
   515dc:	d5380720 	mrs	x0, id_aa64mmfr1_el1
   515e0:	d3608c00 	ubfx	x0, x0, #32, #4
   515e4:	f100041f 	cmp	x0, #0x1
   515e8:	540000c1 	b.ne	51600 <cm_setup_context+0x188>  // b.any
   515ec:	94002ed6 	bl	5d144 <plat_arm_set_twedel_scr_el3>
   515f0:	3100041f 	cmn	w0, #0x1
   515f4:	54000060 	b.eq	51600 <cm_setup_context+0x188>  // b.none
   515f8:	b3620c13 	bfi	x19, x0, #30, #4
   515fc:	b2630273 	orr	x19, x19, #0x20000000
   51600:	f900aad5 	str	x21, [x22, #336]
   51604:	d5381020 	mrs	x0, actlr_el1
   51608:	f9400681 	ldr	x1, [x20, #8]
   5160c:	f90092c1 	str	x1, [x22, #288]
   51610:	b9401281 	ldr	w1, [x20, #16]
   51614:	d2800802 	mov	x2, #0x40                  	// #64
   51618:	f90082d3 	str	x19, [x22, #256]
   5161c:	f9008ec1 	str	x1, [x22, #280]
   51620:	91006281 	add	x1, x20, #0x18
   51624:	f900d2c0 	str	x0, [x22, #416]
   51628:	aa1603e0 	mov	x0, x22
   5162c:	a94153f3 	ldp	x19, x20, [sp, #16]
   51630:	a9425bf5 	ldp	x21, x22, [sp, #32]
   51634:	a8c37bfd 	ldp	x29, x30, [sp], #48
   51638:	1400377a 	b	5f420 <memcpy>

000000000005163c <cm_init_context_by_index>:
   5163c:	a9be7bfd 	stp	x29, x30, [sp, #-32]!
   51640:	910003fd 	mov	x29, sp
   51644:	f9000bf3 	str	x19, [sp, #16]
   51648:	aa0103f3 	mov	x19, x1
   5164c:	b9400421 	ldr	w1, [x1, #4]
   51650:	12000021 	and	w1, w1, #0x1
   51654:	97fffa8e 	bl	5008c <cm_get_context_by_index>
   51658:	aa1303e1 	mov	x1, x19
   5165c:	f9400bf3 	ldr	x19, [sp, #16]
   51660:	a8c27bfd 	ldp	x29, x30, [sp], #32
   51664:	17ffff85 	b	51478 <cm_setup_context>

0000000000051668 <cm_init_my_context>:
   51668:	a9be7bfd 	stp	x29, x30, [sp, #-32]!
   5166c:	910003fd 	mov	x29, sp
   51670:	f9000bf3 	str	x19, [sp, #16]
   51674:	aa0003f3 	mov	x19, x0
   51678:	b9400400 	ldr	w0, [x0, #4]
   5167c:	12000000 	and	w0, w0, #0x1
   51680:	97fffa80 	bl	50080 <cm_get_context>
   51684:	aa1303e1 	mov	x1, x19
   51688:	f9400bf3 	ldr	x19, [sp, #16]
   5168c:	a8c27bfd 	ldp	x29, x30, [sp], #32
   51690:	17ffff7a 	b	51478 <cm_setup_context>

0000000000051694 <cm_el1_sysregs_context_restore>:
   51694:	a9be7bfd 	stp	x29, x30, [sp, #-32]!
   51698:	910003fd 	mov	x29, sp
   5169c:	a90153f3 	stp	x19, x20, [sp, #16]
   516a0:	2a0003f3 	mov	w19, w0
   516a4:	97fffa77 	bl	50080 <cm_get_context>
   516a8:	91050000 	add	x0, x0, #0x140
   516ac:	9400319e 	bl	5dd24 <el1_sysregs_context_restore>
   516b0:	34000273 	cbz	w19, 516fc <cm_el1_sysregs_context_restore+0x68>
   516b4:	f0000073 	adrp	x19, 60000 <version_string+0x6c>
   516b8:	f0000074 	adrp	x20, 60000 <version_string+0x6c>
   516bc:	9112e273 	add	x19, x19, #0x4b8
   516c0:	9112e294 	add	x20, x20, #0x4b8
   516c4:	eb14027f 	cmp	x19, x20
   516c8:	54000142 	b.cs	516f0 <cm_el1_sysregs_context_restore+0x5c>  // b.hs, b.nlast
   516cc:	f8408661 	ldr	x1, [x19], #8
   516d0:	d2800000 	mov	x0, #0x0                   	// #0
   516d4:	d63f0020 	blr	x1
   516d8:	17fffffb 	b	516c4 <cm_el1_sysregs_context_restore+0x30>
   516dc:	f8408661 	ldr	x1, [x19], #8
   516e0:	d2800000 	mov	x0, #0x0                   	// #0
   516e4:	d63f0020 	blr	x1
   516e8:	eb14027f 	cmp	x19, x20
   516ec:	54ffff83 	b.cc	516dc <cm_el1_sysregs_context_restore+0x48>  // b.lo, b.ul, b.last
   516f0:	a94153f3 	ldp	x19, x20, [sp, #16]
   516f4:	a8c27bfd 	ldp	x29, x30, [sp], #32
   516f8:	d65f03c0 	ret
   516fc:	f0000073 	adrp	x19, 60000 <version_string+0x6c>
   51700:	f0000074 	adrp	x20, 60000 <version_string+0x6c>
   51704:	9112c273 	add	x19, x19, #0x4b0
   51708:	9112e294 	add	x20, x20, #0x4b8
   5170c:	17fffff7 	b	516e8 <cm_el1_sysregs_context_restore+0x54>

0000000000051710 <cm_set_next_eret_context>:
   51710:	a9bf7bfd 	stp	x29, x30, [sp, #-16]!
   51714:	910003fd 	mov	x29, sp
   51718:	97fffa5a 	bl	50080 <cm_get_context>
   5171c:	d50041bf 	msr	spsel, #0x1
   51720:	9100001f 	mov	sp, x0
   51724:	d50040bf 	msr	spsel, #0x0
   51728:	a8c17bfd 	ldp	x29, x30, [sp], #16
   5172c:	d65f03c0 	ret

0000000000051730 <cm_prepare_el3_exit>:
   51730:	a9be7bfd 	stp	x29, x30, [sp, #-32]!
   51734:	910003fd 	mov	x29, sp
   51738:	f9000bf3 	str	x19, [sp, #16]
   5173c:	2a0003f3 	mov	w19, w0
   51740:	97fffa50 	bl	50080 <cm_get_context>
   51744:	7100067f 	cmp	w19, #0x1
   51748:	540004e1 	b.ne	517e4 <cm_prepare_el3_exit+0xb4>  // b.any
   5174c:	f9408001 	ldr	x1, [x0, #256]
   51750:	92780022 	and	x2, x1, #0x100
   51754:	36400121 	tbz	w1, #8, 51778 <cm_prepare_el3_exit+0x48>
   51758:	f940a800 	ldr	x0, [x0, #336]
   5175c:	d2810601 	mov	x1, #0x830                 	// #2096
   51760:	f2a618a1 	movk	x1, #0x30c5, lsl #16
   51764:	92670000 	and	x0, x0, #0x2000000
   51768:	aa010000 	orr	x0, x0, x1
   5176c:	d51c1000 	msr	sctlr_el2, x0
   51770:	52800000 	mov	w0, #0x0                   	// #0
   51774:	1400001b 	b	517e0 <cm_prepare_el3_exit+0xb0>
   51778:	d5380400 	mrs	x0, id_aa64pfr0_el1
   5177c:	f2780c1f 	tst	x0, #0xf00
   51780:	54ffff80 	b.eq	51770 <cm_prepare_el3_exit+0x40>  // b.none
   51784:	f2760021 	ands	x1, x1, #0x400
   51788:	d2b00000 	mov	x0, #0x80000000            	// #2147483648
   5178c:	9a800021 	csel	x1, x1, x0, eq  // eq = none
   51790:	b2580421 	orr	x1, x1, #0x30000000000
   51794:	d51c1101 	msr	hcr_el2, x1
   51798:	d2867fe0 	mov	x0, #0x33ff                	// #13311
   5179c:	d51c1140 	msr	cptr_el2, x0
   517a0:	d2800060 	mov	x0, #0x3                   	// #3
   517a4:	d51ce100 	msr	cnthctl_el2, x0
   517a8:	d51ce062 	msr	cntvoff_el2, x2
   517ac:	d5380000 	mrs	x0, midr_el1
   517b0:	d51c0000 	msr	vpidr_el2, x0
   517b4:	d53800a0 	mrs	x0, mpidr_el1
   517b8:	d51c00a0 	msr	vmpidr_el2, x0
   517bc:	d51c2102 	msr	vttbr_el2, x2
   517c0:	d53b9c00 	mrs	x0, pmcr_el0
   517c4:	d34b3c00 	ubfx	x0, x0, #11, #5
   517c8:	d2a08041 	mov	x1, #0x4020000             	// #67239936
   517cc:	aa010000 	orr	x0, x0, x1
   517d0:	d51c1120 	msr	mdcr_el2, x0
   517d4:	d51c1162 	msr	hstr_el2, x2
   517d8:	d51ce222 	msr	cnthp_ctl_el2, x2
   517dc:	2a1303e0 	mov	w0, w19
   517e0:	94000017 	bl	5183c <spe_enable>
   517e4:	2a1303e0 	mov	w0, w19
   517e8:	97ffffab 	bl	51694 <cm_el1_sysregs_context_restore>
   517ec:	2a1303e0 	mov	w0, w19
   517f0:	f9400bf3 	ldr	x19, [sp, #16]
   517f4:	a8c27bfd 	ldp	x29, x30, [sp], #32
   517f8:	17ffffc6 	b	51710 <cm_set_next_eret_context>

00000000000517fc <spe_supported>:
   517fc:	d5380500 	mrs	x0, id_aa64dfr0_el1
   51800:	f2600c1f 	tst	x0, #0xf00000000
   51804:	1a9f07e0 	cset	w0, ne  // ne = any
   51808:	d65f03c0 	ret

000000000005180c <spe_drain_buffers_hook>:
   5180c:	a9bf7bfd 	stp	x29, x30, [sp, #-16]!
   51810:	910003fd 	mov	x29, sp
   51814:	97fffffa 	bl	517fc <spe_supported>
   51818:	72001c1f 	tst	w0, #0xff
   5181c:	540000c0 	b.eq	51834 <spe_drain_buffers_hook+0x28>  // b.none
   51820:	d503223f 	psb	csync
   51824:	d503379f 	dsb	nsh
   51828:	d2800000 	mov	x0, #0x0                   	// #0
   5182c:	a8c17bfd 	ldp	x29, x30, [sp], #16
   51830:	d65f03c0 	ret
   51834:	92800000 	mov	x0, #0xffffffffffffffff    	// #-1
   51838:	17fffffd 	b	5182c <spe_drain_buffers_hook+0x20>

000000000005183c <spe_enable>:
   5183c:	12001c01 	and	w1, w0, #0xff
   51840:	a9bf7bfd 	stp	x29, x30, [sp, #-16]!
   51844:	910003fd 	mov	x29, sp
   51848:	97ffffed 	bl	517fc <spe_supported>
   5184c:	72001c1f 	tst	w0, #0xff
   51850:	54000140 	b.eq	51878 <spe_enable+0x3c>  // b.none
   51854:	340000c1 	cbz	w1, 5186c <spe_enable+0x30>
   51858:	d53c1120 	mrs	x0, mdcr_el2
   5185c:	92407c00 	and	x0, x0, #0xffffffff
   51860:	9271f800 	and	x0, x0, #0xffffffffffffbfff
   51864:	b2740400 	orr	x0, x0, #0x3000
   51868:	d51c1120 	msr	mdcr_el2, x0
   5186c:	d53e1320 	mrs	x0, mdcr_el3
   51870:	b2740400 	orr	x0, x0, #0x3000
   51874:	d51e1320 	msr	mdcr_el3, x0
   51878:	a8c17bfd 	ldp	x29, x30, [sp], #16
   5187c:	d65f03c0 	ret

0000000000051880 <bakery_lock_get>:
   51880:	a9be7bfd 	stp	x29, x30, [sp, #-32]!
   51884:	910003fd 	mov	x29, sp
   51888:	f9000bf3 	str	x19, [sp, #16]
   5188c:	aa0003f3 	mov	x19, x0
   51890:	940031de 	bl	5e008 <plat_my_core_pos>
   51894:	d37f7c04 	ubfiz	x4, x0, #1, #32
   51898:	52800021 	mov	w1, #0x1                   	// #1
   5189c:	52800002 	mov	w2, #0x0                   	// #0
   518a0:	78246a61 	strh	w1, [x19, x4]
   518a4:	52800001 	mov	w1, #0x0                   	// #0
   518a8:	2a0203e3 	mov	w3, w2
   518ac:	11000442 	add	w2, w2, #0x1
   518b0:	78637a63 	ldrh	w3, [x19, x3, lsl #1]
   518b4:	d3413c63 	ubfx	x3, x3, #1, #15
   518b8:	6b03003f 	cmp	w1, w3
   518bc:	1a832021 	csel	w1, w1, w3, cs  // cs = hs, nlast
   518c0:	7100185f 	cmp	w2, #0x6
   518c4:	54ffff21 	b.ne	518a8 <bakery_lock_get+0x28>  // b.any
   518c8:	11000421 	add	w1, w1, #0x1
   518cc:	531f3822 	ubfiz	w2, w1, #1, #15
   518d0:	2a012001 	orr	w1, w0, w1, lsl #8
   518d4:	78246a62 	strh	w2, [x19, x4]
   518d8:	52800002 	mov	w2, #0x0                   	// #0
   518dc:	6b02001f 	cmp	w0, w2
   518e0:	54000220 	b.eq	51924 <bakery_lock_get+0xa4>  // b.none
   518e4:	d37f7c45 	ubfiz	x5, x2, #1, #32
   518e8:	78656a64 	ldrh	w4, [x19, x5]
   518ec:	8b050266 	add	x6, x19, x5
   518f0:	12003c83 	and	w3, w4, #0xffff
   518f4:	3707ffa4 	tbnz	w4, #0, 518e8 <bakery_lock_get+0x68>
   518f8:	53017c64 	lsr	w4, w3, #1
   518fc:	6b4307ff 	cmp	wzr, w3, lsr #1
   51900:	54000120 	b.eq	51924 <bakery_lock_get+0xa4>  // b.none
   51904:	2a042043 	orr	w3, w2, w4, lsl #8
   51908:	6b03003f 	cmp	w1, w3
   5190c:	540000c9 	b.ls	51924 <bakery_lock_get+0xa4>  // b.plast
   51910:	d503205f 	wfe
   51914:	794000c3 	ldrh	w3, [x6]
   51918:	d3413c63 	ubfx	x3, x3, #1, #15
   5191c:	6b03009f 	cmp	w4, w3
   51920:	54ffff80 	b.eq	51910 <bakery_lock_get+0x90>  // b.none
   51924:	11000442 	add	w2, w2, #0x1
   51928:	7100185f 	cmp	w2, #0x6
   5192c:	54fffd81 	b.ne	518dc <bakery_lock_get+0x5c>  // b.any
   51930:	d5033bbf 	dmb	ish
   51934:	f9400bf3 	ldr	x19, [sp, #16]
   51938:	a8c27bfd 	ldp	x29, x30, [sp], #32
   5193c:	d65f03c0 	ret

0000000000051940 <bakery_lock_release>:
   51940:	a9be7bfd 	stp	x29, x30, [sp, #-32]!
   51944:	910003fd 	mov	x29, sp
   51948:	f9000bf3 	str	x19, [sp, #16]
   5194c:	aa0003f3 	mov	x19, x0
   51950:	940031ae 	bl	5e008 <plat_my_core_pos>
   51954:	d5033bbf 	dmb	ish
   51958:	2a0003e1 	mov	w1, w0
   5195c:	78217a7f 	strh	wzr, [x19, x1, lsl #1]
   51960:	d5033f9f 	dsb	sy
   51964:	d503209f 	sev
   51968:	f9400bf3 	ldr	x19, [sp, #16]
   5196c:	a8c27bfd 	ldp	x29, x30, [sp], #32
   51970:	d65f03c0 	ret

0000000000051974 <psci_validate_power_state>:
   51974:	52bf9fc2 	mov	w2, #0xfcfe0000            	// #-50462720
   51978:	6a02001f 	tst	w0, w2
   5197c:	540000c1 	b.ne	51994 <psci_validate_power_state+0x20>  // b.any
   51980:	b00000a2 	adrp	x2, 66000 <psci_cpu_pd_nodes+0x20>
   51984:	f9402042 	ldr	x2, [x2, #64]
   51988:	f9402c42 	ldr	x2, [x2, #88]
   5198c:	aa0203f0 	mov	x16, x2
   51990:	d61f0200 	br	x16
   51994:	12800020 	mov	w0, #0xfffffffe            	// #-2
   51998:	d65f03c0 	ret

000000000005199c <psci_query_sys_suspend_pwrstate>:
   5199c:	b00000a1 	adrp	x1, 66000 <psci_cpu_pd_nodes+0x20>
   519a0:	f9402021 	ldr	x1, [x1, #64]
   519a4:	f9403421 	ldr	x1, [x1, #104]
   519a8:	aa0103f0 	mov	x16, x1
   519ac:	d61f0200 	br	x16

00000000000519b0 <psci_is_last_on_cpu>:
   519b0:	a9bd7bfd 	stp	x29, x30, [sp, #-48]!
   519b4:	910003fd 	mov	x29, sp
   519b8:	a90153f3 	stp	x19, x20, [sp, #16]
   519bc:	f00000b4 	adrp	x20, 68000 <dist_ctx+0x1e98>
   519c0:	91314294 	add	x20, x20, #0xc50
   519c4:	f90013f5 	str	x21, [sp, #32]
   519c8:	94003190 	bl	5e008 <plat_my_core_pos>
   519cc:	2a0003f5 	mov	w21, w0
   519d0:	52800013 	mov	w19, #0x0                   	// #0
   519d4:	b9400280 	ldr	w0, [x20]
   519d8:	6b13001f 	cmp	w0, w19
   519dc:	540000c8 	b.hi	519f4 <psci_is_last_on_cpu+0x44>  // b.pmore
   519e0:	52800020 	mov	w0, #0x1                   	// #1
   519e4:	a94153f3 	ldp	x19, x20, [sp, #16]
   519e8:	f94013f5 	ldr	x21, [sp, #32]
   519ec:	a8c37bfd 	ldp	x29, x30, [sp], #48
   519f0:	d65f03c0 	ret
   519f4:	6b15027f 	cmp	w19, w21
   519f8:	54000061 	b.ne	51a04 <psci_is_last_on_cpu+0x54>  // b.any
   519fc:	11000673 	add	w19, w19, #0x1
   51a00:	17fffff5 	b	519d4 <psci_is_last_on_cpu+0x24>
   51a04:	2a1303e0 	mov	w0, w19
   51a08:	9400313d 	bl	5defc <_cpu_data_by_index>
   51a0c:	b9401800 	ldr	w0, [x0, #24]
   51a10:	7100041f 	cmp	w0, #0x1
   51a14:	54ffff40 	b.eq	519fc <psci_is_last_on_cpu+0x4c>  // b.none
   51a18:	52800000 	mov	w0, #0x0                   	// #0
   51a1c:	17fffff2 	b	519e4 <psci_is_last_on_cpu+0x34>

0000000000051a20 <psci_init_req_local_pwr_states>:
   51a20:	f00000a0 	adrp	x0, 68000 <dist_ctx+0x1e98>
   51a24:	900000c1 	adrp	x1, 69000 <pmu_slpdata+0x40>
   51a28:	912f8021 	add	x1, x1, #0xbe0
   51a2c:	52800043 	mov	w3, #0x2                   	// #2
   51a30:	b94c5002 	ldr	w2, [x0, #3152]
   51a34:	d2800000 	mov	x0, #0x0                   	// #0
   51a38:	6b00005f 	cmp	w2, w0
   51a3c:	54000089 	b.ls	51a4c <psci_init_req_local_pwr_states+0x2c>  // b.plast
   51a40:	38216803 	strb	w3, [x0, x1]
   51a44:	91000400 	add	x0, x0, #0x1
   51a48:	17fffffc 	b	51a38 <psci_init_req_local_pwr_states+0x18>
   51a4c:	900000c1 	adrp	x1, 69000 <pmu_slpdata+0x40>
   51a50:	912f8021 	add	x1, x1, #0xbe0
   51a54:	d2800000 	mov	x0, #0x0                   	// #0
   51a58:	52800044 	mov	w4, #0x2                   	// #2
   51a5c:	6b00005f 	cmp	w2, w0
   51a60:	540000a9 	b.ls	51a74 <psci_init_req_local_pwr_states+0x54>  // b.plast
   51a64:	8b000023 	add	x3, x1, x0
   51a68:	91000400 	add	x0, x0, #0x1
   51a6c:	39001864 	strb	w4, [x3, #6]
   51a70:	17fffffb 	b	51a5c <psci_init_req_local_pwr_states+0x3c>
   51a74:	d65f03c0 	ret

0000000000051a78 <psci_get_target_local_pwr_states>:
   51a78:	a9be7bfd 	stp	x29, x30, [sp, #-32]!
   51a7c:	910003fd 	mov	x29, sp
   51a80:	a90153f3 	stp	x19, x20, [sp, #16]
   51a84:	2a0003f4 	mov	w20, w0
   51a88:	aa0103f3 	mov	x19, x1
   51a8c:	d53ed040 	mrs	x0, tpidr_el3
   51a90:	39408000 	ldrb	w0, [x0, #32]
   51a94:	39000020 	strb	w0, [x1]
   51a98:	9400315c 	bl	5e008 <plat_my_core_pos>
   51a9c:	d37c7c00 	ubfiz	x0, x0, #4, #32
   51aa0:	900000a1 	adrp	x1, 65000 <__STACKS_START__+0x2f80>
   51aa4:	913f8021 	add	x1, x1, #0xfe0
   51aa8:	8b000021 	add	x1, x1, x0
   51aac:	90000280 	adrp	x0, a1000 <psci_locks>
   51ab0:	91015000 	add	x0, x0, #0x54
   51ab4:	52800022 	mov	w2, #0x1                   	// #1
   51ab8:	b9400823 	ldr	w3, [x1, #8]
   51abc:	6b14005f 	cmp	w2, w20
   51ac0:	2a0203e1 	mov	w1, w2
   51ac4:	540000e9 	b.ls	51ae0 <psci_get_target_local_pwr_states+0x68>  // b.plast
   51ac8:	8b010273 	add	x19, x19, x1
   51acc:	7100085f 	cmp	w2, #0x2
   51ad0:	54000169 	b.ls	51afc <psci_get_target_local_pwr_states+0x84>  // b.plast
   51ad4:	a94153f3 	ldp	x19, x20, [sp, #16]
   51ad8:	a8c27bfd 	ldp	x29, x30, [sp], #32
   51adc:	d65f03c0 	ret
   51ae0:	d37c7c63 	ubfiz	x3, x3, #4, #32
   51ae4:	11000442 	add	w2, w2, #0x1
   51ae8:	8b030003 	add	x3, x0, x3
   51aec:	39403064 	ldrb	w4, [x3, #12]
   51af0:	38216a64 	strb	w4, [x19, x1]
   51af4:	b9400863 	ldr	w3, [x3, #8]
   51af8:	17fffff1 	b	51abc <psci_get_target_local_pwr_states+0x44>
   51afc:	11000442 	add	w2, w2, #0x1
   51b00:	3800167f 	strb	wzr, [x19], #1
   51b04:	17fffff2 	b	51acc <psci_get_target_local_pwr_states+0x54>

0000000000051b08 <psci_get_parent_pwr_domain_nodes>:
   51b08:	d37c7c03 	ubfiz	x3, x0, #4, #32
   51b0c:	900000a0 	adrp	x0, 65000 <__STACKS_START__+0x2f80>
   51b10:	913f8000 	add	x0, x0, #0xfe0
   51b14:	90000284 	adrp	x4, a1000 <psci_locks>
   51b18:	8b030000 	add	x0, x0, x3
   51b1c:	d1001042 	sub	x2, x2, #0x4
   51b20:	91015084 	add	x4, x4, #0x54
   51b24:	d2800003 	mov	x3, #0x0                   	// #0
   51b28:	b9400800 	ldr	w0, [x0, #8]
   51b2c:	91000463 	add	x3, x3, #0x1
   51b30:	6b03003f 	cmp	w1, w3
   51b34:	54000042 	b.cs	51b3c <psci_get_parent_pwr_domain_nodes+0x34>  // b.hs, b.nlast
   51b38:	d65f03c0 	ret
   51b3c:	b8237840 	str	w0, [x2, x3, lsl #2]
   51b40:	d37c7c00 	ubfiz	x0, x0, #4, #32
   51b44:	8b000080 	add	x0, x4, x0
   51b48:	b9400800 	ldr	w0, [x0, #8]
   51b4c:	17fffff8 	b	51b2c <psci_get_parent_pwr_domain_nodes+0x24>

0000000000051b50 <psci_set_pwr_domains_to_run>:
   51b50:	a9be7bfd 	stp	x29, x30, [sp, #-32]!
   51b54:	910003fd 	mov	x29, sp
   51b58:	f9000bf3 	str	x19, [sp, #16]
   51b5c:	2a0003f3 	mov	w19, w0
   51b60:	9400312a 	bl	5e008 <plat_my_core_pos>
   51b64:	d37c7c02 	ubfiz	x2, x0, #4, #32
   51b68:	900000a1 	adrp	x1, 65000 <__STACKS_START__+0x2f80>
   51b6c:	913f8021 	add	x1, x1, #0xfe0
   51b70:	8b020021 	add	x1, x1, x2
   51b74:	90000283 	adrp	x3, a1000 <psci_locks>
   51b78:	900000c4 	adrp	x4, 69000 <pmu_slpdata+0x40>
   51b7c:	2a0003e8 	mov	w8, w0
   51b80:	91015063 	add	x3, x3, #0x54
   51b84:	912f8084 	add	x4, x4, #0xbe0
   51b88:	b9400822 	ldr	w2, [x1, #8]
   51b8c:	f00000a1 	adrp	x1, 68000 <dist_ctx+0x1e98>
   51b90:	d28000c9 	mov	x9, #0x6                   	// #6
   51b94:	b94c5027 	ldr	w7, [x1, #3152]
   51b98:	d2800001 	mov	x1, #0x0                   	// #0
   51b9c:	11000426 	add	w6, w1, #0x1
   51ba0:	6b06027f 	cmp	w19, w6
   51ba4:	54000162 	b.cs	51bd0 <psci_set_pwr_domains_to_run+0x80>  // b.hs, b.nlast
   51ba8:	d53ed040 	mrs	x0, tpidr_el3
   51bac:	b900181f 	str	wzr, [x0, #24]
   51bb0:	d53ed040 	mrs	x0, tpidr_el3
   51bb4:	3900801f 	strb	wzr, [x0, #32]
   51bb8:	d53ed040 	mrs	x0, tpidr_el3
   51bbc:	f9400bf3 	ldr	x19, [sp, #16]
   51bc0:	91006000 	add	x0, x0, #0x18
   51bc4:	a8c27bfd 	ldp	x29, x30, [sp], #32
   51bc8:	d2800181 	mov	x1, #0xc                   	// #12
   51bcc:	14003137 	b	5e0a8 <flush_dcache_range>
   51bd0:	2a0203e5 	mov	w5, w2
   51bd4:	d37c7c42 	ubfiz	x2, x2, #4, #32
   51bd8:	8b020062 	add	x2, x3, x2
   51bdc:	7100043f 	cmp	w1, #0x1
   51be0:	3900305f 	strb	wzr, [x2, #12]
   51be4:	540000a8 	b.hi	51bf8 <psci_set_pwr_domains_to_run+0xa8>  // b.pmore
   51be8:	6b07001f 	cmp	w0, w7
   51bec:	54000062 	b.cs	51bf8 <psci_set_pwr_domains_to_run+0xa8>  // b.hs, b.nlast
   51bf0:	9b091021 	madd	x1, x1, x9, x4
   51bf4:	3828683f 	strb	wzr, [x1, x8]
   51bf8:	8b051061 	add	x1, x3, x5, lsl #4
   51bfc:	b9400822 	ldr	w2, [x1, #8]
   51c00:	2a0603e1 	mov	w1, w6
   51c04:	17ffffe6 	b	51b9c <psci_set_pwr_domains_to_run+0x4c>

0000000000051c08 <psci_do_state_coordination>:
   51c08:	a9ba7bfd 	stp	x29, x30, [sp, #-96]!
   51c0c:	910003fd 	mov	x29, sp
   51c10:	a90153f3 	stp	x19, x20, [sp, #16]
   51c14:	aa0103f3 	mov	x19, x1
   51c18:	a9025bf5 	stp	x21, x22, [sp, #32]
   51c1c:	900000b6 	adrp	x22, 65000 <__STACKS_START__+0x2f80>
   51c20:	913f82d6 	add	x22, x22, #0xfe0
   51c24:	a90363f7 	stp	x23, x24, [sp, #48]
   51c28:	2a0003f7 	mov	w23, w0
   51c2c:	a9046bf9 	stp	x25, x26, [sp, #64]
   51c30:	90000299 	adrp	x25, a1000 <psci_locks>
   51c34:	91015339 	add	x25, x25, #0x54
   51c38:	a90573fb 	stp	x27, x28, [sp, #80]
   51c3c:	940030f3 	bl	5e008 <plat_my_core_pos>
   51c40:	2a0003fa 	mov	w26, w0
   51c44:	f00000bb 	adrp	x27, 68000 <dist_ctx+0x1e98>
   51c48:	aa1a03f8 	mov	x24, x26
   51c4c:	d37c7f40 	ubfiz	x0, x26, #4, #32
   51c50:	9131437b 	add	x27, x27, #0xc50
   51c54:	8b0002c0 	add	x0, x22, x0
   51c58:	b9400815 	ldr	w21, [x0, #8]
   51c5c:	52800020 	mov	w0, #0x1                   	// #1
   51c60:	6b17001f 	cmp	w0, w23
   51c64:	11000414 	add	w20, w0, #0x1
   51c68:	54000468 	b.hi	51cf4 <psci_do_state_coordination+0xec>  // b.pmore
   51c6c:	51000401 	sub	w1, w0, #0x1
   51c70:	2a0003fc 	mov	w28, w0
   51c74:	7100043f 	cmp	w1, #0x1
   51c78:	2a1503f5 	mov	w21, w21
   51c7c:	540007c8 	b.hi	51d74 <psci_do_state_coordination+0x16c>  // b.pmore
   51c80:	b9400362 	ldr	w2, [x27]
   51c84:	6b02031f 	cmp	w24, w2
   51c88:	54000102 	b.cs	51ca8 <psci_do_state_coordination+0xa0>  // b.hs, b.nlast
   51c8c:	2a0103e2 	mov	w2, w1
   51c90:	900000c3 	adrp	x3, 69000 <pmu_slpdata+0x40>
   51c94:	912f8063 	add	x3, x3, #0xbe0
   51c98:	d28000c5 	mov	x5, #0x6                   	// #6
   51c9c:	387c6a64 	ldrb	w4, [x19, x28]
   51ca0:	9b050c42 	madd	x2, x2, x5, x3
   51ca4:	383a6844 	strb	w4, [x2, x26]
   51ca8:	7100043f 	cmp	w1, #0x1
   51cac:	54000648 	b.hi	51d74 <psci_do_state_coordination+0x16c>  // b.pmore
   51cb0:	d37ceea2 	lsl	x2, x21, #4
   51cb4:	528000c5 	mov	w5, #0x6                   	// #6
   51cb8:	b9400364 	ldr	w4, [x27]
   51cbc:	b8626b23 	ldr	w3, [x25, x2]
   51cc0:	2a0303e2 	mov	w2, w3
   51cc4:	6b04007f 	cmp	w3, w4
   51cc8:	9ba50822 	umaddl	x2, w1, w5, x2
   51ccc:	900000c1 	adrp	x1, 69000 <pmu_slpdata+0x40>
   51cd0:	912f8021 	add	x1, x1, #0xbe0
   51cd4:	8b020021 	add	x1, x1, x2
   51cd8:	9a9f3021 	csel	x1, x1, xzr, cc  // cc = lo, ul, last
   51cdc:	8b151335 	add	x21, x25, x21, lsl #4
   51ce0:	b94006a2 	ldr	w2, [x21, #4]
   51ce4:	94002e8e 	bl	5d71c <plat_get_target_pwr_state>
   51ce8:	383c6a60 	strb	w0, [x19, x28]
   51cec:	72001c1f 	tst	w0, #0xff
   51cf0:	54000461 	b.ne	51d7c <psci_do_state_coordination+0x174>  // b.any
   51cf4:	f00000a0 	adrp	x0, 68000 <dist_ctx+0x1e98>
   51cf8:	900000c2 	adrp	x2, 69000 <pmu_slpdata+0x40>
   51cfc:	2a1403e1 	mov	w1, w20
   51d00:	912f8042 	add	x2, x2, #0xbe0
   51d04:	b94c5004 	ldr	w4, [x0, #3152]
   51d08:	d28000c5 	mov	x5, #0x6                   	// #6
   51d0c:	6b17003f 	cmp	w1, w23
   51d10:	540003c9 	b.ls	51d88 <psci_do_state_coordination+0x180>  // b.plast
   51d14:	39400261 	ldrb	w1, [x19]
   51d18:	d53ed040 	mrs	x0, tpidr_el3
   51d1c:	39008001 	strb	w1, [x0, #32]
   51d20:	d53ed040 	mrs	x0, tpidr_el3
   51d24:	91008000 	add	x0, x0, #0x20
   51d28:	d2800021 	mov	x1, #0x1                   	// #1
   51d2c:	940030df 	bl	5e0a8 <flush_dcache_range>
   51d30:	940030b6 	bl	5e008 <plat_my_core_pos>
   51d34:	d37c7c00 	ubfiz	x0, x0, #4, #32
   51d38:	8b0002d6 	add	x22, x22, x0
   51d3c:	90000282 	adrp	x2, a1000 <psci_locks>
   51d40:	91015042 	add	x2, x2, #0x54
   51d44:	d2800001 	mov	x1, #0x0                   	// #0
   51d48:	b9400ac0 	ldr	w0, [x22, #8]
   51d4c:	91000421 	add	x1, x1, #0x1
   51d50:	6b0102ff 	cmp	w23, w1
   51d54:	54000322 	b.cs	51db8 <psci_do_state_coordination+0x1b0>  // b.hs, b.nlast
   51d58:	a94153f3 	ldp	x19, x20, [sp, #16]
   51d5c:	a9425bf5 	ldp	x21, x22, [sp, #32]
   51d60:	a94363f7 	ldp	x23, x24, [sp, #48]
   51d64:	a9446bf9 	ldp	x25, x26, [sp, #64]
   51d68:	a94573fb 	ldp	x27, x28, [sp, #80]
   51d6c:	a8c67bfd 	ldp	x29, x30, [sp], #96
   51d70:	d65f03c0 	ret
   51d74:	d2800001 	mov	x1, #0x0                   	// #0
   51d78:	17ffffd9 	b	51cdc <psci_do_state_coordination+0xd4>
   51d7c:	b9400ab5 	ldr	w21, [x21, #8]
   51d80:	2a1403e0 	mov	w0, w20
   51d84:	17ffffb7 	b	51c60 <psci_do_state_coordination+0x58>
   51d88:	51000420 	sub	w0, w1, #0x1
   51d8c:	2a0103e3 	mov	w3, w1
   51d90:	7100041f 	cmp	w0, #0x1
   51d94:	540000c8 	b.hi	51dac <psci_do_state_coordination+0x1a4>  // b.pmore
   51d98:	6b04031f 	cmp	w24, w4
   51d9c:	54000082 	b.cs	51dac <psci_do_state_coordination+0x1a4>  // b.hs, b.nlast
   51da0:	9b050800 	madd	x0, x0, x5, x2
   51da4:	38636a66 	ldrb	w6, [x19, x3]
   51da8:	383a6806 	strb	w6, [x0, x26]
   51dac:	11000421 	add	w1, w1, #0x1
   51db0:	38236a7f 	strb	wzr, [x19, x3]
   51db4:	17ffffd6 	b	51d0c <psci_do_state_coordination+0x104>
   51db8:	d37c7c00 	ubfiz	x0, x0, #4, #32
   51dbc:	38616a63 	ldrb	w3, [x19, x1]
   51dc0:	8b000040 	add	x0, x2, x0
   51dc4:	39003003 	strb	w3, [x0, #12]
   51dc8:	b9400800 	ldr	w0, [x0, #8]
   51dcc:	17ffffe0 	b	51d4c <psci_do_state_coordination+0x144>

0000000000051dd0 <psci_find_max_off_lvl>:
   51dd0:	aa0003e1 	mov	x1, x0
   51dd4:	39400800 	ldrb	w0, [x0, #2]
   51dd8:	7100081f 	cmp	w0, #0x2
   51ddc:	54000120 	b.eq	51e00 <psci_find_max_off_lvl+0x30>  // b.none
   51de0:	39400420 	ldrb	w0, [x1, #1]
   51de4:	7100081f 	cmp	w0, #0x2
   51de8:	540000e0 	b.eq	51e04 <psci_find_max_off_lvl+0x34>  // b.none
   51dec:	39400021 	ldrb	w1, [x1]
   51df0:	52800060 	mov	w0, #0x3                   	// #3
   51df4:	7100083f 	cmp	w1, #0x2
   51df8:	54000041 	b.ne	51e00 <psci_find_max_off_lvl+0x30>  // b.any
   51dfc:	52800000 	mov	w0, #0x0                   	// #0
   51e00:	d65f03c0 	ret
   51e04:	52800020 	mov	w0, #0x1                   	// #1
   51e08:	17fffffe 	b	51e00 <psci_find_max_off_lvl+0x30>

0000000000051e0c <psci_find_target_suspend_lvl>:
   51e0c:	39400801 	ldrb	w1, [x0, #2]
   51e10:	35000101 	cbnz	w1, 51e30 <psci_find_target_suspend_lvl+0x24>
   51e14:	39400401 	ldrb	w1, [x0, #1]
   51e18:	35000101 	cbnz	w1, 51e38 <psci_find_target_suspend_lvl+0x2c>
   51e1c:	39400001 	ldrb	w1, [x0]
   51e20:	52800060 	mov	w0, #0x3                   	// #3
   51e24:	34000041 	cbz	w1, 51e2c <psci_find_target_suspend_lvl+0x20>
   51e28:	52800000 	mov	w0, #0x0                   	// #0
   51e2c:	d65f03c0 	ret
   51e30:	52800040 	mov	w0, #0x2                   	// #2
   51e34:	17fffffe 	b	51e2c <psci_find_target_suspend_lvl+0x20>
   51e38:	52800020 	mov	w0, #0x1                   	// #1
   51e3c:	17fffffc 	b	51e2c <psci_find_target_suspend_lvl+0x20>

0000000000051e40 <psci_acquire_pwr_domain_locks>:
   51e40:	a9bc7bfd 	stp	x29, x30, [sp, #-64]!
   51e44:	910003fd 	mov	x29, sp
   51e48:	a90153f3 	stp	x19, x20, [sp, #16]
   51e4c:	2a0003f4 	mov	w20, w0
   51e50:	52800033 	mov	w19, #0x1                   	// #1
   51e54:	a9025bf5 	stp	x21, x22, [sp, #32]
   51e58:	90000296 	adrp	x22, a1000 <psci_locks>
   51e5c:	aa0103f5 	mov	x21, x1
   51e60:	910002d6 	add	x22, x22, #0x0
   51e64:	a90363f7 	stp	x23, x24, [sp, #48]
   51e68:	90000297 	adrp	x23, a1000 <psci_locks>
   51e6c:	910152f7 	add	x23, x23, #0x54
   51e70:	52800198 	mov	w24, #0xc                   	// #12
   51e74:	6b14027f 	cmp	w19, w20
   51e78:	540000c9 	b.ls	51e90 <psci_acquire_pwr_domain_locks+0x50>  // b.plast
   51e7c:	a94153f3 	ldp	x19, x20, [sp, #16]
   51e80:	a9425bf5 	ldp	x21, x22, [sp, #32]
   51e84:	a94363f7 	ldp	x23, x24, [sp, #48]
   51e88:	a8c47bfd 	ldp	x29, x30, [sp], #64
   51e8c:	d65f03c0 	ret
   51e90:	51000660 	sub	w0, w19, #0x1
   51e94:	11000673 	add	w19, w19, #0x1
   51e98:	b8607aa0 	ldr	w0, [x21, x0, lsl #2]
   51e9c:	8b0012e0 	add	x0, x23, x0, lsl #4
   51ea0:	79401c00 	ldrh	w0, [x0, #14]
   51ea4:	9bb85800 	umaddl	x0, w0, w24, x22
   51ea8:	97fffe76 	bl	51880 <bakery_lock_get>
   51eac:	17fffff2 	b	51e74 <psci_acquire_pwr_domain_locks+0x34>

0000000000051eb0 <psci_release_pwr_domain_locks>:
   51eb0:	a9bc7bfd 	stp	x29, x30, [sp, #-64]!
   51eb4:	910003fd 	mov	x29, sp
   51eb8:	a90153f3 	stp	x19, x20, [sp, #16]
   51ebc:	2a0003f3 	mov	w19, w0
   51ec0:	aa0103f4 	mov	x20, x1
   51ec4:	a9025bf5 	stp	x21, x22, [sp, #32]
   51ec8:	90000295 	adrp	x21, a1000 <psci_locks>
   51ecc:	90000296 	adrp	x22, a1000 <psci_locks>
   51ed0:	910002b5 	add	x21, x21, #0x0
   51ed4:	910152d6 	add	x22, x22, #0x54
   51ed8:	f9001bf7 	str	x23, [sp, #48]
   51edc:	52800197 	mov	w23, #0xc                   	// #12
   51ee0:	350000d3 	cbnz	w19, 51ef8 <psci_release_pwr_domain_locks+0x48>
   51ee4:	a94153f3 	ldp	x19, x20, [sp, #16]
   51ee8:	a9425bf5 	ldp	x21, x22, [sp, #32]
   51eec:	f9401bf7 	ldr	x23, [sp, #48]
   51ef0:	a8c47bfd 	ldp	x29, x30, [sp], #64
   51ef4:	d65f03c0 	ret
   51ef8:	51000673 	sub	w19, w19, #0x1
   51efc:	b8735a80 	ldr	w0, [x20, w19, uxtw #2]
   51f00:	8b0012c0 	add	x0, x22, x0, lsl #4
   51f04:	79401c00 	ldrh	w0, [x0, #14]
   51f08:	9bb75400 	umaddl	x0, w0, w23, x21
   51f0c:	97fffe8d 	bl	51940 <bakery_lock_release>
   51f10:	17fffff4 	b	51ee0 <psci_release_pwr_domain_locks+0x30>

0000000000051f14 <psci_validate_mpidr>:
   51f14:	a9bf7bfd 	stp	x29, x30, [sp, #-16]!
   51f18:	910003fd 	mov	x29, sp
   51f1c:	9400062f 	bl	537d8 <plat_core_pos_by_mpidr>
   51f20:	7100001f 	cmp	w0, #0x0
   51f24:	a8c17bfd 	ldp	x29, x30, [sp], #16
   51f28:	12800020 	mov	w0, #0xfffffffe            	// #-2
   51f2c:	1a9fb000 	csel	w0, w0, wzr, lt  // lt = tstop
   51f30:	d65f03c0 	ret

0000000000051f34 <psci_validate_entry_point>:
   51f34:	a9bb7bfd 	stp	x29, x30, [sp, #-80]!
   51f38:	910003fd 	mov	x29, sp
   51f3c:	a90153f3 	stp	x19, x20, [sp, #16]
   51f40:	aa0003f4 	mov	x20, x0
   51f44:	b00000a0 	adrp	x0, 66000 <psci_cpu_pd_nodes+0x20>
   51f48:	aa0103f3 	mov	x19, x1
   51f4c:	a9025bf5 	stp	x21, x22, [sp, #32]
   51f50:	f9402000 	ldr	x0, [x0, #64]
   51f54:	a90363f7 	stp	x23, x24, [sp, #48]
   51f58:	aa0203f8 	mov	x24, x2
   51f5c:	f9403001 	ldr	x1, [x0, #96]
   51f60:	f90023f9 	str	x25, [sp, #64]
   51f64:	b5000361 	cbnz	x1, 51fd0 <psci_validate_entry_point+0x9c>
   51f68:	d53e1117 	mrs	x23, scr_el3
   51f6c:	d5381000 	mrs	x0, sctlr_el1
   51f70:	927802f9 	and	x25, x23, #0x100
   51f74:	37400437 	tbnz	w23, #8, 51ff8 <psci_validate_entry_point+0xc4>
   51f78:	f2670001 	ands	x1, x0, #0x2000000
   51f7c:	53196415 	ubfx	w21, w0, #25, #1
   51f80:	52802021 	mov	w1, #0x101                 	// #257
   51f84:	d2800076 	mov	x22, #0x3                   	// #3
   51f88:	72a00b01 	movk	w1, #0x58, lsl #16
   51f8c:	9a9f16c0 	csinc	x0, x22, xzr, ne  // ne = any
   51f90:	29000281 	stp	w1, w0, [x20]
   51f94:	91006280 	add	x0, x20, #0x18
   51f98:	f9000693 	str	x19, [x20, #8]
   51f9c:	d2800801 	mov	x1, #0x40                  	// #64
   51fa0:	940030ab 	bl	5e24c <zeromem>
   51fa4:	f9000e98 	str	x24, [x20, #24]
   51fa8:	365002d7 	tbz	w23, #10, 52000 <psci_validate_entry_point+0xcc>
   51fac:	37000193 	tbnz	w19, #0, 51fdc <psci_validate_entry_point+0xa8>
   51fb0:	f100033f 	cmp	x25, #0x0
   51fb4:	52807821 	mov	w1, #0x3c1                 	// #961
   51fb8:	1a9f07e0 	cset	w0, ne  // ne = any
   51fbc:	11000400 	add	w0, w0, #0x1
   51fc0:	2a000820 	orr	w0, w1, w0, lsl #2
   51fc4:	b9001280 	str	w0, [x20, #16]
   51fc8:	52800000 	mov	w0, #0x0                   	// #0
   51fcc:	14000005 	b	51fe0 <psci_validate_entry_point+0xac>
   51fd0:	aa1303e0 	mov	x0, x19
   51fd4:	d63f0020 	blr	x1
   51fd8:	34fffc80 	cbz	w0, 51f68 <psci_validate_entry_point+0x34>
   51fdc:	12800100 	mov	w0, #0xfffffff7            	// #-9
   51fe0:	a94153f3 	ldp	x19, x20, [sp, #16]
   51fe4:	a9425bf5 	ldp	x21, x22, [sp, #32]
   51fe8:	a94363f7 	ldp	x23, x24, [sp, #48]
   51fec:	f94023f9 	ldr	x25, [sp, #64]
   51ff0:	a8c57bfd 	ldp	x29, x30, [sp], #80
   51ff4:	d65f03c0 	ret
   51ff8:	d53c1000 	mrs	x0, sctlr_el2
   51ffc:	17ffffdf 	b	51f78 <psci_validate_entry_point+0x44>
   52000:	52800140 	mov	w0, #0xa                   	// #10
   52004:	f100033f 	cmp	x25, #0x0
   52008:	1a8002d6 	csel	w22, w22, w0, eq  // eq = none
   5200c:	531b0273 	ubfiz	w19, w19, #5, #1
   52010:	52803a00 	mov	w0, #0x1d0                 	// #464
   52014:	2a160273 	orr	w19, w19, w22
   52018:	2a152400 	orr	w0, w0, w21, lsl #9
   5201c:	2a000273 	orr	w19, w19, w0
   52020:	b9001293 	str	w19, [x20, #16]
   52024:	17ffffe9 	b	51fc8 <psci_validate_entry_point+0x94>

0000000000052028 <psci_warmboot_entrypoint>:
   52028:	a9bd7bfd 	stp	x29, x30, [sp, #-48]!
   5202c:	910003fd 	mov	x29, sp
   52030:	a90153f3 	stp	x19, x20, [sp, #16]
   52034:	94002ff5 	bl	5e008 <plat_my_core_pos>
   52038:	790043ff 	strh	wzr, [sp, #32]
   5203c:	39008bff 	strb	wzr, [sp, #34]
   52040:	f90017ff 	str	xzr, [sp, #40]
   52044:	d53ed041 	mrs	x1, tpidr_el3
   52048:	b9401821 	ldr	w1, [x1, #24]
   5204c:	7100043f 	cmp	w1, #0x1
   52050:	540000c1 	b.ne	52068 <psci_warmboot_entrypoint+0x40>  // b.any
   52054:	d0000060 	adrp	x0, 60000 <version_string+0x6c>
   52058:	91021000 	add	x0, x0, #0x84
   5205c:	94002b8d 	bl	5ce90 <tf_log>
   52060:	94002bf3 	bl	5d02c <console_flush>
   52064:	94003005 	bl	5e078 <do_panic>
   52068:	2a0003f4 	mov	w20, w0
   5206c:	d53ed041 	mrs	x1, tpidr_el3
   52070:	b9401c33 	ldr	w19, [x1, #28]
   52074:	9100a3e2 	add	x2, sp, #0x28
   52078:	52800041 	mov	w1, #0x2                   	// #2
   5207c:	71000e7f 	cmp	w19, #0x3
   52080:	1a811273 	csel	w19, w19, w1, ne  // ne = any
   52084:	2a1303e1 	mov	w1, w19
   52088:	97fffea0 	bl	51b08 <psci_get_parent_pwr_domain_nodes>
   5208c:	9100a3e1 	add	x1, sp, #0x28
   52090:	2a1303e0 	mov	w0, w19
   52094:	97ffff6b 	bl	51e40 <psci_acquire_pwr_domain_locks>
   52098:	910083e1 	add	x1, sp, #0x20
   5209c:	2a1303e0 	mov	w0, w19
   520a0:	97fffe76 	bl	51a78 <psci_get_target_local_pwr_states>
   520a4:	d53ed040 	mrs	x0, tpidr_el3
   520a8:	b9401800 	ldr	w0, [x0, #24]
   520ac:	910083e1 	add	x1, sp, #0x20
   520b0:	7100081f 	cmp	w0, #0x2
   520b4:	2a1403e0 	mov	w0, w20
   520b8:	54000141 	b.ne	520e0 <psci_warmboot_entrypoint+0xb8>  // b.any
   520bc:	94000212 	bl	52904 <psci_cpu_on_finish>
   520c0:	2a1303e0 	mov	w0, w19
   520c4:	97fffea3 	bl	51b50 <psci_set_pwr_domains_to_run>
   520c8:	9100a3e1 	add	x1, sp, #0x28
   520cc:	2a1303e0 	mov	w0, w19
   520d0:	97ffff78 	bl	51eb0 <psci_release_pwr_domain_locks>
   520d4:	a94153f3 	ldp	x19, x20, [sp, #16]
   520d8:	a8c37bfd 	ldp	x29, x30, [sp], #48
   520dc:	d65f03c0 	ret
   520e0:	94000385 	bl	52ef4 <psci_cpu_suspend_finish>
   520e4:	17fffff7 	b	520c0 <psci_warmboot_entrypoint+0x98>

00000000000520e8 <psci_spd_migrate_info>:
   520e8:	900000a1 	adrp	x1, 66000 <psci_cpu_pd_nodes+0x20>
   520ec:	f9402421 	ldr	x1, [x1, #72]
   520f0:	b40000a1 	cbz	x1, 52104 <psci_spd_migrate_info+0x1c>
   520f4:	f9401821 	ldr	x1, [x1, #48]
   520f8:	b4000061 	cbz	x1, 52104 <psci_spd_migrate_info+0x1c>
   520fc:	aa0103f0 	mov	x16, x1
   52100:	d61f0200 	br	x16
   52104:	12800000 	mov	w0, #0xffffffff            	// #-1
   52108:	d65f03c0 	ret

000000000005210c <psci_print_power_domain_map>:
   5210c:	d65f03c0 	ret

0000000000052110 <psci_do_pwrdown_sequence>:
   52110:	14002f8b 	b	5df3c <psci_do_pwrdown_cache_maintenance>

0000000000052114 <psci_cpu_on>:
   52114:	a9b77bfd 	stp	x29, x30, [sp, #-144]!
   52118:	910003fd 	mov	x29, sp
   5211c:	a90153f3 	stp	x19, x20, [sp, #16]
   52120:	aa0003f3 	mov	x19, x0
   52124:	aa0103f4 	mov	x20, x1
   52128:	f90013f5 	str	x21, [sp, #32]
   5212c:	aa0203f5 	mov	x21, x2
   52130:	97ffff79 	bl	51f14 <psci_validate_mpidr>
   52134:	350001a0 	cbnz	w0, 52168 <psci_cpu_on+0x54>
   52138:	aa1503e2 	mov	x2, x21
   5213c:	aa1403e1 	mov	x1, x20
   52140:	9100e3e0 	add	x0, sp, #0x38
   52144:	97ffff7c 	bl	51f34 <psci_validate_entry_point>
   52148:	35000080 	cbnz	w0, 52158 <psci_cpu_on+0x44>
   5214c:	9100e3e1 	add	x1, sp, #0x38
   52150:	aa1303e0 	mov	x0, x19
   52154:	94000194 	bl	527a4 <psci_cpu_on_start>
   52158:	a94153f3 	ldp	x19, x20, [sp, #16]
   5215c:	f94013f5 	ldr	x21, [sp, #32]
   52160:	a8c97bfd 	ldp	x29, x30, [sp], #144
   52164:	d65f03c0 	ret
   52168:	12800020 	mov	w0, #0xfffffffe            	// #-2
   5216c:	17fffffb 	b	52158 <psci_cpu_on+0x44>

0000000000052170 <psci_cpu_suspend>:
   52170:	a9b67bfd 	stp	x29, x30, [sp, #-160]!
   52174:	910003fd 	mov	x29, sp
   52178:	a90153f3 	stp	x19, x20, [sp, #16]
   5217c:	2a0003f3 	mov	w19, w0
   52180:	a9025bf5 	stp	x21, x22, [sp, #32]
   52184:	aa0103f6 	mov	x22, x1
   52188:	910103e1 	add	x1, sp, #0x40
   5218c:	f9001bf7 	str	x23, [sp, #48]
   52190:	aa0203f7 	mov	x23, x2
   52194:	790083ff 	strh	wzr, [sp, #64]
   52198:	39010bff 	strb	wzr, [sp, #66]
   5219c:	97fffdf6 	bl	51974 <psci_validate_power_state>
   521a0:	2a0003f4 	mov	w20, w0
   521a4:	35000300 	cbnz	w0, 52204 <psci_cpu_suspend+0x94>
   521a8:	910103e0 	add	x0, sp, #0x40
   521ac:	d3504273 	ubfx	x19, x19, #16, #1
   521b0:	97ffff17 	bl	51e0c <psci_find_target_suspend_lvl>
   521b4:	2a0003f5 	mov	w21, w0
   521b8:	71000c1f 	cmp	w0, #0x3
   521bc:	540000c1 	b.ne	521d4 <psci_cpu_suspend+0x64>  // b.any
   521c0:	d0000060 	adrp	x0, 60000 <version_string+0x6c>
   521c4:	91029800 	add	x0, x0, #0xa6
   521c8:	94002b32 	bl	5ce90 <tf_log>
   521cc:	94002b98 	bl	5d02c <console_flush>
   521d0:	94002faa 	bl	5e078 <do_panic>
   521d4:	2a000260 	orr	w0, w19, w0
   521d8:	35000220 	cbnz	w0, 5221c <psci_cpu_suspend+0xac>
   521dc:	900000a0 	adrp	x0, 66000 <psci_cpu_pd_nodes+0x20>
   521e0:	f9402000 	ldr	x0, [x0, #64]
   521e4:	f9400001 	ldr	x1, [x0]
   521e8:	b4000361 	cbz	x1, 52254 <psci_cpu_suspend+0xe4>
   521ec:	394103e0 	ldrb	w0, [sp, #64]
   521f0:	d53ed042 	mrs	x2, tpidr_el3
   521f4:	39008040 	strb	w0, [x2, #32]
   521f8:	d63f0020 	blr	x1
   521fc:	d53ed040 	mrs	x0, tpidr_el3
   52200:	3900801f 	strb	wzr, [x0, #32]
   52204:	2a1403e0 	mov	w0, w20
   52208:	a94153f3 	ldp	x19, x20, [sp, #16]
   5220c:	a9425bf5 	ldp	x21, x22, [sp, #32]
   52210:	f9401bf7 	ldr	x23, [sp, #48]
   52214:	a8ca7bfd 	ldp	x29, x30, [sp], #160
   52218:	d65f03c0 	ret
   5221c:	350000f3 	cbnz	w19, 52238 <psci_cpu_suspend+0xc8>
   52220:	2a1303e3 	mov	w3, w19
   52224:	910103e2 	add	x2, sp, #0x40
   52228:	2a1503e1 	mov	w1, w21
   5222c:	910123e0 	add	x0, sp, #0x48
   52230:	940002c5 	bl	52d44 <psci_cpu_suspend_start>
   52234:	17fffff4 	b	52204 <psci_cpu_suspend+0x94>
   52238:	aa1703e2 	mov	x2, x23
   5223c:	aa1603e1 	mov	x1, x22
   52240:	910123e0 	add	x0, sp, #0x48
   52244:	97ffff3c 	bl	51f34 <psci_validate_entry_point>
   52248:	34fffec0 	cbz	w0, 52220 <psci_cpu_suspend+0xb0>
   5224c:	2a0003f4 	mov	w20, w0
   52250:	17ffffed 	b	52204 <psci_cpu_suspend+0x94>
   52254:	12800034 	mov	w20, #0xfffffffe            	// #-2
   52258:	17ffffeb 	b	52204 <psci_cpu_suspend+0x94>

000000000005225c <psci_system_suspend>:
   5225c:	a9b87bfd 	stp	x29, x30, [sp, #-128]!
   52260:	910003fd 	mov	x29, sp
   52264:	a90153f3 	stp	x19, x20, [sp, #16]
   52268:	aa0003f3 	mov	x19, x0
   5226c:	aa0103f4 	mov	x20, x1
   52270:	97fffdd0 	bl	519b0 <psci_is_last_on_cpu>
   52274:	350000c0 	cbnz	w0, 5228c <psci_system_suspend+0x30>
   52278:	12800053 	mov	w19, #0xfffffffd            	// #-3
   5227c:	2a1303e0 	mov	w0, w19
   52280:	a94153f3 	ldp	x19, x20, [sp, #16]
   52284:	a8c87bfd 	ldp	x29, x30, [sp], #128
   52288:	d65f03c0 	ret
   5228c:	aa1303e1 	mov	x1, x19
   52290:	aa1403e2 	mov	x2, x20
   52294:	9100a3e0 	add	x0, sp, #0x28
   52298:	97ffff27 	bl	51f34 <psci_validate_entry_point>
   5229c:	2a0003f3 	mov	w19, w0
   522a0:	35fffee0 	cbnz	w0, 5227c <psci_system_suspend+0x20>
   522a4:	910083e0 	add	x0, sp, #0x20
   522a8:	97fffdbd 	bl	5199c <psci_query_sys_suspend_pwrstate>
   522ac:	910083e0 	add	x0, sp, #0x20
   522b0:	97fffed7 	bl	51e0c <psci_find_target_suspend_lvl>
   522b4:	7100041f 	cmp	w0, #0x1
   522b8:	54fffe09 	b.ls	52278 <psci_system_suspend+0x1c>  // b.plast
   522bc:	910083e2 	add	x2, sp, #0x20
   522c0:	9100a3e0 	add	x0, sp, #0x28
   522c4:	52800023 	mov	w3, #0x1                   	// #1
   522c8:	52800041 	mov	w1, #0x2                   	// #2
   522cc:	9400029e 	bl	52d44 <psci_cpu_suspend_start>
   522d0:	17ffffeb 	b	5227c <psci_system_suspend+0x20>

00000000000522d4 <psci_cpu_off>:
   522d4:	52800040 	mov	w0, #0x2                   	// #2
   522d8:	140000f2 	b	526a0 <psci_do_cpu_off>

00000000000522dc <psci_affinity_info>:
   522dc:	340000e1 	cbz	w1, 522f8 <psci_affinity_info+0x1c>
   522e0:	12800020 	mov	w0, #0xfffffffe            	// #-2
   522e4:	d65f03c0 	ret
   522e8:	12800020 	mov	w0, #0xfffffffe            	// #-2
   522ec:	f9400bf3 	ldr	x19, [sp, #16]
   522f0:	a8c27bfd 	ldp	x29, x30, [sp], #32
   522f4:	d65f03c0 	ret
   522f8:	a9be7bfd 	stp	x29, x30, [sp, #-32]!
   522fc:	910003fd 	mov	x29, sp
   52300:	f9000bf3 	str	x19, [sp, #16]
   52304:	94000535 	bl	537d8 <plat_core_pos_by_mpidr>
   52308:	2a0003f3 	mov	w19, w0
   5230c:	3100041f 	cmn	w0, #0x1
   52310:	54fffec0 	b.eq	522e8 <psci_affinity_info+0xc>  // b.none
   52314:	94002efa 	bl	5defc <_cpu_data_by_index>
   52318:	91006000 	add	x0, x0, #0x18
   5231c:	d2800081 	mov	x1, #0x4                   	// #4
   52320:	94002f62 	bl	5e0a8 <flush_dcache_range>
   52324:	2a1303e0 	mov	w0, w19
   52328:	94002ef5 	bl	5defc <_cpu_data_by_index>
   5232c:	b9401800 	ldr	w0, [x0, #24]
   52330:	17ffffef 	b	522ec <psci_affinity_info+0x10>

0000000000052334 <psci_migrate>:
   52334:	a9bd7bfd 	stp	x29, x30, [sp, #-48]!
   52338:	910003fd 	mov	x29, sp
   5233c:	f9000bf3 	str	x19, [sp, #16]
   52340:	aa0003f3 	mov	x19, x0
   52344:	9100a3e0 	add	x0, sp, #0x28
   52348:	97ffff68 	bl	520e8 <psci_spd_migrate_info>
   5234c:	340000e0 	cbz	w0, 52368 <psci_migrate+0x34>
   52350:	7100041f 	cmp	w0, #0x1
   52354:	12800040 	mov	w0, #0xfffffffd            	// #-3
   52358:	5a9f0000 	csinv	w0, w0, wzr, eq  // eq = none
   5235c:	f9400bf3 	ldr	x19, [sp, #16]
   52360:	a8c37bfd 	ldp	x29, x30, [sp], #48
   52364:	d65f03c0 	ret
   52368:	d53800a0 	mrs	x0, mpidr_el1
   5236c:	f94017e1 	ldr	x1, [sp, #40]
   52370:	eb00003f 	cmp	x1, x0
   52374:	54000161 	b.ne	523a0 <psci_migrate+0x6c>  // b.any
   52378:	aa1303e0 	mov	x0, x19
   5237c:	97fffee6 	bl	51f14 <psci_validate_mpidr>
   52380:	35000140 	cbnz	w0, 523a8 <psci_migrate+0x74>
   52384:	d53800a0 	mrs	x0, mpidr_el1
   52388:	900000a1 	adrp	x1, 66000 <psci_cpu_pd_nodes+0x20>
   5238c:	f9402421 	ldr	x1, [x1, #72]
   52390:	f9401422 	ldr	x2, [x1, #40]
   52394:	aa1303e1 	mov	x1, x19
   52398:	d63f0040 	blr	x2
   5239c:	17fffff0 	b	5235c <psci_migrate+0x28>
   523a0:	128000c0 	mov	w0, #0xfffffff9            	// #-7
   523a4:	17ffffee 	b	5235c <psci_migrate+0x28>
   523a8:	12800020 	mov	w0, #0xfffffffe            	// #-2
   523ac:	17ffffec 	b	5235c <psci_migrate+0x28>

00000000000523b0 <psci_migrate_info_type>:
   523b0:	a9be7bfd 	stp	x29, x30, [sp, #-32]!
   523b4:	910003fd 	mov	x29, sp
   523b8:	910063e0 	add	x0, sp, #0x18
   523bc:	97ffff4b 	bl	520e8 <psci_spd_migrate_info>
   523c0:	a8c27bfd 	ldp	x29, x30, [sp], #32
   523c4:	d65f03c0 	ret

00000000000523c8 <psci_migrate_info_up_cpu>:
   523c8:	a9be7bfd 	stp	x29, x30, [sp, #-32]!
   523cc:	910003fd 	mov	x29, sp
   523d0:	910063e0 	add	x0, sp, #0x18
   523d4:	97ffff45 	bl	520e8 <psci_spd_migrate_info>
   523d8:	f9400fe1 	ldr	x1, [sp, #24]
   523dc:	7100041f 	cmp	w0, #0x1
   523e0:	a8c27bfd 	ldp	x29, x30, [sp], #32
   523e4:	92800020 	mov	x0, #0xfffffffffffffffe    	// #-2
   523e8:	9a809020 	csel	x0, x1, x0, ls  // ls = plast
   523ec:	d65f03c0 	ret

00000000000523f0 <psci_node_hw_state>:
   523f0:	a9be7bfd 	stp	x29, x30, [sp, #-32]!
   523f4:	910003fd 	mov	x29, sp
   523f8:	a90153f3 	stp	x19, x20, [sp, #16]
   523fc:	aa0003f4 	mov	x20, x0
   52400:	2a0103f3 	mov	w19, w1
   52404:	97fffec4 	bl	51f14 <psci_validate_mpidr>
   52408:	35000180 	cbnz	w0, 52438 <psci_node_hw_state+0x48>
   5240c:	71000a7f 	cmp	w19, #0x2
   52410:	54000148 	b.hi	52438 <psci_node_hw_state+0x48>  // b.pmore
   52414:	900000a0 	adrp	x0, 66000 <psci_cpu_pd_nodes+0x20>
   52418:	2a1303e1 	mov	w1, w19
   5241c:	f9402000 	ldr	x0, [x0, #64]
   52420:	f9404002 	ldr	x2, [x0, #128]
   52424:	aa1403e0 	mov	x0, x20
   52428:	a94153f3 	ldp	x19, x20, [sp, #16]
   5242c:	aa0203f0 	mov	x16, x2
   52430:	a8c27bfd 	ldp	x29, x30, [sp], #32
   52434:	d61f0200 	br	x16
   52438:	12800020 	mov	w0, #0xfffffffe            	// #-2
   5243c:	a94153f3 	ldp	x19, x20, [sp, #16]
   52440:	a8c27bfd 	ldp	x29, x30, [sp], #32
   52444:	d65f03c0 	ret

0000000000052448 <psci_features>:
   52448:	d00000a1 	adrp	x1, 68000 <dist_ctx+0x1e98>
   5244c:	52b00002 	mov	w2, #0x80000000            	// #-2147483648
   52450:	6b02001f 	cmp	w0, w2
   52454:	b94c5421 	ldr	w1, [x1, #3156]
   52458:	54000240 	b.eq	524a0 <psci_features+0x58>  // b.none
   5245c:	36f00080 	tbz	w0, #30, 5246c <psci_features+0x24>
   52460:	528c1742 	mov	w2, #0x60ba                	// #24762
   52464:	72a002e2 	movk	w2, #0x17, lsl #16
   52468:	0a020021 	and	w1, w1, w2
   5246c:	d3587402 	ubfx	x2, x0, #24, #6
   52470:	7100105f 	cmp	w2, #0x4
   52474:	540001a1 	b.ne	524a8 <psci_features+0x60>  // b.any
   52478:	d3505c04 	ubfx	x4, x0, #16, #8
   5247c:	531f7c02 	lsr	w2, w0, #31
   52480:	36f80140 	tbz	w0, #31, 524a8 <psci_features+0x60>
   52484:	121b2803 	and	w3, w0, #0xffe0
   52488:	2a040063 	orr	w3, w3, w4
   5248c:	350000e3 	cbnz	w3, 524a8 <psci_features+0x60>
   52490:	1ac02040 	lsl	w0, w2, w0
   52494:	6a01001f 	tst	w0, w1
   52498:	5a9f13e0 	csetm	w0, eq  // eq = none
   5249c:	d65f03c0 	ret
   524a0:	52800000 	mov	w0, #0x0                   	// #0
   524a4:	17fffffe 	b	5249c <psci_features+0x54>
   524a8:	12800000 	mov	w0, #0xffffffff            	// #-1
   524ac:	17fffffc 	b	5249c <psci_features+0x54>

00000000000524b0 <psci_smc_handler>:
   524b0:	360009e7 	tbz	w7, #0, 525ec <psci_smc_handler+0x13c>
   524b4:	d00000a5 	adrp	x5, 68000 <dist_ctx+0x1e98>
   524b8:	2a0003e4 	mov	w4, w0
   524bc:	aa0103e0 	mov	x0, x1
   524c0:	aa0203e1 	mov	x1, x2
   524c4:	b94c54a5 	ldr	w5, [x5, #3156]
   524c8:	aa0303e2 	mov	x2, x3
   524cc:	52800023 	mov	w3, #0x1                   	// #1
   524d0:	1ac42063 	lsl	w3, w3, w4
   524d4:	6a05007f 	tst	w3, w5
   524d8:	540008a0 	b.eq	525ec <psci_smc_handler+0x13c>  // b.none
   524dc:	a9bf7bfd 	stp	x29, x30, [sp, #-16]!
   524e0:	910003fd 	mov	x29, sp
   524e4:	37f00704 	tbnz	w4, #30, 525c4 <psci_smc_handler+0x114>
   524e8:	52af8003 	mov	w3, #0x7c000000            	// #2080374784
   524ec:	0b030084 	add	w4, w4, w3
   524f0:	7100509f 	cmp	w4, #0x14
   524f4:	54000808 	b.hi	525f4 <psci_smc_handler+0x144>  // b.pmore
   524f8:	b0000063 	adrp	x3, 5f000 <fdt_ro_probe_+0x20>
   524fc:	9130a063 	add	x3, x3, #0xc28
   52500:	38644863 	ldrb	w3, [x3, w4, uxtw]
   52504:	10000064 	adr	x4, 52510 <psci_smc_handler+0x60>
   52508:	8b238883 	add	x3, x4, w3, sxtb #2
   5250c:	d61f0060 	br	x3
   52510:	320083e0 	mov	w0, #0x10001               	// #65537
   52514:	a8c17bfd 	ldp	x29, x30, [sp], #16
   52518:	d65f03c0 	ret
   5251c:	97ffff6e 	bl	522d4 <psci_cpu_off>
   52520:	93407c00 	sxtw	x0, w0
   52524:	17fffffc 	b	52514 <psci_smc_handler+0x64>
   52528:	2a0203e2 	mov	w2, w2
   5252c:	2a0103e1 	mov	w1, w1
   52530:	97ffff10 	bl	52170 <psci_cpu_suspend>
   52534:	17fffffb 	b	52520 <psci_smc_handler+0x70>
   52538:	2a0203e2 	mov	w2, w2
   5253c:	2a0103e1 	mov	w1, w1
   52540:	2a0003e0 	mov	w0, w0
   52544:	97fffef4 	bl	52114 <psci_cpu_on>
   52548:	17fffff6 	b	52520 <psci_smc_handler+0x70>
   5254c:	2a0003e0 	mov	w0, w0
   52550:	97ffff63 	bl	522dc <psci_affinity_info>
   52554:	17fffff3 	b	52520 <psci_smc_handler+0x70>
   52558:	2a0003e0 	mov	w0, w0
   5255c:	97ffff76 	bl	52334 <psci_migrate>
   52560:	17fffff0 	b	52520 <psci_smc_handler+0x70>
   52564:	97ffff93 	bl	523b0 <psci_migrate_info_type>
   52568:	17ffffee 	b	52520 <psci_smc_handler+0x70>
   5256c:	a8c17bfd 	ldp	x29, x30, [sp], #16
   52570:	17ffff96 	b	523c8 <psci_migrate_info_up_cpu>
   52574:	2a0003e0 	mov	w0, w0
   52578:	97ffff9e 	bl	523f0 <psci_node_hw_state>
   5257c:	17ffffe9 	b	52520 <psci_smc_handler+0x70>
   52580:	2a0103e1 	mov	w1, w1
   52584:	2a0003e0 	mov	w0, w0
   52588:	97ffff35 	bl	5225c <psci_system_suspend>
   5258c:	17ffffe5 	b	52520 <psci_smc_handler+0x70>
   52590:	94000282 	bl	52f98 <psci_system_off>
   52594:	9400028f 	bl	52fd0 <psci_system_reset>
   52598:	97ffffac 	bl	52448 <psci_features>
   5259c:	17ffffe1 	b	52520 <psci_smc_handler+0x70>
   525a0:	a8c17bfd 	ldp	x29, x30, [sp], #16
   525a4:	14000016 	b	525fc <psci_mem_protect>
   525a8:	2a0103e1 	mov	w1, w1
   525ac:	2a0003e0 	mov	w0, w0
   525b0:	a8c17bfd 	ldp	x29, x30, [sp], #16
   525b4:	14000029 	b	52658 <psci_mem_chk_range>
   525b8:	2a0103e1 	mov	w1, w1
   525bc:	a8c17bfd 	ldp	x29, x30, [sp], #16
   525c0:	14000292 	b	53008 <psci_system_reset2>
   525c4:	12b88003 	mov	w3, #0x3bffffff            	// #1006632959
   525c8:	0b030084 	add	w4, w4, w3
   525cc:	71004c9f 	cmp	w4, #0x13
   525d0:	54000128 	b.hi	525f4 <psci_smc_handler+0x144>  // b.pmore
   525d4:	b0000063 	adrp	x3, 5f000 <fdt_ro_probe_+0x20>
   525d8:	91310063 	add	x3, x3, #0xc40
   525dc:	38644863 	ldrb	w3, [x3, w4, uxtw]
   525e0:	10000064 	adr	x4, 525ec <psci_smc_handler+0x13c>
   525e4:	8b238883 	add	x3, x4, w3, sxtb #2
   525e8:	d61f0060 	br	x3
   525ec:	92800000 	mov	x0, #0xffffffffffffffff    	// #-1
   525f0:	d65f03c0 	ret
   525f4:	92800000 	mov	x0, #0xffffffffffffffff    	// #-1
   525f8:	17ffffc7 	b	52514 <psci_smc_handler+0x64>

00000000000525fc <psci_mem_protect>:
   525fc:	a9bd7bfd 	stp	x29, x30, [sp, #-48]!
   52600:	910003fd 	mov	x29, sp
   52604:	a90153f3 	stp	x19, x20, [sp, #16]
   52608:	900000b4 	adrp	x20, 66000 <psci_cpu_pd_nodes+0x20>
   5260c:	2a0003f3 	mov	w19, w0
   52610:	f9402280 	ldr	x0, [x20, #64]
   52614:	f9404801 	ldr	x1, [x0, #144]
   52618:	9100b3e0 	add	x0, sp, #0x2c
   5261c:	d63f0020 	blr	x1
   52620:	36f800a0 	tbz	w0, #31, 52634 <psci_mem_protect+0x38>
   52624:	92800000 	mov	x0, #0xffffffffffffffff    	// #-1
   52628:	a94153f3 	ldp	x19, x20, [sp, #16]
   5262c:	a8c37bfd 	ldp	x29, x30, [sp], #48
   52630:	d65f03c0 	ret
   52634:	f9402280 	ldr	x0, [x20, #64]
   52638:	f9404c01 	ldr	x1, [x0, #152]
   5263c:	2a1303e0 	mov	w0, w19
   52640:	d63f0020 	blr	x1
   52644:	37ffff00 	tbnz	w0, #31, 52624 <psci_mem_protect+0x28>
   52648:	b9402fe0 	ldr	w0, [sp, #44]
   5264c:	7100001f 	cmp	w0, #0x0
   52650:	9a9f07e0 	cset	x0, ne  // ne = any
   52654:	17fffff5 	b	52628 <psci_mem_protect+0x2c>

0000000000052658 <psci_mem_chk_range>:
   52658:	b50000c1 	cbnz	x1, 52670 <psci_mem_chk_range+0x18>
   5265c:	92800040 	mov	x0, #0xfffffffffffffffd    	// #-3
   52660:	d65f03c0 	ret
   52664:	92800040 	mov	x0, #0xfffffffffffffffd    	// #-3
   52668:	a8c17bfd 	ldp	x29, x30, [sp], #16
   5266c:	d65f03c0 	ret
   52670:	cb0103e2 	neg	x2, x1
   52674:	eb00005f 	cmp	x2, x0
   52678:	54ffff23 	b.cc	5265c <psci_mem_chk_range+0x4>  // b.lo, b.ul, b.last
   5267c:	a9bf7bfd 	stp	x29, x30, [sp, #-16]!
   52680:	900000a2 	adrp	x2, 66000 <psci_cpu_pd_nodes+0x20>
   52684:	910003fd 	mov	x29, sp
   52688:	f9402042 	ldr	x2, [x2, #64]
   5268c:	f9404442 	ldr	x2, [x2, #136]
   52690:	d63f0040 	blr	x2
   52694:	37fffe80 	tbnz	w0, #31, 52664 <psci_mem_chk_range+0xc>
   52698:	d2800000 	mov	x0, #0x0                   	// #0
   5269c:	17fffff3 	b	52668 <psci_mem_chk_range+0x10>

00000000000526a0 <psci_do_cpu_off>:
   526a0:	a9bd7bfd 	stp	x29, x30, [sp, #-48]!
   526a4:	910003fd 	mov	x29, sp
   526a8:	a90153f3 	stp	x19, x20, [sp, #16]
   526ac:	2a0003f4 	mov	w20, w0
   526b0:	94002e56 	bl	5e008 <plat_my_core_pos>
   526b4:	9100a3e2 	add	x2, sp, #0x28
   526b8:	52804041 	mov	w1, #0x202                 	// #514
   526bc:	790043e1 	strh	w1, [sp, #32]
   526c0:	52800041 	mov	w1, #0x2                   	// #2
   526c4:	39008be1 	strb	w1, [sp, #34]
   526c8:	2a1403e1 	mov	w1, w20
   526cc:	f90017ff 	str	xzr, [sp, #40]
   526d0:	97fffd0e 	bl	51b08 <psci_get_parent_pwr_domain_nodes>
   526d4:	2a1403e0 	mov	w0, w20
   526d8:	9100a3e1 	add	x1, sp, #0x28
   526dc:	97fffdd9 	bl	51e40 <psci_acquire_pwr_domain_locks>
   526e0:	900000a0 	adrp	x0, 66000 <psci_cpu_pd_nodes+0x20>
   526e4:	f9402400 	ldr	x0, [x0, #72]
   526e8:	b5000460 	cbnz	x0, 52774 <psci_do_cpu_off+0xd4>
   526ec:	910083e1 	add	x1, sp, #0x20
   526f0:	2a1403e0 	mov	w0, w20
   526f4:	97fffd45 	bl	51c08 <psci_do_state_coordination>
   526f8:	52800013 	mov	w19, #0x0                   	// #0
   526fc:	910083e0 	add	x0, sp, #0x20
   52700:	97fffdb4 	bl	51dd0 <psci_find_max_off_lvl>
   52704:	97fffe83 	bl	52110 <psci_do_pwrdown_sequence>
   52708:	900000a0 	adrp	x0, 66000 <psci_cpu_pd_nodes+0x20>
   5270c:	f9402000 	ldr	x0, [x0, #64]
   52710:	f9400801 	ldr	x1, [x0, #16]
   52714:	910083e0 	add	x0, sp, #0x20
   52718:	d63f0020 	blr	x1
   5271c:	9100a3e1 	add	x1, sp, #0x28
   52720:	2a1403e0 	mov	w0, w20
   52724:	97fffde3 	bl	51eb0 <psci_release_pwr_domain_locks>
   52728:	35000373 	cbnz	w19, 52794 <psci_do_cpu_off+0xf4>
   5272c:	d53ed040 	mrs	x0, tpidr_el3
   52730:	d2800081 	mov	x1, #0x4                   	// #4
   52734:	91006000 	add	x0, x0, #0x18
   52738:	94002e5c 	bl	5e0a8 <flush_dcache_range>
   5273c:	d53ed040 	mrs	x0, tpidr_el3
   52740:	52800021 	mov	w1, #0x1                   	// #1
   52744:	b9001801 	str	w1, [x0, #24]
   52748:	d5033b9f 	dsb	ish
   5274c:	d53ed040 	mrs	x0, tpidr_el3
   52750:	d2800081 	mov	x1, #0x4                   	// #4
   52754:	91006000 	add	x0, x0, #0x18
   52758:	94002e70 	bl	5e118 <inv_dcache_range>
   5275c:	900000a0 	adrp	x0, 66000 <psci_cpu_pd_nodes+0x20>
   52760:	f9402000 	ldr	x0, [x0, #64]
   52764:	f9402001 	ldr	x1, [x0, #64]
   52768:	b4000141 	cbz	x1, 52790 <psci_do_cpu_off+0xf0>
   5276c:	910083e0 	add	x0, sp, #0x20
   52770:	d63f0020 	blr	x1
   52774:	f9400401 	ldr	x1, [x0, #8]
   52778:	b4fffba1 	cbz	x1, 526ec <psci_do_cpu_off+0x4c>
   5277c:	d2800000 	mov	x0, #0x0                   	// #0
   52780:	d63f0020 	blr	x1
   52784:	2a0003f3 	mov	w19, w0
   52788:	34fffb20 	cbz	w0, 526ec <psci_do_cpu_off+0x4c>
   5278c:	17ffffe4 	b	5271c <psci_do_cpu_off+0x7c>
   52790:	94002e07 	bl	5dfac <psci_power_down_wfi>
   52794:	2a1303e0 	mov	w0, w19
   52798:	a94153f3 	ldp	x19, x20, [sp, #16]
   5279c:	a8c37bfd 	ldp	x29, x30, [sp], #48
   527a0:	d65f03c0 	ret

00000000000527a4 <psci_cpu_on_start>:
   527a4:	a9bc7bfd 	stp	x29, x30, [sp, #-64]!
   527a8:	910003fd 	mov	x29, sp
   527ac:	a90153f3 	stp	x19, x20, [sp, #16]
   527b0:	aa0003f4 	mov	x20, x0
   527b4:	a9025bf5 	stp	x21, x22, [sp, #32]
   527b8:	aa0103f6 	mov	x22, x1
   527bc:	d2800195 	mov	x21, #0xc                   	// #12
   527c0:	f9001bf7 	str	x23, [sp, #48]
   527c4:	94000405 	bl	537d8 <plat_core_pos_by_mpidr>
   527c8:	f0000082 	adrp	x2, 65000 <__STACKS_START__+0x2f80>
   527cc:	913f8042 	add	x2, x2, #0xfe0
   527d0:	8b2052b5 	add	x21, x21, w0, uxtw #4
   527d4:	2a0003f3 	mov	w19, w0
   527d8:	8b0202b5 	add	x21, x21, x2
   527dc:	aa1503e0 	mov	x0, x21
   527e0:	94002dcd 	bl	5df14 <spin_lock>
   527e4:	2a1303e0 	mov	w0, w19
   527e8:	94002dc5 	bl	5defc <_cpu_data_by_index>
   527ec:	d2800081 	mov	x1, #0x4                   	// #4
   527f0:	91006000 	add	x0, x0, #0x18
   527f4:	94002e2d 	bl	5e0a8 <flush_dcache_range>
   527f8:	2a1303e0 	mov	w0, w19
   527fc:	94002dc0 	bl	5defc <_cpu_data_by_index>
   52800:	b9401800 	ldr	w0, [x0, #24]
   52804:	34000780 	cbz	w0, 528f4 <psci_cpu_on_start+0x150>
   52808:	7100081f 	cmp	w0, #0x2
   5280c:	54000780 	b.eq	528fc <psci_cpu_on_start+0x158>  // b.none
   52810:	900000a0 	adrp	x0, 66000 <psci_cpu_pd_nodes+0x20>
   52814:	f9402400 	ldr	x0, [x0, #72]
   52818:	b40000a0 	cbz	x0, 5282c <psci_cpu_on_start+0x88>
   5281c:	f9400001 	ldr	x1, [x0]
   52820:	b4000061 	cbz	x1, 5282c <psci_cpu_on_start+0x88>
   52824:	aa1403e0 	mov	x0, x20
   52828:	d63f0020 	blr	x1
   5282c:	52800057 	mov	w23, #0x2                   	// #2
   52830:	2a1303e0 	mov	w0, w19
   52834:	94002db2 	bl	5defc <_cpu_data_by_index>
   52838:	b9001817 	str	w23, [x0, #24]
   5283c:	2a1303e0 	mov	w0, w19
   52840:	94002daf 	bl	5defc <_cpu_data_by_index>
   52844:	91006000 	add	x0, x0, #0x18
   52848:	d2800081 	mov	x1, #0x4                   	// #4
   5284c:	94002e17 	bl	5e0a8 <flush_dcache_range>
   52850:	2a1303e0 	mov	w0, w19
   52854:	94002daa 	bl	5defc <_cpu_data_by_index>
   52858:	b9401800 	ldr	w0, [x0, #24]
   5285c:	6b17001f 	cmp	w0, w23
   52860:	54000120 	b.eq	52884 <psci_cpu_on_start+0xe0>  // b.none
   52864:	2a1303e0 	mov	w0, w19
   52868:	94002da5 	bl	5defc <_cpu_data_by_index>
   5286c:	b9001817 	str	w23, [x0, #24]
   52870:	2a1303e0 	mov	w0, w19
   52874:	94002da2 	bl	5defc <_cpu_data_by_index>
   52878:	91006000 	add	x0, x0, #0x18
   5287c:	d2800081 	mov	x1, #0x4                   	// #4
   52880:	94002e0a 	bl	5e0a8 <flush_dcache_range>
   52884:	900000a0 	adrp	x0, 66000 <psci_cpu_pd_nodes+0x20>
   52888:	f9402000 	ldr	x0, [x0, #64]
   5288c:	f9400401 	ldr	x1, [x0, #8]
   52890:	aa1403e0 	mov	x0, x20
   52894:	d63f0020 	blr	x1
   52898:	2a0003f4 	mov	w20, w0
   5289c:	35000180 	cbnz	w0, 528cc <psci_cpu_on_start+0x128>
   528a0:	aa1603e1 	mov	x1, x22
   528a4:	2a1303e0 	mov	w0, w19
   528a8:	97fffb65 	bl	5163c <cm_init_context_by_index>
   528ac:	aa1503e0 	mov	x0, x21
   528b0:	94002da1 	bl	5df34 <spin_unlock>
   528b4:	2a1403e0 	mov	w0, w20
   528b8:	a94153f3 	ldp	x19, x20, [sp, #16]
   528bc:	a9425bf5 	ldp	x21, x22, [sp, #32]
   528c0:	f9401bf7 	ldr	x23, [sp, #48]
   528c4:	a8c47bfd 	ldp	x29, x30, [sp], #64
   528c8:	d65f03c0 	ret
   528cc:	2a1303e0 	mov	w0, w19
   528d0:	94002d8b 	bl	5defc <_cpu_data_by_index>
   528d4:	52800021 	mov	w1, #0x1                   	// #1
   528d8:	b9001801 	str	w1, [x0, #24]
   528dc:	2a1303e0 	mov	w0, w19
   528e0:	94002d87 	bl	5defc <_cpu_data_by_index>
   528e4:	91006000 	add	x0, x0, #0x18
   528e8:	d2800081 	mov	x1, #0x4                   	// #4
   528ec:	94002def 	bl	5e0a8 <flush_dcache_range>
   528f0:	17ffffef 	b	528ac <psci_cpu_on_start+0x108>
   528f4:	12800074 	mov	w20, #0xfffffffc            	// #-4
   528f8:	17ffffed 	b	528ac <psci_cpu_on_start+0x108>
   528fc:	12800094 	mov	w20, #0xfffffffb            	// #-5
   52900:	17ffffeb 	b	528ac <psci_cpu_on_start+0x108>

0000000000052904 <psci_cpu_on_finish>:
   52904:	a9bd7bfd 	stp	x29, x30, [sp, #-48]!
   52908:	910003fd 	mov	x29, sp
   5290c:	a9025bf5 	stp	x21, x22, [sp, #32]
   52910:	900000b5 	adrp	x21, 66000 <psci_cpu_pd_nodes+0x20>
   52914:	a90153f3 	stp	x19, x20, [sp, #16]
   52918:	2a0003f3 	mov	w19, w0
   5291c:	aa0103f4 	mov	x20, x1
   52920:	f94022a0 	ldr	x0, [x21, #64]
   52924:	f9401401 	ldr	x1, [x0, #40]
   52928:	aa1403e0 	mov	x0, x20
   5292c:	d63f0020 	blr	x1
   52930:	94002d92 	bl	5df78 <psci_do_pwrup_cache_maintenance>
   52934:	f94022a0 	ldr	x0, [x21, #64]
   52938:	f9401801 	ldr	x1, [x0, #48]
   5293c:	b4000061 	cbz	x1, 52948 <psci_cpu_on_finish+0x44>
   52940:	aa1403e0 	mov	x0, x20
   52944:	d63f0020 	blr	x1
   52948:	d2800194 	mov	x20, #0xc                   	// #12
   5294c:	f0000095 	adrp	x21, 65000 <__STACKS_START__+0x2f80>
   52950:	8b335294 	add	x20, x20, w19, uxtw #4
   52954:	913f82b5 	add	x21, x21, #0xfe0
   52958:	8b150294 	add	x20, x20, x21
   5295c:	94000020 	bl	529dc <psci_arch_setup>
   52960:	aa1403e0 	mov	x0, x20
   52964:	94002d6c 	bl	5df14 <spin_lock>
   52968:	aa1403e0 	mov	x0, x20
   5296c:	94002d72 	bl	5df34 <spin_unlock>
   52970:	900000a0 	adrp	x0, 66000 <psci_cpu_pd_nodes+0x20>
   52974:	f9402400 	ldr	x0, [x0, #72]
   52978:	b40000a0 	cbz	x0, 5298c <psci_cpu_on_finish+0x88>
   5297c:	f9400c01 	ldr	x1, [x0, #24]
   52980:	b4000061 	cbz	x1, 5298c <psci_cpu_on_finish+0x88>
   52984:	d2800000 	mov	x0, #0x0                   	// #0
   52988:	d63f0020 	blr	x1
   5298c:	d0000074 	adrp	x20, 60000 <version_string+0x6c>
   52990:	d0000076 	adrp	x22, 60000 <version_string+0x6c>
   52994:	9112c294 	add	x20, x20, #0x4b0
   52998:	9112c2d6 	add	x22, x22, #0x4b0
   5299c:	eb16029f 	cmp	x20, x22
   529a0:	54000163 	b.cc	529cc <psci_cpu_on_finish+0xc8>  // b.lo, b.ul, b.last
   529a4:	d53800a1 	mrs	x1, mpidr_el1
   529a8:	d37c7e73 	ubfiz	x19, x19, #4, #32
   529ac:	92409c21 	and	x1, x1, #0xffffffffff
   529b0:	9260dc21 	and	x1, x1, #0xffffffff00ffffff
   529b4:	52800020 	mov	w0, #0x1                   	// #1
   529b8:	f8336aa1 	str	x1, [x21, x19]
   529bc:	a94153f3 	ldp	x19, x20, [sp, #16]
   529c0:	a9425bf5 	ldp	x21, x22, [sp, #32]
   529c4:	a8c37bfd 	ldp	x29, x30, [sp], #48
   529c8:	17fffb5a 	b	51730 <cm_prepare_el3_exit>
   529cc:	f8408681 	ldr	x1, [x20], #8
   529d0:	d2800000 	mov	x0, #0x0                   	// #0
   529d4:	d63f0020 	blr	x1
   529d8:	17fffff1 	b	5299c <psci_cpu_on_finish+0x98>

00000000000529dc <psci_arch_setup>:
   529dc:	a9bf7bfd 	stp	x29, x30, [sp, #-16]!
   529e0:	910003fd 	mov	x29, sp
   529e4:	940001df 	bl	53160 <plat_get_syscnt_freq2>
   529e8:	2a0003e0 	mov	w0, w0
   529ec:	d51be000 	msr	cntfrq_el0, x0
   529f0:	a8c17bfd 	ldp	x29, x30, [sp], #16
   529f4:	14002c9e 	b	5dc6c <init_cpu_ops>

00000000000529f8 <psci_setup>:
   529f8:	a9b87bfd 	stp	x29, x30, [sp, #-128]!
   529fc:	910003fd 	mov	x29, sp
   52a00:	a90153f3 	stp	x19, x20, [sp, #16]
   52a04:	f0000094 	adrp	x20, 65000 <__STACKS_START__+0x2f80>
   52a08:	91088294 	add	x20, x20, #0x220
   52a0c:	a9025bf5 	stp	x21, x22, [sp, #32]
   52a10:	aa0003f5 	mov	x21, x0
   52a14:	52800016 	mov	w22, #0x0                   	// #0
   52a18:	a90363f7 	stp	x23, x24, [sp, #48]
   52a1c:	52800017 	mov	w23, #0x0                   	// #0
   52a20:	52800058 	mov	w24, #0x2                   	// #2
   52a24:	a9046bf9 	stp	x25, x26, [sp, #64]
   52a28:	a90573fb 	stp	x27, x28, [sp, #80]
   52a2c:	97ffffec 	bl	529dc <psci_arch_setup>
   52a30:	94000367 	bl	537cc <plat_get_power_domain_tree_desc>
   52a34:	f000009c 	adrp	x28, 65000 <__STACKS_START__+0x2f80>
   52a38:	aa0003e3 	mov	x3, x0
   52a3c:	913f839c 	add	x28, x28, #0xfe0
   52a40:	52800001 	mov	w1, #0x0                   	// #0
   52a44:	5280003b 	mov	w27, #0x1                   	// #1
   52a48:	0b160364 	add	w4, w27, w22
   52a4c:	5280001b 	mov	w27, #0x0                   	// #0
   52a50:	1400000e 	b	52a88 <psci_setup+0x90>
   52a54:	3876487a 	ldrb	w26, [x3, w22, uxtw]
   52a58:	2a1703f9 	mov	w25, w23
   52a5c:	510006c5 	sub	w5, w22, #0x1
   52a60:	2b170341 	adds	w1, w26, w23
   52a64:	1a9f37e0 	cset	w0, cs  // cs = hs, nlast
   52a68:	6b01033f 	cmp	w25, w1
   52a6c:	540001e3 	b.cc	52aa8 <psci_setup+0xb0>  // b.lo, b.ul, b.last
   52a70:	7100001f 	cmp	w0, #0x0
   52a74:	0b1a037b 	add	w27, w27, w26
   52a78:	1a9f0341 	csel	w1, w26, wzr, eq  // eq = none
   52a7c:	110006d6 	add	w22, w22, #0x1
   52a80:	0b170021 	add	w1, w1, w23
   52a84:	2a0103f7 	mov	w23, w1
   52a88:	6b0402df 	cmp	w22, w4
   52a8c:	54fffe41 	b.ne	52a54 <psci_setup+0x5c>  // b.any
   52a90:	71000718 	subs	w24, w24, #0x1
   52a94:	540005c0 	b.eq	52b4c <psci_setup+0x154>  // b.none
   52a98:	3100071f 	cmn	w24, #0x1
   52a9c:	540005c0 	b.eq	52b54 <psci_setup+0x15c>  // b.none
   52aa0:	2a0403f6 	mov	w22, w4
   52aa4:	17ffffe9 	b	52a48 <psci_setup+0x50>
   52aa8:	12003f33 	and	w19, w25, #0xffff
   52aac:	340001b8 	cbz	w24, 52ae0 <psci_setup+0xe8>
   52ab0:	f0000261 	adrp	x1, a1000 <psci_locks>
   52ab4:	91015021 	add	x1, x1, #0x54
   52ab8:	8b33d033 	add	x19, x1, w19, sxtw #4
   52abc:	d37c3f20 	ubfiz	x0, x25, #4, #16
   52ac0:	8b010001 	add	x1, x0, x1
   52ac4:	52800040 	mov	w0, #0x2                   	// #2
   52ac8:	39003678 	strb	w24, [x19, #13]
   52acc:	79001c39 	strh	w25, [x1, #14]
   52ad0:	b9000a65 	str	w5, [x19, #8]
   52ad4:	39003260 	strb	w0, [x19, #12]
   52ad8:	11000739 	add	w25, w25, #0x1
   52adc:	17ffffe1 	b	52a60 <psci_setup+0x68>
   52ae0:	8b33d381 	add	x1, x28, w19, sxtw #4
   52ae4:	937c7e60 	sbfiz	x0, x19, #4, #32
   52ae8:	f90033e3 	str	x3, [sp, #96]
   52aec:	290d13e5 	stp	w5, w4, [sp, #104]
   52af0:	b9000825 	str	w5, [x1, #8]
   52af4:	92800001 	mov	x1, #0xffffffffffffffff    	// #-1
   52af8:	f8206b81 	str	x1, [x28, x0]
   52afc:	2a1303e0 	mov	w0, w19
   52b00:	94002cff 	bl	5defc <_cpu_data_by_index>
   52b04:	aa0003e1 	mov	x1, x0
   52b08:	91006000 	add	x0, x0, #0x18
   52b0c:	52800022 	mov	w2, #0x1                   	// #1
   52b10:	b9001822 	str	w2, [x1, #24]
   52b14:	52800061 	mov	w1, #0x3                   	// #3
   52b18:	b9000401 	str	w1, [x0, #4]
   52b1c:	52800041 	mov	w1, #0x2                   	// #2
   52b20:	39002001 	strb	w1, [x0, #8]
   52b24:	d2800181 	mov	x1, #0xc                   	// #12
   52b28:	94002d60 	bl	5e0a8 <flush_dcache_range>
   52b2c:	52804601 	mov	w1, #0x230                 	// #560
   52b30:	2a1303e0 	mov	w0, w19
   52b34:	52800022 	mov	w2, #0x1                   	// #1
   52b38:	9ba15261 	umaddl	x1, w19, w1, x20
   52b3c:	97fff55d 	bl	500b0 <cm_set_context_by_index>
   52b40:	294d13e5 	ldp	w5, w4, [sp, #104]
   52b44:	f94033e3 	ldr	x3, [sp, #96]
   52b48:	17ffffe4 	b	52ad8 <psci_setup+0xe0>
   52b4c:	52800017 	mov	w23, #0x0                   	// #0
   52b50:	17ffffd4 	b	52aa0 <psci_setup+0xa8>
   52b54:	d00000a0 	adrp	x0, 68000 <dist_ctx+0x1e98>
   52b58:	f0000274 	adrp	x20, a1000 <psci_locks>
   52b5c:	91314016 	add	x22, x0, #0xc50
   52b60:	91015294 	add	x20, x20, #0x54
   52b64:	b90c5001 	str	w1, [x0, #3152]
   52b68:	52800018 	mov	w24, #0x0                   	// #0
   52b6c:	52800017 	mov	w23, #0x0                   	// #0
   52b70:	52800013 	mov	w19, #0x0                   	// #0
   52b74:	b94002c0 	ldr	w0, [x22]
   52b78:	6b00027f 	cmp	w19, w0
   52b7c:	54000ac3 	b.cc	52cd4 <psci_setup+0x2dc>  // b.lo, b.ul, b.last
   52b80:	d53800b3 	mrs	x19, mpidr_el1
   52b84:	94002d21 	bl	5e008 <plat_my_core_pos>
   52b88:	d37c7c00 	ubfiz	x0, x0, #4, #32
   52b8c:	f0000082 	adrp	x2, 65000 <__STACKS_START__+0x2f80>
   52b90:	913f8042 	add	x2, x2, #0xfe0
   52b94:	92409e61 	and	x1, x19, #0xffffffffff
   52b98:	900000b3 	adrp	x19, 66000 <psci_cpu_pd_nodes+0x20>
   52b9c:	9260dc21 	and	x1, x1, #0xffffffff00ffffff
   52ba0:	91010274 	add	x20, x19, #0x40
   52ba4:	f8206841 	str	x1, [x2, x0]
   52ba8:	97fffb9e 	bl	51a20 <psci_init_req_local_pwr_states>
   52bac:	52800040 	mov	w0, #0x2                   	// #2
   52bb0:	97fffbe8 	bl	51b50 <psci_set_pwr_domains_to_run>
   52bb4:	f94006a0 	ldr	x0, [x21, #8]
   52bb8:	aa1403e1 	mov	x1, x20
   52bbc:	940002fa 	bl	537a4 <plat_setup_psci_ops>
   52bc0:	aa1403e0 	mov	x0, x20
   52bc4:	d2800101 	mov	x1, #0x8                   	// #8
   52bc8:	94002d38 	bl	5e0a8 <flush_dcache_range>
   52bcc:	f9402261 	ldr	x1, [x19, #64]
   52bd0:	52808223 	mov	w3, #0x411                 	// #1041
   52bd4:	d00000a0 	adrp	x0, 68000 <dist_ctx+0x1e98>
   52bd8:	f9400822 	ldr	x2, [x1, #16]
   52bdc:	f100005f 	cmp	x2, #0x0
   52be0:	528082a2 	mov	w2, #0x415                 	// #1045
   52be4:	1a831042 	csel	w2, w2, w3, ne  // ne = any
   52be8:	b90c5402 	str	w2, [x0, #3156]
   52bec:	f9400423 	ldr	x3, [x1, #8]
   52bf0:	b40000a3 	cbz	x3, 52c04 <psci_setup+0x20c>
   52bf4:	f9401423 	ldr	x3, [x1, #40]
   52bf8:	b4000063 	cbz	x3, 52c04 <psci_setup+0x20c>
   52bfc:	321d0042 	orr	w2, w2, #0x8
   52c00:	b90c5402 	str	w2, [x0, #3156]
   52c04:	f9401022 	ldr	x2, [x1, #32]
   52c08:	b4000162 	cbz	x2, 52c34 <psci_setup+0x23c>
   52c0c:	f9401c22 	ldr	x2, [x1, #56]
   52c10:	b4000122 	cbz	x2, 52c34 <psci_setup+0x23c>
   52c14:	f9403424 	ldr	x4, [x1, #104]
   52c18:	52880045 	mov	w5, #0x4002                	// #16386
   52c1c:	b94c5402 	ldr	w2, [x0, #3156]
   52c20:	f100009f 	cmp	x4, #0x0
   52c24:	321f0043 	orr	w3, w2, #0x2
   52c28:	2a050042 	orr	w2, w2, w5
   52c2c:	1a831042 	csel	w2, w2, w3, ne  // ne = any
   52c30:	b90c5402 	str	w2, [x0, #3156]
   52c34:	f9402422 	ldr	x2, [x1, #72]
   52c38:	b4000082 	cbz	x2, 52c48 <psci_setup+0x250>
   52c3c:	b94c5402 	ldr	w2, [x0, #3156]
   52c40:	32180042 	orr	w2, w2, #0x100
   52c44:	b90c5402 	str	w2, [x0, #3156]
   52c48:	f9402822 	ldr	x2, [x1, #80]
   52c4c:	b4000082 	cbz	x2, 52c5c <psci_setup+0x264>
   52c50:	b94c5402 	ldr	w2, [x0, #3156]
   52c54:	32170042 	orr	w2, w2, #0x200
   52c58:	b90c5402 	str	w2, [x0, #3156]
   52c5c:	f9404022 	ldr	x2, [x1, #128]
   52c60:	b4000082 	cbz	x2, 52c70 <psci_setup+0x278>
   52c64:	b94c5402 	ldr	w2, [x0, #3156]
   52c68:	32130042 	orr	w2, w2, #0x2000
   52c6c:	b90c5402 	str	w2, [x0, #3156]
   52c70:	f9404822 	ldr	x2, [x1, #144]
   52c74:	b40000c2 	cbz	x2, 52c8c <psci_setup+0x294>
   52c78:	f9404c22 	ldr	x2, [x1, #152]
   52c7c:	b4000082 	cbz	x2, 52c8c <psci_setup+0x294>
   52c80:	b94c5402 	ldr	w2, [x0, #3156]
   52c84:	320d0042 	orr	w2, w2, #0x80000
   52c88:	b90c5402 	str	w2, [x0, #3156]
   52c8c:	f9404422 	ldr	x2, [x1, #136]
   52c90:	b4000082 	cbz	x2, 52ca0 <psci_setup+0x2a8>
   52c94:	b94c5402 	ldr	w2, [x0, #3156]
   52c98:	320c0042 	orr	w2, w2, #0x100000
   52c9c:	b90c5402 	str	w2, [x0, #3156]
   52ca0:	f9405021 	ldr	x1, [x1, #160]
   52ca4:	b4000081 	cbz	x1, 52cb4 <psci_setup+0x2bc>
   52ca8:	b94c5401 	ldr	w1, [x0, #3156]
   52cac:	320e0021 	orr	w1, w1, #0x40000
   52cb0:	b90c5401 	str	w1, [x0, #3156]
   52cb4:	52800000 	mov	w0, #0x0                   	// #0
   52cb8:	a94153f3 	ldp	x19, x20, [sp, #16]
   52cbc:	a9425bf5 	ldp	x21, x22, [sp, #32]
   52cc0:	a94363f7 	ldp	x23, x24, [sp, #48]
   52cc4:	a9446bf9 	ldp	x25, x26, [sp, #64]
   52cc8:	a94573fb 	ldp	x27, x28, [sp, #80]
   52ccc:	a8c87bfd 	ldp	x29, x30, [sp], #128
   52cd0:	d65f03c0 	ret
   52cd4:	9101e3e2 	add	x2, sp, #0x78
   52cd8:	52800041 	mov	w1, #0x2                   	// #2
   52cdc:	2a1303e0 	mov	w0, w19
   52ce0:	97fffb8a 	bl	51b08 <psci_get_parent_pwr_domain_nodes>
   52ce4:	b9407fe2 	ldr	w2, [sp, #124]
   52ce8:	6b02031f 	cmp	w24, w2
   52cec:	2a0203e1 	mov	w1, w2
   52cf0:	54000060 	b.eq	52cfc <psci_setup+0x304>  // b.none
   52cf4:	d37cec20 	lsl	x0, x1, #4
   52cf8:	b8206a93 	str	w19, [x20, x0]
   52cfc:	8b011281 	add	x1, x20, x1, lsl #4
   52d00:	b9400420 	ldr	w0, [x1, #4]
   52d04:	11000400 	add	w0, w0, #0x1
   52d08:	b9000420 	str	w0, [x1, #4]
   52d0c:	b9407be0 	ldr	w0, [sp, #120]
   52d10:	6b0002ff 	cmp	w23, w0
   52d14:	2a0003e1 	mov	w1, w0
   52d18:	54000060 	b.eq	52d24 <psci_setup+0x32c>  // b.none
   52d1c:	d37cec23 	lsl	x3, x1, #4
   52d20:	b8236a93 	str	w19, [x20, x3]
   52d24:	8b011281 	add	x1, x20, x1, lsl #4
   52d28:	11000673 	add	w19, w19, #0x1
   52d2c:	2a0203f8 	mov	w24, w2
   52d30:	2a0003f7 	mov	w23, w0
   52d34:	b9400423 	ldr	w3, [x1, #4]
   52d38:	11000463 	add	w3, w3, #0x1
   52d3c:	b9000423 	str	w3, [x1, #4]
   52d40:	17ffff8d 	b	52b74 <psci_setup+0x17c>

0000000000052d44 <psci_cpu_suspend_start>:
   52d44:	a9b97bfd 	stp	x29, x30, [sp, #-112]!
   52d48:	910003fd 	mov	x29, sp
   52d4c:	a90153f3 	stp	x19, x20, [sp, #16]
   52d50:	2a0103f3 	mov	w19, w1
   52d54:	aa0203f4 	mov	x20, x2
   52d58:	a9025bf5 	stp	x21, x22, [sp, #32]
   52d5c:	2a0303f6 	mov	w22, w3
   52d60:	a90363f7 	stp	x23, x24, [sp, #48]
   52d64:	a9046bf9 	stp	x25, x26, [sp, #64]
   52d68:	aa0003f9 	mov	x25, x0
   52d6c:	94002ca7 	bl	5e008 <plat_my_core_pos>
   52d70:	910183e2 	add	x2, sp, #0x60
   52d74:	2a0003f8 	mov	w24, w0
   52d78:	2a1303e1 	mov	w1, w19
   52d7c:	f90033ff 	str	xzr, [sp, #96]
   52d80:	97fffb62 	bl	51b08 <psci_get_parent_pwr_domain_nodes>
   52d84:	910183e1 	add	x1, sp, #0x60
   52d88:	2a1303e0 	mov	w0, w19
   52d8c:	97fffc2d 	bl	51e40 <psci_acquire_pwr_domain_locks>
   52d90:	d538c100 	mrs	x0, isr_el1
   52d94:	b5000740 	cbnz	x0, 52e7c <psci_cpu_suspend_start+0x138>
   52d98:	aa1403e1 	mov	x1, x20
   52d9c:	2a1303e0 	mov	w0, w19
   52da0:	97fffb9a 	bl	51c08 <psci_do_state_coordination>
   52da4:	34000436 	cbz	w22, 52e28 <psci_cpu_suspend_start+0xe4>
   52da8:	aa1403e0 	mov	x0, x20
   52dac:	d0000075 	adrp	x21, 60000 <version_string+0x6c>
   52db0:	d000007a 	adrp	x26, 60000 <version_string+0x6c>
   52db4:	97fffc07 	bl	51dd0 <psci_find_max_off_lvl>
   52db8:	9112c2b5 	add	x21, x21, #0x4b0
   52dbc:	2a0003f7 	mov	w23, w0
   52dc0:	9112c35a 	add	x26, x26, #0x4b0
   52dc4:	eb1a02bf 	cmp	x21, x26
   52dc8:	54000523 	b.cc	52e6c <psci_cpu_suspend_start+0x128>  // b.lo, b.ul, b.last
   52dcc:	d53ed040 	mrs	x0, tpidr_el3
   52dd0:	b9001c13 	str	w19, [x0, #28]
   52dd4:	d53ed040 	mrs	x0, tpidr_el3
   52dd8:	d2800081 	mov	x1, #0x4                   	// #4
   52ddc:	91007000 	add	x0, x0, #0x1c
   52de0:	94002cb2 	bl	5e0a8 <flush_dcache_range>
   52de4:	900000a0 	adrp	x0, 66000 <psci_cpu_pd_nodes+0x20>
   52de8:	f9402400 	ldr	x0, [x0, #72]
   52dec:	b40000a0 	cbz	x0, 52e00 <psci_cpu_suspend_start+0xbc>
   52df0:	f9400801 	ldr	x1, [x0, #16]
   52df4:	b4000061 	cbz	x1, 52e00 <psci_cpu_suspend_start+0xbc>
   52df8:	2a1703e0 	mov	w0, w23
   52dfc:	d63f0020 	blr	x1
   52e00:	900000a0 	adrp	x0, 66000 <psci_cpu_pd_nodes+0x20>
   52e04:	f9402000 	ldr	x0, [x0, #64]
   52e08:	f9400c01 	ldr	x1, [x0, #24]
   52e0c:	b4000061 	cbz	x1, 52e18 <psci_cpu_suspend_start+0xd4>
   52e10:	aa1403e0 	mov	x0, x20
   52e14:	d63f0020 	blr	x1
   52e18:	aa1903e0 	mov	x0, x25
   52e1c:	97fffa13 	bl	51668 <cm_init_my_context>
   52e20:	2a1703e0 	mov	w0, w23
   52e24:	97fffcbb 	bl	52110 <psci_do_pwrdown_sequence>
   52e28:	900000a0 	adrp	x0, 66000 <psci_cpu_pd_nodes+0x20>
   52e2c:	52800015 	mov	w21, #0x0                   	// #0
   52e30:	f9402000 	ldr	x0, [x0, #64]
   52e34:	f9401001 	ldr	x1, [x0, #32]
   52e38:	aa1403e0 	mov	x0, x20
   52e3c:	d63f0020 	blr	x1
   52e40:	910183e1 	add	x1, sp, #0x60
   52e44:	2a1303e0 	mov	w0, w19
   52e48:	97fffc1a 	bl	51eb0 <psci_release_pwr_domain_locks>
   52e4c:	35000495 	cbnz	w21, 52edc <psci_cpu_suspend_start+0x198>
   52e50:	900000b5 	adrp	x21, 66000 <psci_cpu_pd_nodes+0x20>
   52e54:	340001b6 	cbz	w22, 52e88 <psci_cpu_suspend_start+0x144>
   52e58:	f94022a0 	ldr	x0, [x21, #64]
   52e5c:	f9402001 	ldr	x1, [x0, #64]
   52e60:	b4000121 	cbz	x1, 52e84 <psci_cpu_suspend_start+0x140>
   52e64:	aa1403e0 	mov	x0, x20
   52e68:	d63f0020 	blr	x1
   52e6c:	f84086a1 	ldr	x1, [x21], #8
   52e70:	d2800000 	mov	x0, #0x0                   	// #0
   52e74:	d63f0020 	blr	x1
   52e78:	17ffffd3 	b	52dc4 <psci_cpu_suspend_start+0x80>
   52e7c:	52800035 	mov	w21, #0x1                   	// #1
   52e80:	17fffff0 	b	52e40 <psci_cpu_suspend_start+0xfc>
   52e84:	94002c4a 	bl	5dfac <psci_power_down_wfi>
   52e88:	d503207f 	wfi
   52e8c:	9101a3e2 	add	x2, sp, #0x68
   52e90:	2a1303e1 	mov	w1, w19
   52e94:	2a1803e0 	mov	w0, w24
   52e98:	f90037ff 	str	xzr, [sp, #104]
   52e9c:	97fffb1b 	bl	51b08 <psci_get_parent_pwr_domain_nodes>
   52ea0:	9101a3e1 	add	x1, sp, #0x68
   52ea4:	2a1303e0 	mov	w0, w19
   52ea8:	97fffbe6 	bl	51e40 <psci_acquire_pwr_domain_locks>
   52eac:	910163e1 	add	x1, sp, #0x58
   52eb0:	2a1303e0 	mov	w0, w19
   52eb4:	97fffaf1 	bl	51a78 <psci_get_target_local_pwr_states>
   52eb8:	f94022a0 	ldr	x0, [x21, #64]
   52ebc:	f9401c01 	ldr	x1, [x0, #56]
   52ec0:	910163e0 	add	x0, sp, #0x58
   52ec4:	d63f0020 	blr	x1
   52ec8:	2a1303e0 	mov	w0, w19
   52ecc:	97fffb21 	bl	51b50 <psci_set_pwr_domains_to_run>
   52ed0:	9101a3e1 	add	x1, sp, #0x68
   52ed4:	2a1303e0 	mov	w0, w19
   52ed8:	97fffbf6 	bl	51eb0 <psci_release_pwr_domain_locks>
   52edc:	a94153f3 	ldp	x19, x20, [sp, #16]
   52ee0:	a9425bf5 	ldp	x21, x22, [sp, #32]
   52ee4:	a94363f7 	ldp	x23, x24, [sp, #48]
   52ee8:	a9446bf9 	ldp	x25, x26, [sp, #64]
   52eec:	a8c77bfd 	ldp	x29, x30, [sp], #112
   52ef0:	d65f03c0 	ret

0000000000052ef4 <psci_cpu_suspend_finish>:
   52ef4:	a9be7bfd 	stp	x29, x30, [sp, #-32]!
   52ef8:	900000a0 	adrp	x0, 66000 <psci_cpu_pd_nodes+0x20>
   52efc:	910003fd 	mov	x29, sp
   52f00:	f9402000 	ldr	x0, [x0, #64]
   52f04:	a90153f3 	stp	x19, x20, [sp, #16]
   52f08:	aa0103f3 	mov	x19, x1
   52f0c:	f9401c01 	ldr	x1, [x0, #56]
   52f10:	aa1303e0 	mov	x0, x19
   52f14:	d63f0020 	blr	x1
   52f18:	94002c18 	bl	5df78 <psci_do_pwrup_cache_maintenance>
   52f1c:	94000091 	bl	53160 <plat_get_syscnt_freq2>
   52f20:	2a0003e0 	mov	w0, w0
   52f24:	d51be000 	msr	cntfrq_el0, x0
   52f28:	900000b4 	adrp	x20, 66000 <psci_cpu_pd_nodes+0x20>
   52f2c:	f9402680 	ldr	x0, [x20, #72]
   52f30:	b4000120 	cbz	x0, 52f54 <psci_cpu_suspend_finish+0x60>
   52f34:	f9401000 	ldr	x0, [x0, #32]
   52f38:	b40000e0 	cbz	x0, 52f54 <psci_cpu_suspend_finish+0x60>
   52f3c:	aa1303e0 	mov	x0, x19
   52f40:	97fffba4 	bl	51dd0 <psci_find_max_off_lvl>
   52f44:	f9402681 	ldr	x1, [x20, #72]
   52f48:	2a0003e0 	mov	w0, w0
   52f4c:	f9401021 	ldr	x1, [x1, #32]
   52f50:	d63f0020 	blr	x1
   52f54:	d53ed040 	mrs	x0, tpidr_el3
   52f58:	d0000073 	adrp	x19, 60000 <version_string+0x6c>
   52f5c:	d0000074 	adrp	x20, 60000 <version_string+0x6c>
   52f60:	9112c273 	add	x19, x19, #0x4b0
   52f64:	9112c294 	add	x20, x20, #0x4b0
   52f68:	52800061 	mov	w1, #0x3                   	// #3
   52f6c:	b9001c01 	str	w1, [x0, #28]
   52f70:	eb14027f 	cmp	x19, x20
   52f74:	540000a3 	b.cc	52f88 <psci_cpu_suspend_finish+0x94>  // b.lo, b.ul, b.last
   52f78:	a94153f3 	ldp	x19, x20, [sp, #16]
   52f7c:	52800020 	mov	w0, #0x1                   	// #1
   52f80:	a8c27bfd 	ldp	x29, x30, [sp], #32
   52f84:	17fff9eb 	b	51730 <cm_prepare_el3_exit>
   52f88:	f8408661 	ldr	x1, [x19], #8
   52f8c:	d2800000 	mov	x0, #0x0                   	// #0
   52f90:	d63f0020 	blr	x1
   52f94:	17fffff7 	b	52f70 <psci_cpu_suspend_finish+0x7c>

0000000000052f98 <psci_system_off>:
   52f98:	a9bf7bfd 	stp	x29, x30, [sp, #-16]!
   52f9c:	910003fd 	mov	x29, sp
   52fa0:	97fffc5b 	bl	5210c <psci_print_power_domain_map>
   52fa4:	900000a0 	adrp	x0, 66000 <psci_cpu_pd_nodes+0x20>
   52fa8:	f9402400 	ldr	x0, [x0, #72]
   52fac:	b4000080 	cbz	x0, 52fbc <psci_system_off+0x24>
   52fb0:	f9401c00 	ldr	x0, [x0, #56]
   52fb4:	b4000040 	cbz	x0, 52fbc <psci_system_off+0x24>
   52fb8:	d63f0000 	blr	x0
   52fbc:	9400281c 	bl	5d02c <console_flush>
   52fc0:	900000a0 	adrp	x0, 66000 <psci_cpu_pd_nodes+0x20>
   52fc4:	f9402000 	ldr	x0, [x0, #64]
   52fc8:	f9402400 	ldr	x0, [x0, #72]
   52fcc:	d63f0000 	blr	x0

0000000000052fd0 <psci_system_reset>:
   52fd0:	a9bf7bfd 	stp	x29, x30, [sp, #-16]!
   52fd4:	910003fd 	mov	x29, sp
   52fd8:	97fffc4d 	bl	5210c <psci_print_power_domain_map>
   52fdc:	900000a0 	adrp	x0, 66000 <psci_cpu_pd_nodes+0x20>
   52fe0:	f9402400 	ldr	x0, [x0, #72]
   52fe4:	b4000080 	cbz	x0, 52ff4 <psci_system_reset+0x24>
   52fe8:	f9402000 	ldr	x0, [x0, #64]
   52fec:	b4000040 	cbz	x0, 52ff4 <psci_system_reset+0x24>
   52ff0:	d63f0000 	blr	x0
   52ff4:	9400280e 	bl	5d02c <console_flush>
   52ff8:	900000a0 	adrp	x0, 66000 <psci_cpu_pd_nodes+0x20>
   52ffc:	f9402000 	ldr	x0, [x0, #64]
   53000:	f9402800 	ldr	x0, [x0, #80]
   53004:	d63f0000 	blr	x0

0000000000053008 <psci_system_reset2>:
   53008:	a9bd7bfd 	stp	x29, x30, [sp, #-48]!
   5300c:	910003fd 	mov	x29, sp
   53010:	a90153f3 	stp	x19, x20, [sp, #16]
   53014:	2a0003f3 	mov	w19, w0
   53018:	aa0103f4 	mov	x20, x1
   5301c:	f90013f5 	str	x21, [sp, #32]
   53020:	531f7e75 	lsr	w21, w19, #31
   53024:	97fffc3a 	bl	5210c <psci_print_power_domain_map>
   53028:	36f80233 	tbz	w19, #31, 5306c <psci_system_reset2+0x64>
   5302c:	f0000080 	adrp	x0, 66000 <psci_cpu_pd_nodes+0x20>
   53030:	f9402400 	ldr	x0, [x0, #72]
   53034:	b5000300 	cbnz	x0, 53094 <psci_system_reset2+0x8c>
   53038:	940027fd 	bl	5d02c <console_flush>
   5303c:	f0000080 	adrp	x0, 66000 <psci_cpu_pd_nodes+0x20>
   53040:	aa1403e2 	mov	x2, x20
   53044:	2a1303e1 	mov	w1, w19
   53048:	f9402000 	ldr	x0, [x0, #64]
   5304c:	f9405003 	ldr	x3, [x0, #160]
   53050:	2a1503e0 	mov	w0, w21
   53054:	d63f0060 	blr	x3
   53058:	93407c00 	sxtw	x0, w0
   5305c:	a94153f3 	ldp	x19, x20, [sp, #16]
   53060:	f94013f5 	ldr	x21, [sp, #32]
   53064:	a8c37bfd 	ldp	x29, x30, [sp], #48
   53068:	d65f03c0 	ret
   5306c:	350001d3 	cbnz	w19, 530a4 <psci_system_reset2+0x9c>
   53070:	f0000080 	adrp	x0, 66000 <psci_cpu_pd_nodes+0x20>
   53074:	f9402000 	ldr	x0, [x0, #64]
   53078:	f9404c01 	ldr	x1, [x0, #152]
   5307c:	b4fffd81 	cbz	x1, 5302c <psci_system_reset2+0x24>
   53080:	52800000 	mov	w0, #0x0                   	// #0
   53084:	d63f0020 	blr	x1
   53088:	36fffd20 	tbz	w0, #31, 5302c <psci_system_reset2+0x24>
   5308c:	92800000 	mov	x0, #0xffffffffffffffff    	// #-1
   53090:	17fffff3 	b	5305c <psci_system_reset2+0x54>
   53094:	f9402000 	ldr	x0, [x0, #64]
   53098:	b4fffd00 	cbz	x0, 53038 <psci_system_reset2+0x30>
   5309c:	d63f0000 	blr	x0
   530a0:	17ffffe6 	b	53038 <psci_system_reset2+0x30>
   530a4:	92800020 	mov	x0, #0xfffffffffffffffe    	// #-2
   530a8:	17ffffed 	b	5305c <psci_system_reset2+0x54>

00000000000530ac <plat_ic_get_pending_interrupt_type>:
   530ac:	a9bf7bfd 	stp	x29, x30, [sp, #-16]!
   530b0:	910003fd 	mov	x29, sp
   530b4:	97fff715 	bl	50d08 <gicv3_get_pending_interrupt_type>
   530b8:	510ff000 	sub	w0, w0, #0x3fc
   530bc:	71000c1f 	cmp	w0, #0x3
   530c0:	540000c8 	b.hi	530d8 <plat_ic_get_pending_interrupt_type+0x2c>  // b.pmore
   530c4:	b0000061 	adrp	x1, 60000 <version_string+0x6c>
   530c8:	91036421 	add	x1, x1, #0xd9
   530cc:	38604820 	ldrb	w0, [x1, w0, uxtw]
   530d0:	a8c17bfd 	ldp	x29, x30, [sp], #16
   530d4:	d65f03c0 	ret
   530d8:	52800020 	mov	w0, #0x1                   	// #1
   530dc:	17fffffd 	b	530d0 <plat_ic_get_pending_interrupt_type+0x24>

00000000000530e0 <plat_configure_mmu_el3>:
   530e0:	a9bd7bfd 	stp	x29, x30, [sp, #-48]!
   530e4:	910003fd 	mov	x29, sp
   530e8:	a90153f3 	stp	x19, x20, [sp, #16]
   530ec:	aa0403f3 	mov	x19, x4
   530f0:	aa0203f4 	mov	x20, x2
   530f4:	aa0103e2 	mov	x2, x1
   530f8:	aa0003e1 	mov	x1, x0
   530fc:	a9025bf5 	stp	x21, x22, [sp, #32]
   53100:	aa0503f5 	mov	x21, x5
   53104:	aa0303f6 	mov	x22, x3
   53108:	52800143 	mov	w3, #0xa                   	// #10
   5310c:	940028cd 	bl	5d440 <mmap_add_region>
   53110:	cb1402c2 	sub	x2, x22, x20
   53114:	aa1403e1 	mov	x1, x20
   53118:	aa1403e0 	mov	x0, x20
   5311c:	52800043 	mov	w3, #0x2                   	// #2
   53120:	940028c8 	bl	5d440 <mmap_add_region>
   53124:	cb1302a2 	sub	x2, x21, x19
   53128:	aa1303e1 	mov	x1, x19
   5312c:	52800103 	mov	w3, #0x8                   	// #8
   53130:	aa1303e0 	mov	x0, x19
   53134:	940028c3 	bl	5d440 <mmap_add_region>
   53138:	90000060 	adrp	x0, 5f000 <fdt_ro_probe_+0x20>
   5313c:	912e8000 	add	x0, x0, #0xba0
   53140:	940028fa 	bl	5d528 <mmap_add>
   53144:	9400244f 	bl	5c280 <rockchip_plat_mmu_el3>
   53148:	94002934 	bl	5d618 <init_xlat_tables>
   5314c:	a94153f3 	ldp	x19, x20, [sp, #16]
   53150:	52800000 	mov	w0, #0x0                   	// #0
   53154:	a9425bf5 	ldp	x21, x22, [sp, #32]
   53158:	a8c37bfd 	ldp	x29, x30, [sp], #48
   5315c:	14002950 	b	5d69c <enable_mmu_el3>

0000000000053160 <plat_get_syscnt_freq2>:
   53160:	5286c000 	mov	w0, #0x3600                	// #13824
   53164:	72a02dc0 	movk	w0, #0x16e, lsl #16
   53168:	d65f03c0 	ret

000000000005316c <plat_cci_init>:
   5316c:	52800042 	mov	w2, #0x2                   	// #2
   53170:	90000061 	adrp	x1, 5f000 <fdt_ro_probe_+0x20>
   53174:	d2bff600 	mov	x0, #0xffb00000            	// #4289724416
   53178:	91315021 	add	x1, x1, #0xc54
   5317c:	17fff471 	b	50340 <cci_init>

0000000000053180 <plat_cci_enable>:
   53180:	d53800a0 	mrs	x0, mpidr_el1
   53184:	53083c00 	ubfx	w0, w0, #8, #8
   53188:	17fff473 	b	50354 <cci_enable_snoop_dvm_reqs>

000000000005318c <plat_cci_disable>:
   5318c:	d53800a0 	mrs	x0, mpidr_el1
   53190:	53083c00 	ubfx	w0, w0, #8, #8
   53194:	17fff47f 	b	50390 <cci_disable_snoop_dvm_reqs>

0000000000053198 <bl31_plat_get_next_image_ep_info>:
   53198:	7100041f 	cmp	w0, #0x1
   5319c:	f0000081 	adrp	x1, 66000 <psci_cpu_pd_nodes+0x20>
   531a0:	f0000082 	adrp	x2, 66000 <psci_cpu_pd_nodes+0x20>
   531a4:	9102a020 	add	x0, x1, #0xa8
   531a8:	91014042 	add	x2, x2, #0x50
   531ac:	9a820000 	csel	x0, x0, x2, eq  // eq = none
   531b0:	f9400401 	ldr	x1, [x0, #8]
   531b4:	f100003f 	cmp	x1, #0x0
   531b8:	9a9f1000 	csel	x0, x0, xzr, ne  // ne = any
   531bc:	d65f03c0 	ret

00000000000531c0 <bl31_early_platform_setup2>:
   531c0:	a9bd7bfd 	stp	x29, x30, [sp, #-48]!
   531c4:	910003fd 	mov	x29, sp
   531c8:	a90153f3 	stp	x19, x20, [sp, #16]
   531cc:	aa0003f3 	mov	x19, x0
   531d0:	aa0103e0 	mov	x0, x1
   531d4:	f90013f5 	str	x21, [sp, #32]
   531d8:	94000083 	bl	533e4 <params_early_setup>
   531dc:	94000064 	bl	5336c <rockchip_get_uart_base>
   531e0:	34000180 	cbz	w0, 53210 <bl31_early_platform_setup2+0x50>
   531e4:	94000062 	bl	5336c <rockchip_get_uart_base>
   531e8:	2a0003f4 	mov	w20, w0
   531ec:	94000066 	bl	53384 <rockchip_get_uart_clock>
   531f0:	2a0003f5 	mov	w21, w0
   531f4:	94000061 	bl	53378 <rockchip_get_uart_baudrate>
   531f8:	2a0003e2 	mov	w2, w0
   531fc:	f0000083 	adrp	x3, 66000 <psci_cpu_pd_nodes+0x20>
   53200:	2a1503e1 	mov	w1, w21
   53204:	91040063 	add	x3, x3, #0x100
   53208:	2a1403e0 	mov	w0, w20
   5320c:	940029ce 	bl	5d944 <console_16550_register>
   53210:	aa1303e0 	mov	x0, x19
   53214:	f0000082 	adrp	x2, 66000 <psci_cpu_pd_nodes+0x20>
   53218:	a94153f3 	ldp	x19, x20, [sp, #16]
   5321c:	9102a042 	add	x2, x2, #0xa8
   53220:	f94013f5 	ldr	x21, [sp, #32]
   53224:	f0000081 	adrp	x1, 66000 <psci_cpu_pd_nodes+0x20>
   53228:	a8c37bfd 	ldp	x29, x30, [sp], #48
   5322c:	91014021 	add	x1, x1, #0x50
   53230:	140027c7 	b	5d14c <bl31_params_parse_helper>

0000000000053234 <bl31_platform_setup>:
   53234:	a9bf7bfd 	stp	x29, x30, [sp, #-16]!
   53238:	910003fd 	mov	x29, sp
   5323c:	97fff870 	bl	513fc <generic_delay_timer_init>
   53240:	9400265b 	bl	5cbac <plat_rockchip_soc_init>
   53244:	9400016c 	bl	537f4 <plat_rockchip_gic_driver_init>
   53248:	9400016e 	bl	53800 <plat_rockchip_gic_init>
   5324c:	a8c17bfd 	ldp	x29, x30, [sp], #16
   53250:	1400242f 	b	5c30c <plat_rockchip_pmu_init>

0000000000053254 <bl31_plat_arch_setup>:
   53254:	a9bf7bfd 	stp	x29, x30, [sp, #-16]!
   53258:	910003fd 	mov	x29, sp
   5325c:	97ffffc4 	bl	5316c <plat_cci_init>
   53260:	97ffffc8 	bl	53180 <plat_cci_enable>
   53264:	a8c17bfd 	ldp	x29, x30, [sp], #16
   53268:	b0ffff62 	adrp	x2, 40000 <bl31_entrypoint>
   5326c:	f0000265 	adrp	x5, a2000 <__BL31_END__>
   53270:	91000042 	add	x2, x2, #0x0
   53274:	910000a5 	add	x5, x5, #0x0
   53278:	aa0203e0 	mov	x0, x2
   5327c:	cb0200a1 	sub	x1, x5, x2
   53280:	d0000264 	adrp	x4, a1000 <psci_locks>
   53284:	f0000063 	adrp	x3, 62000 <__RO_END__>
   53288:	91000084 	add	x4, x4, #0x0
   5328c:	91000063 	add	x3, x3, #0x0
   53290:	17ffff94 	b	530e0 <plat_configure_mmu_el3>

0000000000053294 <rk_aux_param_handler>:
   53294:	f9400001 	ldr	x1, [x0]
   53298:	d1000421 	sub	x1, x1, #0x1
   5329c:	f1000c3f 	cmp	x1, #0x3
   532a0:	54000628 	b.hi	53364 <rk_aux_param_handler+0xd0>  // b.pmore
   532a4:	71000c3f 	cmp	w1, #0x3
   532a8:	540005e8 	b.hi	53364 <rk_aux_param_handler+0xd0>  // b.pmore
   532ac:	90000062 	adrp	x2, 5f000 <fdt_ro_probe_+0x20>
   532b0:	91317042 	add	x2, x2, #0xc5c
   532b4:	38614841 	ldrb	w1, [x2, w1, uxtw]
   532b8:	10000062 	adr	x2, 532c4 <rk_aux_param_handler+0x30>
   532bc:	8b218841 	add	x1, x2, w1, sxtb #2
   532c0:	d61f0020 	br	x1
   532c4:	f0000061 	adrp	x1, 62000 <__RO_END__>
   532c8:	b9401003 	ldr	w3, [x0, #16]
   532cc:	9100f022 	add	x2, x1, #0x3c
   532d0:	b9003c23 	str	w3, [x1, #60]
   532d4:	b9401400 	ldr	w0, [x0, #20]
   532d8:	b9000440 	str	w0, [x2, #4]
   532dc:	52800020 	mov	w0, #0x1                   	// #1
   532e0:	d65f03c0 	ret
   532e4:	f0000061 	adrp	x1, 62000 <__RO_END__>
   532e8:	b9401003 	ldr	w3, [x0, #16]
   532ec:	9100b022 	add	x2, x1, #0x2c
   532f0:	b9002c23 	str	w3, [x1, #44]
   532f4:	17fffff8 	b	532d4 <rk_aux_param_handler+0x40>
   532f8:	b00000a2 	adrp	x2, 68000 <dist_ctx+0x1e98>
   532fc:	b94ca841 	ldr	w1, [x2, #3240]
   53300:	7100243f 	cmp	w1, #0x9
   53304:	54000129 	b.ls	53328 <rk_aux_param_handler+0x94>  // b.plast
   53308:	a9bf7bfd 	stp	x29, x30, [sp, #-16]!
   5330c:	b0000060 	adrp	x0, 60000 <version_string+0x6c>
   53310:	91037400 	add	x0, x0, #0xdd
   53314:	910003fd 	mov	x29, sp
   53318:	940026de 	bl	5ce90 <tf_log>
   5331c:	52800020 	mov	w0, #0x1                   	// #1
   53320:	a8c17bfd 	ldp	x29, x30, [sp], #16
   53324:	d65f03c0 	ret
   53328:	11000423 	add	w3, w1, #0x1
   5332c:	d37d7c21 	ubfiz	x1, x1, #3, #32
   53330:	b90ca843 	str	w3, [x2, #3240]
   53334:	b00000a2 	adrp	x2, 68000 <dist_ctx+0x1e98>
   53338:	91316042 	add	x2, x2, #0xc58
   5333c:	b9401004 	ldr	w4, [x0, #16]
   53340:	8b010043 	add	x3, x2, x1
   53344:	b8216844 	str	w4, [x2, x1]
   53348:	b9401400 	ldr	w0, [x0, #20]
   5334c:	b9000460 	str	w0, [x3, #4]
   53350:	17ffffe3 	b	532dc <rk_aux_param_handler+0x48>
   53354:	39404001 	ldrb	w1, [x0, #16]
   53358:	d00001a0 	adrp	x0, 89000 <fdt_buffer+0x1f414>
   5335c:	392fb001 	strb	w1, [x0, #3052]
   53360:	17ffffdf 	b	532dc <rk_aux_param_handler+0x48>
   53364:	52800000 	mov	w0, #0x0                   	// #0
   53368:	d65f03c0 	ret

000000000005336c <rockchip_get_uart_base>:
   5336c:	f0000060 	adrp	x0, 62000 <__RO_END__>
   53370:	b9403400 	ldr	w0, [x0, #52]
   53374:	d65f03c0 	ret

0000000000053378 <rockchip_get_uart_baudrate>:
   53378:	f0000060 	adrp	x0, 62000 <__RO_END__>
   5337c:	b9403800 	ldr	w0, [x0, #56]
   53380:	d65f03c0 	ret

0000000000053384 <rockchip_get_uart_clock>:
   53384:	5286c000 	mov	w0, #0x3600                	// #13824
   53388:	72a02dc0 	movk	w0, #0x16e, lsl #16
   5338c:	d65f03c0 	ret

0000000000053390 <plat_get_rockchip_gpio_reset>:
   53390:	f0000060 	adrp	x0, 62000 <__RO_END__>
   53394:	9100f000 	add	x0, x0, #0x3c
   53398:	b9400401 	ldr	w1, [x0, #4]
   5339c:	3100043f 	cmn	w1, #0x1
   533a0:	9a9f1000 	csel	x0, x0, xzr, ne  // ne = any
   533a4:	d65f03c0 	ret

00000000000533a8 <plat_get_rockchip_gpio_poweroff>:
   533a8:	f0000060 	adrp	x0, 62000 <__RO_END__>
   533ac:	9100b000 	add	x0, x0, #0x2c
   533b0:	b9400401 	ldr	w1, [x0, #4]
   533b4:	3100043f 	cmn	w1, #0x1
   533b8:	9a9f1000 	csel	x0, x0, xzr, ne  // ne = any
   533bc:	d65f03c0 	ret

00000000000533c0 <plat_get_rockchip_suspend_gpio>:
   533c0:	b00000a1 	adrp	x1, 68000 <dist_ctx+0x1e98>
   533c4:	b94ca821 	ldr	w1, [x1, #3240]
   533c8:	b9000001 	str	w1, [x0]
   533cc:	b00000a0 	adrp	x0, 68000 <dist_ctx+0x1e98>
   533d0:	91316000 	add	x0, x0, #0xc58
   533d4:	d65f03c0 	ret

00000000000533d8 <plat_get_rockchip_suspend_apio>:
   533d8:	d00001a0 	adrp	x0, 89000 <fdt_buffer+0x1f414>
   533dc:	912fb000 	add	x0, x0, #0xbec
   533e0:	d65f03c0 	ret

00000000000533e4 <params_early_setup>:
   533e4:	a9bd7bfd 	stp	x29, x30, [sp, #-48]!
   533e8:	52a00042 	mov	w2, #0x20000               	// #131072
   533ec:	910003fd 	mov	x29, sp
   533f0:	a90153f3 	stp	x19, x20, [sp, #16]
   533f4:	d00000b3 	adrp	x19, 69000 <pmu_slpdata+0x40>
   533f8:	912fb273 	add	x19, x19, #0xbec
   533fc:	aa0003f4 	mov	x20, x0
   53400:	aa1303e1 	mov	x1, x19
   53404:	94002e82 	bl	5ee0c <fdt_open_into>
   53408:	37f80660 	tbnz	w0, #31, 534d4 <params_early_setup+0xf0>
   5340c:	b0000061 	adrp	x1, 60000 <version_string+0x6c>
   53410:	91042c21 	add	x1, x1, #0x10b
   53414:	aa1303e0 	mov	x0, x19
   53418:	94002e0c 	bl	5ec48 <fdt_path_offset>
   5341c:	2a0003e1 	mov	w1, w0
   53420:	37f80420 	tbnz	w0, #31, 534a4 <params_early_setup+0xc0>
   53424:	aa1303e0 	mov	x0, x19
   53428:	9100b3e3 	add	x3, sp, #0x2c
   5342c:	b0000062 	adrp	x2, 60000 <version_string+0x6c>
   53430:	91044c42 	add	x2, x2, #0x113
   53434:	94002d99 	bl	5ea98 <fdt_getprop>
   53438:	aa0003f3 	mov	x19, x0
   5343c:	b4000340 	cbz	x0, 534a4 <params_early_setup+0xc0>
   53440:	aa0003e1 	mov	x1, x0
   53444:	d28000c2 	mov	x2, #0x6                   	// #6
   53448:	b0000060 	adrp	x0, 60000 <version_string+0x6c>
   5344c:	91047c00 	add	x0, x0, #0x11f
   53450:	94003176 	bl	5fa28 <strncmp>
   53454:	35000280 	cbnz	w0, 534a4 <params_early_setup+0xc0>
   53458:	39401a61 	ldrb	w1, [x19, #6]
   5345c:	5100c021 	sub	w1, w1, #0x30
   53460:	71000c3f 	cmp	w1, #0x3
   53464:	54000208 	b.hi	534a4 <params_early_setup+0xc0>  // b.pmore
   53468:	f0000060 	adrp	x0, 62000 <__RO_END__>
   5346c:	53103c21 	lsl	w1, w1, #16
   53470:	517a0021 	sub	w1, w1, #0xe80, lsl #12
   53474:	b9003401 	str	w1, [x0, #52]
   53478:	aa1303e0 	mov	x0, x19
   5347c:	52800741 	mov	w1, #0x3a                  	// #58
   53480:	9400315a 	bl	5f9e8 <strchr>
   53484:	b4000100 	cbz	x0, 534a4 <params_early_setup+0xc0>
   53488:	91000400 	add	x0, x0, #0x1
   5348c:	52800001 	mov	w1, #0x0                   	// #0
   53490:	52800144 	mov	w4, #0xa                   	// #10
   53494:	39400002 	ldrb	w2, [x0]
   53498:	350000c2 	cbnz	w2, 534b0 <params_early_setup+0xcc>
   5349c:	f0000060 	adrp	x0, 62000 <__RO_END__>
   534a0:	b9003801 	str	w1, [x0, #56]
   534a4:	a94153f3 	ldp	x19, x20, [sp, #16]
   534a8:	a8c37bfd 	ldp	x29, x30, [sp], #48
   534ac:	d65f03c0 	ret
   534b0:	5101b843 	sub	w3, w2, #0x6e
   534b4:	7101945f 	cmp	w2, #0x65
   534b8:	12001c63 	and	w3, w3, #0xff
   534bc:	7a411860 	ccmp	w3, #0x1, #0x0, ne  // ne = any
   534c0:	54fffee9 	b.ls	5349c <params_early_setup+0xb8>  // b.plast
   534c4:	1b040821 	madd	w1, w1, w4, w2
   534c8:	91000400 	add	x0, x0, #0x1
   534cc:	5100c021 	sub	w1, w1, #0x30
   534d0:	17fffff1 	b	53494 <params_early_setup+0xb0>
   534d4:	3100241f 	cmn	w0, #0x9
   534d8:	54fffe61 	b.ne	534a4 <params_early_setup+0xc0>  // b.any
   534dc:	aa1403e0 	mov	x0, x20
   534e0:	90000001 	adrp	x1, 53000 <psci_system_reset+0x30>
   534e4:	910a5021 	add	x1, x1, #0x294
   534e8:	94002744 	bl	5d1f8 <bl_aux_params_parse>
   534ec:	17ffffee 	b	534a4 <params_early_setup+0xc0>

00000000000534f0 <rockchip_validate_power_state>:
   534f0:	2a0003e3 	mov	w3, w0
   534f4:	d3586462 	ubfx	x2, x3, #24, #2
   534f8:	d3504060 	ubfx	x0, x3, #16, #1
   534fc:	71000c5f 	cmp	w2, #0x3
   53500:	54000100 	b.eq	53520 <rockchip_validate_power_state+0x30>  // b.none
   53504:	35000120 	cbnz	w0, 53528 <rockchip_validate_power_state+0x38>
   53508:	350000c2 	cbnz	w2, 53520 <rockchip_validate_power_state+0x30>
   5350c:	52800020 	mov	w0, #0x1                   	// #1
   53510:	39000020 	strb	w0, [x1]
   53514:	72003c7f 	tst	w3, #0xffff
   53518:	52800000 	mov	w0, #0x0                   	// #0
   5351c:	54000040 	b.eq	53524 <rockchip_validate_power_state+0x34>  // b.none
   53520:	12800020 	mov	w0, #0xfffffffe            	// #-2
   53524:	d65f03c0 	ret
   53528:	52800040 	mov	w0, #0x2                   	// #2
   5352c:	39000020 	strb	w0, [x1]
   53530:	340000a2 	cbz	w2, 53544 <rockchip_validate_power_state+0x54>
   53534:	39000420 	strb	w0, [x1, #1]
   53538:	7100085f 	cmp	w2, #0x2
   5353c:	54000041 	b.ne	53544 <rockchip_validate_power_state+0x54>  // b.any
   53540:	39000822 	strb	w2, [x1, #2]
   53544:	11000442 	add	w2, w2, #0x1
   53548:	52800020 	mov	w0, #0x1                   	// #1
   5354c:	93407c42 	sxtw	x2, w2
   53550:	71000c5f 	cmp	w2, #0x3
   53554:	54fffe00 	b.eq	53514 <rockchip_validate_power_state+0x24>  // b.none
   53558:	38226820 	strb	w0, [x1, x2]
   5355c:	91000442 	add	x2, x2, #0x1
   53560:	17fffffc 	b	53550 <rockchip_validate_power_state+0x60>

0000000000053564 <rockchip_get_sys_suspend_power_state>:
   53564:	52800041 	mov	w1, #0x2                   	// #2
   53568:	39000001 	strb	w1, [x0]
   5356c:	39000401 	strb	w1, [x0, #1]
   53570:	39000801 	strb	w1, [x0, #2]
   53574:	d65f03c0 	ret

0000000000053578 <rockchip_cpu_standby>:
   53578:	d53e1100 	mrs	x0, scr_el3
   5357c:	b27f0001 	orr	x1, x0, #0x2
   53580:	d51e1101 	msr	scr_el3, x1
   53584:	d5033fdf 	isb
   53588:	d5033f9f 	dsb	sy
   5358c:	d503207f 	wfi
   53590:	d51e1100 	msr	scr_el3, x0
   53594:	d65f03c0 	ret

0000000000053598 <rockchip_pwr_domain_on>:
   53598:	f0000081 	adrp	x1, 66000 <psci_cpu_pd_nodes+0x20>
   5359c:	f9409821 	ldr	x1, [x1, #304]
   535a0:	140017b1 	b	59464 <rockchip_soc_cores_pwr_dm_on>

00000000000535a4 <rockchip_pwr_domain_off>:
   535a4:	a9be7bfd 	stp	x29, x30, [sp, #-32]!
   535a8:	910003fd 	mov	x29, sp
   535ac:	f9000bf3 	str	x19, [sp, #16]
   535b0:	aa0003f3 	mov	x19, x0
   535b4:	940000a0 	bl	53834 <plat_rockchip_gic_cpuif_disable>
   535b8:	39400660 	ldrb	w0, [x19, #1]
   535bc:	7100081f 	cmp	w0, #0x2
   535c0:	54000041 	b.ne	535c8 <rockchip_pwr_domain_off+0x24>  // b.any
   535c4:	97fffef2 	bl	5318c <plat_cci_disable>
   535c8:	940017d4 	bl	59518 <rockchip_soc_cores_pwr_dm_off>
   535cc:	39400661 	ldrb	w1, [x19, #1]
   535d0:	52800020 	mov	w0, #0x1                   	// #1
   535d4:	940017e4 	bl	59564 <rockchip_soc_hlvl_pwr_dm_off>
   535d8:	3100041f 	cmn	w0, #0x1
   535dc:	540000c0 	b.eq	535f4 <rockchip_pwr_domain_off+0x50>  // b.none
   535e0:	39400a61 	ldrb	w1, [x19, #2]
   535e4:	52800040 	mov	w0, #0x2                   	// #2
   535e8:	f9400bf3 	ldr	x19, [sp, #16]
   535ec:	a8c27bfd 	ldp	x29, x30, [sp], #32
   535f0:	140017dd 	b	59564 <rockchip_soc_hlvl_pwr_dm_off>
   535f4:	f9400bf3 	ldr	x19, [sp, #16]
   535f8:	a8c27bfd 	ldp	x29, x30, [sp], #32
   535fc:	d65f03c0 	ret

0000000000053600 <rockchip_pwr_domain_suspend>:
   53600:	a9be7bfd 	stp	x29, x30, [sp, #-32]!
   53604:	910003fd 	mov	x29, sp
   53608:	f9000bf3 	str	x19, [sp, #16]
   5360c:	aa0003f3 	mov	x19, x0
   53610:	39400000 	ldrb	w0, [x0]
   53614:	7100081f 	cmp	w0, #0x2
   53618:	54000321 	b.ne	5367c <rockchip_pwr_domain_suspend+0x7c>  // b.any
   5361c:	94000086 	bl	53834 <plat_rockchip_gic_cpuif_disable>
   53620:	39400a60 	ldrb	w0, [x19, #2]
   53624:	7100081f 	cmp	w0, #0x2
   53628:	54000261 	b.ne	53674 <rockchip_pwr_domain_suspend+0x74>  // b.any
   5362c:	940019dc 	bl	59d9c <rockchip_soc_sys_pwr_dm_suspend>
   53630:	39400660 	ldrb	w0, [x19, #1]
   53634:	7100081f 	cmp	w0, #0x2
   53638:	54000041 	b.ne	53640 <rockchip_pwr_domain_suspend+0x40>  // b.any
   5363c:	97fffed4 	bl	5318c <plat_cci_disable>
   53640:	39400a60 	ldrb	w0, [x19, #2]
   53644:	7100081f 	cmp	w0, #0x2
   53648:	540001a0 	b.eq	5367c <rockchip_pwr_domain_suspend+0x7c>  // b.none
   5364c:	39400661 	ldrb	w1, [x19, #1]
   53650:	52800020 	mov	w0, #0x1                   	// #1
   53654:	940017f0 	bl	59614 <rockchip_soc_hlvl_pwr_dm_suspend>
   53658:	3100041f 	cmn	w0, #0x1
   5365c:	54000100 	b.eq	5367c <rockchip_pwr_domain_suspend+0x7c>  // b.none
   53660:	39400a61 	ldrb	w1, [x19, #2]
   53664:	52800040 	mov	w0, #0x2                   	// #2
   53668:	f9400bf3 	ldr	x19, [sp, #16]
   5366c:	a8c27bfd 	ldp	x29, x30, [sp], #32
   53670:	140017e9 	b	59614 <rockchip_soc_hlvl_pwr_dm_suspend>
   53674:	940017c8 	bl	59594 <rockchip_soc_cores_pwr_dm_suspend>
   53678:	17ffffee 	b	53630 <rockchip_pwr_domain_suspend+0x30>
   5367c:	f9400bf3 	ldr	x19, [sp, #16]
   53680:	a8c27bfd 	ldp	x29, x30, [sp], #32
   53684:	d65f03c0 	ret

0000000000053688 <rockchip_pwr_domain_on_finish>:
   53688:	a9be7bfd 	stp	x29, x30, [sp, #-32]!
   5368c:	910003fd 	mov	x29, sp
   53690:	f9000bf3 	str	x19, [sp, #16]
   53694:	aa0003f3 	mov	x19, x0
   53698:	39400401 	ldrb	w1, [x0, #1]
   5369c:	52800020 	mov	w0, #0x1                   	// #1
   536a0:	940017f3 	bl	5966c <rockchip_soc_hlvl_pwr_dm_on_finish>
   536a4:	3100041f 	cmn	w0, #0x1
   536a8:	54000080 	b.eq	536b8 <rockchip_pwr_domain_on_finish+0x30>  // b.none
   536ac:	39400a61 	ldrb	w1, [x19, #2]
   536b0:	52800040 	mov	w0, #0x2                   	// #2
   536b4:	940017ee 	bl	5966c <rockchip_soc_hlvl_pwr_dm_on_finish>
   536b8:	940017e3 	bl	59644 <rockchip_soc_cores_pwr_dm_on_finish>
   536bc:	39400660 	ldrb	w0, [x19, #1]
   536c0:	7100081f 	cmp	w0, #0x2
   536c4:	54000041 	b.ne	536cc <rockchip_pwr_domain_on_finish+0x44>  // b.any
   536c8:	97fffeae 	bl	53180 <plat_cci_enable>
   536cc:	9400005f 	bl	53848 <plat_rockchip_gic_pcpu_init>
   536d0:	f9400bf3 	ldr	x19, [sp, #16]
   536d4:	a8c27bfd 	ldp	x29, x30, [sp], #32
   536d8:	14000052 	b	53820 <plat_rockchip_gic_cpuif_enable>

00000000000536dc <rockchip_pwr_domain_suspend_finish>:
   536dc:	a9be7bfd 	stp	x29, x30, [sp, #-32]!
   536e0:	910003fd 	mov	x29, sp
   536e4:	a90153f3 	stp	x19, x20, [sp, #16]
   536e8:	39400014 	ldrb	w20, [x0]
   536ec:	71000a9f 	cmp	w20, #0x2
   536f0:	540002e1 	b.ne	5374c <rockchip_pwr_domain_suspend_finish+0x70>  // b.any
   536f4:	aa0003f3 	mov	x19, x0
   536f8:	39400800 	ldrb	w0, [x0, #2]
   536fc:	7100081f 	cmp	w0, #0x2
   53700:	54000180 	b.eq	53730 <rockchip_pwr_domain_suspend_finish+0x54>  // b.none
   53704:	39400661 	ldrb	w1, [x19, #1]
   53708:	52800020 	mov	w0, #0x1                   	// #1
   5370c:	940017e5 	bl	596a0 <rockchip_soc_hlvl_pwr_dm_resume>
   53710:	3100041f 	cmn	w0, #0x1
   53714:	54000080 	b.eq	53724 <rockchip_pwr_domain_suspend_finish+0x48>  // b.none
   53718:	39400a61 	ldrb	w1, [x19, #2]
   5371c:	2a1403e0 	mov	w0, w20
   53720:	940017e0 	bl	596a0 <rockchip_soc_hlvl_pwr_dm_resume>
   53724:	940017de 	bl	5969c <rockchip_soc_cores_pwr_dm_resume>
   53728:	9400003e 	bl	53820 <plat_rockchip_gic_cpuif_enable>
   5372c:	14000002 	b	53734 <rockchip_pwr_domain_suspend_finish+0x58>
   53730:	94001f1f 	bl	5b3ac <rockchip_soc_sys_pwr_dm_resume>
   53734:	39400660 	ldrb	w0, [x19, #1]
   53738:	7100081f 	cmp	w0, #0x2
   5373c:	54000081 	b.ne	5374c <rockchip_pwr_domain_suspend_finish+0x70>  // b.any
   53740:	a94153f3 	ldp	x19, x20, [sp, #16]
   53744:	a8c27bfd 	ldp	x29, x30, [sp], #32
   53748:	17fffe8e 	b	53180 <plat_cci_enable>
   5374c:	a94153f3 	ldp	x19, x20, [sp, #16]
   53750:	a8c27bfd 	ldp	x29, x30, [sp], #32
   53754:	d65f03c0 	ret

0000000000053758 <rockchip_system_reset>:
   53758:	a9bf7bfd 	stp	x29, x30, [sp, #-16]!
   5375c:	910003fd 	mov	x29, sp
   53760:	940022a6 	bl	5c1f8 <rockchip_soc_soft_reset>

0000000000053764 <rockchip_system_poweroff>:
   53764:	a9bf7bfd 	stp	x29, x30, [sp, #-16]!
   53768:	910003fd 	mov	x29, sp
   5376c:	940022b1 	bl	5c230 <rockchip_soc_system_off>

0000000000053770 <rockchip_soc_cores_pd_pwr_dn_wfi>:
   53770:	a9bf7bfd 	stp	x29, x30, [sp, #-16]!
   53774:	910003fd 	mov	x29, sp
   53778:	94002a0d 	bl	5dfac <psci_power_down_wfi>

000000000005377c <rockchip_soc_sys_pd_pwr_dn_wfi>:
   5377c:	a9bf7bfd 	stp	x29, x30, [sp, #-16]!
   53780:	910003fd 	mov	x29, sp
   53784:	94002a0a 	bl	5dfac <psci_power_down_wfi>

0000000000053788 <rockchip_pd_pwr_down_wfi>:
   53788:	a9bf7bfd 	stp	x29, x30, [sp, #-16]!
   5378c:	910003fd 	mov	x29, sp
   53790:	39400801 	ldrb	w1, [x0, #2]
   53794:	7100083f 	cmp	w1, #0x2
   53798:	54000041 	b.ne	537a0 <rockchip_pd_pwr_down_wfi+0x18>  // b.any
   5379c:	97fffff8 	bl	5377c <rockchip_soc_sys_pd_pwr_dn_wfi>
   537a0:	97fffff4 	bl	53770 <rockchip_soc_cores_pd_pwr_dn_wfi>

00000000000537a4 <plat_setup_psci_ops>:
   537a4:	90000062 	adrp	x2, 5f000 <fdt_ro_probe_+0x20>
   537a8:	912a6042 	add	x2, x2, #0xa98
   537ac:	f9000022 	str	x2, [x1]
   537b0:	f0000081 	adrp	x1, 66000 <psci_cpu_pd_nodes+0x20>
   537b4:	f9009820 	str	x0, [x1, #304]
   537b8:	52800000 	mov	w0, #0x0                   	// #0
   537bc:	d65f03c0 	ret

00000000000537c0 <plat_get_sec_entrypoint>:
   537c0:	f0000080 	adrp	x0, 66000 <psci_cpu_pd_nodes+0x20>
   537c4:	f9409800 	ldr	x0, [x0, #304]
   537c8:	d65f03c0 	ret

00000000000537cc <plat_get_power_domain_tree_desc>:
   537cc:	b0000060 	adrp	x0, 60000 <version_string+0x6c>
   537d0:	910aac00 	add	x0, x0, #0x2ab
   537d4:	d65f03c0 	ret

00000000000537d8 <plat_core_pos_by_mpidr>:
   537d8:	53067c01 	lsr	w1, w0, #6
   537dc:	121e1c21 	and	w1, w1, #0x3fc
   537e0:	0b200020 	add	w0, w1, w0, uxtb
   537e4:	7100141f 	cmp	w0, #0x5
   537e8:	5a9f9000 	csinv	w0, w0, wzr, ls  // ls = plast
   537ec:	d65f03c0 	ret

00000000000537f0 <plat_rockchip_mpidr_to_core_pos>:
   537f0:	17fffffa 	b	537d8 <plat_core_pos_by_mpidr>

00000000000537f4 <plat_rockchip_gic_driver_init>:
   537f4:	90000060 	adrp	x0, 5f000 <fdt_ro_probe_+0x20>
   537f8:	912d0000 	add	x0, x0, #0xb40
   537fc:	17fff4b2 	b	50ac4 <gicv3_driver_init>

0000000000053800 <plat_rockchip_gic_init>:
   53800:	a9bf7bfd 	stp	x29, x30, [sp, #-16]!
   53804:	910003fd 	mov	x29, sp
   53808:	97fff4ca 	bl	50b30 <gicv3_distif_init>
   5380c:	940029ff 	bl	5e008 <plat_my_core_pos>
   53810:	97fff4e9 	bl	50bb4 <gicv3_rdistif_init>
   53814:	940029fd 	bl	5e008 <plat_my_core_pos>
   53818:	a8c17bfd 	ldp	x29, x30, [sp], #16
   5381c:	17fff50a 	b	50c44 <gicv3_cpuif_enable>

0000000000053820 <plat_rockchip_gic_cpuif_enable>:
   53820:	a9bf7bfd 	stp	x29, x30, [sp, #-16]!
   53824:	910003fd 	mov	x29, sp
   53828:	940029f8 	bl	5e008 <plat_my_core_pos>
   5382c:	a8c17bfd 	ldp	x29, x30, [sp], #16
   53830:	17fff505 	b	50c44 <gicv3_cpuif_enable>

0000000000053834 <plat_rockchip_gic_cpuif_disable>:
   53834:	a9bf7bfd 	stp	x29, x30, [sp, #-16]!
   53838:	910003fd 	mov	x29, sp
   5383c:	940029f3 	bl	5e008 <plat_my_core_pos>
   53840:	a8c17bfd 	ldp	x29, x30, [sp], #16
   53844:	17fff522 	b	50ccc <gicv3_cpuif_disable>

0000000000053848 <plat_rockchip_gic_pcpu_init>:
   53848:	a9bf7bfd 	stp	x29, x30, [sp, #-16]!
   5384c:	910003fd 	mov	x29, sp
   53850:	940029ee 	bl	5e008 <plat_my_core_pos>
   53854:	a8c17bfd 	ldp	x29, x30, [sp], #16
   53858:	17fff4d7 	b	50bb4 <gicv3_rdistif_init>

000000000005385c <sip_smc_handler>:
   5385c:	aa0603e8 	mov	x8, x6
   53860:	370000a7 	tbnz	w7, #0, 53874 <sip_smc_handler+0x18>
   53864:	92800000 	mov	x0, #0xffffffffffffffff    	// #-1
   53868:	f9000100 	str	x0, [x8]
   5386c:	aa0803e0 	mov	x0, x8
   53870:	d65f03c0 	ret
   53874:	529fe02a 	mov	w10, #0xff01                	// #65281
   53878:	72b0400a 	movk	w10, #0x8200, lsl #16
   5387c:	6b0a001f 	cmp	w0, w10
   53880:	54000140 	b.eq	538a8 <sip_smc_handler+0x4c>  // b.none
   53884:	1100094a 	add	w10, w10, #0x2
   53888:	6b0a001f 	cmp	w0, w10
   5388c:	54000260 	b.eq	538d8 <sip_smc_handler+0x7c>  // b.none
   53890:	529fe00a 	mov	w10, #0xff00                	// #65280
   53894:	72b0400a 	movk	w10, #0x8200, lsl #16
   53898:	6b0a001f 	cmp	w0, w10
   5389c:	54000241 	b.ne	538e4 <sip_smc_handler+0x88>  // b.any
   538a0:	d2800060 	mov	x0, #0x3                   	// #3
   538a4:	17fffff1 	b	53868 <sip_smc_handler+0xc>
   538a8:	d28e9dc0 	mov	x0, #0x74ee                	// #29934
   538ac:	f2ae4f60 	movk	x0, #0x727b, lsl #16
   538b0:	f9000cc0 	str	x0, [x6, #24]
   538b4:	d281b6e0 	mov	x0, #0xdb7                 	// #3511
   538b8:	f2b111e0 	movk	x0, #0x888f, lsl #16
   538bc:	f90008c0 	str	x0, [x6, #16]
   538c0:	d28627c0 	mov	x0, #0x313e                	// #12606
   538c4:	f2a23cc0 	movk	x0, #0x11e6, lsl #16
   538c8:	f90004c0 	str	x0, [x6, #8]
   538cc:	d298fc40 	mov	x0, #0xc7e2                	// #51170
   538d0:	f2bd0de0 	movk	x0, #0xe86f, lsl #16
   538d4:	17ffffe5 	b	53868 <sip_smc_handler+0xc>
   538d8:	d2800020 	mov	x0, #0x1                   	// #1
   538dc:	a90000df 	stp	xzr, x0, [x6]
   538e0:	17ffffe3 	b	5386c <sip_smc_handler+0x10>
   538e4:	140024d4 	b	5cc34 <rockchip_plat_sip_handler>

00000000000538e8 <get_rdlat_adj>:
   538e8:	71000c1f 	cmp	w0, #0x3
   538ec:	54000180 	b.eq	5391c <get_rdlat_adj+0x34>  // b.none
   538f0:	7100181f 	cmp	w0, #0x6
   538f4:	540001c0 	b.eq	5392c <get_rdlat_adj+0x44>  // b.none
   538f8:	90000060 	adrp	x0, 5f000 <fdt_ro_probe_+0x20>
   538fc:	91395000 	add	x0, x0, #0xe54
   53900:	52800102 	mov	w2, #0x8                   	// #8
   53904:	8b225002 	add	x2, x0, w2, uxtw #4
   53908:	b9400003 	ldr	w3, [x0]
   5390c:	6b01007f 	cmp	w3, w1
   53910:	54000161 	b.ne	5393c <get_rdlat_adj+0x54>  // b.any
   53914:	b9400400 	ldr	w0, [x0, #4]
   53918:	d65f03c0 	ret
   5391c:	90000060 	adrp	x0, 5f000 <fdt_ro_probe_+0x20>
   53920:	528000c2 	mov	w2, #0x6                   	// #6
   53924:	9131a000 	add	x0, x0, #0xc68
   53928:	17fffff7 	b	53904 <get_rdlat_adj+0x1c>
   5392c:	90000060 	adrp	x0, 5f000 <fdt_ro_probe_+0x20>
   53930:	52800122 	mov	w2, #0x9                   	// #9
   53934:	91371000 	add	x0, x0, #0xdc4
   53938:	17fffff3 	b	53904 <get_rdlat_adj+0x1c>
   5393c:	91004000 	add	x0, x0, #0x10
   53940:	eb02001f 	cmp	x0, x2
   53944:	54fffe21 	b.ne	53908 <get_rdlat_adj+0x20>  // b.any
   53948:	52801fe0 	mov	w0, #0xff                  	// #255
   5394c:	17fffff3 	b	53918 <get_rdlat_adj+0x30>

0000000000053950 <get_wrlat_adj>:
   53950:	71000c1f 	cmp	w0, #0x3
   53954:	54000180 	b.eq	53984 <get_wrlat_adj+0x34>  // b.none
   53958:	7100181f 	cmp	w0, #0x6
   5395c:	540001c0 	b.eq	53994 <get_wrlat_adj+0x44>  // b.none
   53960:	90000060 	adrp	x0, 5f000 <fdt_ro_probe_+0x20>
   53964:	91395000 	add	x0, x0, #0xe54
   53968:	52800102 	mov	w2, #0x8                   	// #8
   5396c:	8b225002 	add	x2, x0, w2, uxtw #4
   53970:	b9400803 	ldr	w3, [x0, #8]
   53974:	6b01007f 	cmp	w3, w1
   53978:	54000161 	b.ne	539a4 <get_wrlat_adj+0x54>  // b.any
   5397c:	b9400c00 	ldr	w0, [x0, #12]
   53980:	d65f03c0 	ret
   53984:	90000060 	adrp	x0, 5f000 <fdt_ro_probe_+0x20>
   53988:	528000c2 	mov	w2, #0x6                   	// #6
   5398c:	9131a000 	add	x0, x0, #0xc68
   53990:	17fffff7 	b	5396c <get_wrlat_adj+0x1c>
   53994:	90000060 	adrp	x0, 5f000 <fdt_ro_probe_+0x20>
   53998:	52800122 	mov	w2, #0x9                   	// #9
   5399c:	91371000 	add	x0, x0, #0xdc4
   539a0:	17fffff3 	b	5396c <get_wrlat_adj+0x1c>
   539a4:	91004000 	add	x0, x0, #0x10
   539a8:	eb02001f 	cmp	x0, x2
   539ac:	54fffe21 	b.ne	53970 <get_wrlat_adj+0x20>  // b.any
   539b0:	52801fe0 	mov	w0, #0xff                  	// #255
   539b4:	17fffff3 	b	53980 <get_wrlat_adj+0x30>

00000000000539b8 <get_pi_rdlat_adj>:
   539b8:	b9417403 	ldr	w3, [x0, #372]
   539bc:	52884802 	mov	w2, #0x4240                	// #16960
   539c0:	b9400000 	ldr	w0, [x0]
   539c4:	72a001e2 	movk	w2, #0xf, lsl #16
   539c8:	1ac00842 	udiv	w2, w2, w0
   539cc:	52817700 	mov	w0, #0xbb8                 	// #3000
   539d0:	1ac20801 	udiv	w1, w0, w2
   539d4:	1b028020 	msub	w0, w1, w2, w0
   539d8:	7100001f 	cmp	w0, #0x0
   539dc:	52805780 	mov	w0, #0x2bc                 	// #700
   539e0:	1a810421 	cinc	w1, w1, ne  // ne = any
   539e4:	1ac20804 	udiv	w4, w0, w2
   539e8:	51000421 	sub	w1, w1, #0x1
   539ec:	1b028082 	msub	w2, w4, w2, w0
   539f0:	7100005f 	cmp	w2, #0x0
   539f4:	51000862 	sub	w2, w3, #0x2
   539f8:	1a840484 	cinc	w4, w4, ne  // ne = any
   539fc:	6b010080 	subs	w0, w4, w1
   53a00:	1a9f8000 	csel	w0, w0, wzr, hi  // hi = pmore
   53a04:	6b01005f 	cmp	w2, w1
   53a08:	54000062 	b.cs	53a14 <get_pi_rdlat_adj+0x5c>  // b.hs, b.nlast
   53a0c:	4b040060 	sub	w0, w3, w4
   53a10:	d65f03c0 	ret
   53a14:	4b010061 	sub	w1, w3, w1
   53a18:	4b000020 	sub	w0, w1, w0
   53a1c:	7100043f 	cmp	w1, #0x1
   53a20:	52800041 	mov	w1, #0x2                   	// #2
   53a24:	1a818000 	csel	w0, w0, w1, hi  // hi = pmore
   53a28:	17fffffa 	b	53a10 <get_pi_rdlat_adj+0x58>

0000000000053a2c <gen_rk3399_set_odt>:
   53a2c:	53103c03 	lsl	w3, w0, #16
   53a30:	52840281 	mov	w1, #0x2014                	// #8212
   53a34:	b00000a5 	adrp	x5, 68000 <dist_ctx+0x1e98>
   53a38:	53081c00 	lsl	w0, w0, #24
   53a3c:	9132c0a5 	add	x5, x5, #0xcb0
   53a40:	72bff501 	movk	w1, #0xffa8, lsl #16
   53a44:	52800004 	mov	w4, #0x0                   	// #0
   53a48:	b9403ca2 	ldr	w2, [x5, #60]
   53a4c:	6b04005f 	cmp	w2, w4
   53a50:	54000048 	b.hi	53a58 <gen_rk3399_set_odt+0x2c>  // b.pmore
   53a54:	d65f03c0 	ret
   53a58:	2a0103e6 	mov	w6, w1
   53a5c:	11000484 	add	w4, w4, #0x1
   53a60:	b94000c2 	ldr	w2, [x6]
   53a64:	120d7042 	and	w2, w2, #0xfff8ffff
   53a68:	2a030042 	orr	w2, w2, w3
   53a6c:	b90000c2 	str	w2, [x6]
   53a70:	11080026 	add	w6, w1, #0x200
   53a74:	b94000c2 	ldr	w2, [x6]
   53a78:	120d7042 	and	w2, w2, #0xfff8ffff
   53a7c:	2a030042 	orr	w2, w2, w3
   53a80:	b90000c2 	str	w2, [x6]
   53a84:	11100026 	add	w6, w1, #0x400
   53a88:	b94000c2 	ldr	w2, [x6]
   53a8c:	120d7042 	and	w2, w2, #0xfff8ffff
   53a90:	2a030042 	orr	w2, w2, w3
   53a94:	b90000c2 	str	w2, [x6]
   53a98:	11180026 	add	w6, w1, #0x600
   53a9c:	b94000c2 	ldr	w2, [x6]
   53aa0:	120d7042 	and	w2, w2, #0xfff8ffff
   53aa4:	2a030042 	orr	w2, w2, w3
   53aa8:	b90000c2 	str	w2, [x6]
   53aac:	11001026 	add	w6, w1, #0x4
   53ab0:	b94000c2 	ldr	w2, [x6]
   53ab4:	12057042 	and	w2, w2, #0xf8ffffff
   53ab8:	2a000042 	orr	w2, w2, w0
   53abc:	b90000c2 	str	w2, [x6]
   53ac0:	11081026 	add	w6, w1, #0x204
   53ac4:	b94000c2 	ldr	w2, [x6]
   53ac8:	12057042 	and	w2, w2, #0xf8ffffff
   53acc:	2a000042 	orr	w2, w2, w0
   53ad0:	b90000c2 	str	w2, [x6]
   53ad4:	11101026 	add	w6, w1, #0x404
   53ad8:	b94000c2 	ldr	w2, [x6]
   53adc:	12057042 	and	w2, w2, #0xf8ffffff
   53ae0:	2a000042 	orr	w2, w2, w0
   53ae4:	b90000c2 	str	w2, [x6]
   53ae8:	11181026 	add	w6, w1, #0x604
   53aec:	11402021 	add	w1, w1, #0x8, lsl #12
   53af0:	b94000c2 	ldr	w2, [x6]
   53af4:	12057042 	and	w2, w2, #0xf8ffffff
   53af8:	2a000042 	orr	w2, w2, w0
   53afc:	b90000c2 	str	w2, [x6]
   53b00:	17ffffd2 	b	53a48 <gen_rk3399_set_odt+0x1c>

0000000000053b04 <to_get_clk_index>:
   53b04:	90000063 	adrp	x3, 5f000 <fdt_ro_probe_+0x20>
   53b08:	2a0003e2 	mov	w2, w0
   53b0c:	91332063 	add	x3, x3, #0xcc8
   53b10:	d2800001 	mov	x1, #0x0                   	// #0
   53b14:	d2800384 	mov	x4, #0x1c                  	// #28
   53b18:	9b047c25 	mul	x5, x1, x4
   53b1c:	2a0103e0 	mov	w0, w1
   53b20:	b86368a5 	ldr	w5, [x5, x3]
   53b24:	6b0200bf 	cmp	w5, w2
   53b28:	540000a9 	b.ls	53b3c <to_get_clk_index+0x38>  // b.plast
   53b2c:	91000421 	add	x1, x1, #0x1
   53b30:	f100243f 	cmp	x1, #0x9
   53b34:	54ffff21 	b.ne	53b18 <to_get_clk_index+0x14>  // b.any
   53b38:	52800100 	mov	w0, #0x8                   	// #8
   53b3c:	d65f03c0 	ret

0000000000053b40 <get_pi_wrlat.isra.0.part.0>:
   53b40:	b9400000 	ldr	w0, [x0]
   53b44:	7100341f 	cmp	w0, #0xd
   53b48:	54000148 	b.hi	53b70 <get_pi_wrlat.isra.0.part.0+0x30>  // b.pmore
   53b4c:	7100241f 	cmp	w0, #0x9
   53b50:	54000148 	b.hi	53b78 <get_pi_wrlat.isra.0.part.0+0x38>  // b.pmore
   53b54:	54000160 	b.eq	53b80 <get_pi_wrlat.isra.0.part.0+0x40>  // b.none
   53b58:	7100201f 	cmp	w0, #0x8
   53b5c:	54000160 	b.eq	53b88 <get_pi_wrlat.isra.0.part.0+0x48>  // b.none
   53b60:	7100181f 	cmp	w0, #0x6
   53b64:	52800060 	mov	w0, #0x3                   	// #3
   53b68:	1a9f0400 	csinc	w0, w0, wzr, eq  // eq = none
   53b6c:	d65f03c0 	ret
   53b70:	52800100 	mov	w0, #0x8                   	// #8
   53b74:	17fffffe 	b	53b6c <get_pi_wrlat.isra.0.part.0+0x2c>
   53b78:	528000c0 	mov	w0, #0x6                   	// #6
   53b7c:	17fffffc 	b	53b6c <get_pi_wrlat.isra.0.part.0+0x2c>
   53b80:	528000a0 	mov	w0, #0x5                   	// #5
   53b84:	17fffffa 	b	53b6c <get_pi_wrlat.isra.0.part.0+0x2c>
   53b88:	52800080 	mov	w0, #0x4                   	// #4
   53b8c:	17fffff8 	b	53b6c <get_pi_wrlat.isra.0.part.0+0x2c>

0000000000053b90 <get_pi_todtoff_min.isra.0>:
   53b90:	7100183f 	cmp	w1, #0x6
   53b94:	54000180 	b.eq	53bc4 <get_pi_todtoff_min.isra.0+0x34>  // b.none
   53b98:	71001c3f 	cmp	w1, #0x7
   53b9c:	5280bb81 	mov	w1, #0x5dc                 	// #1500
   53ba0:	1a9f0022 	csel	w2, w1, wzr, eq  // eq = none
   53ba4:	52884801 	mov	w1, #0x4240                	// #16960
   53ba8:	72a001e1 	movk	w1, #0xf, lsl #16
   53bac:	1ac00821 	udiv	w1, w1, w0
   53bb0:	1ac10840 	udiv	w0, w2, w1
   53bb4:	1b018801 	msub	w1, w0, w1, w2
   53bb8:	7100003f 	cmp	w1, #0x0
   53bbc:	1a800400 	cinc	w0, w0, ne  // ne = any
   53bc0:	d65f03c0 	ret
   53bc4:	52813882 	mov	w2, #0x9c4                 	// #2500
   53bc8:	17fffff7 	b	53ba4 <get_pi_todtoff_min.isra.0+0x14>

0000000000053bcc <get_pi_todtoff_max.isra.0>:
   53bcc:	51001821 	sub	w1, w1, #0x6
   53bd0:	7100083f 	cmp	w1, #0x2
   53bd4:	5281b581 	mov	w1, #0xdac                 	// #3500
   53bd8:	1a9f3022 	csel	w2, w1, wzr, cc  // cc = lo, ul, last
   53bdc:	52884801 	mov	w1, #0x4240                	// #16960
   53be0:	72a001e1 	movk	w1, #0xf, lsl #16
   53be4:	1ac00821 	udiv	w1, w1, w0
   53be8:	1ac10840 	udiv	w0, w2, w1
   53bec:	1b018801 	msub	w1, w0, w1, w2
   53bf0:	7100003f 	cmp	w1, #0x0
   53bf4:	1a800400 	cinc	w0, w0, ne  // ne = any
   53bf8:	d65f03c0 	ret

0000000000053bfc <get_pi_tdfi_phy_rdlat.isra.0>:
   53bfc:	b9400003 	ldr	w3, [x0]
   53c00:	52884802 	mov	w2, #0x4240                	// #16960
   53c04:	72a001e2 	movk	w2, #0xf, lsl #16
   53c08:	52817704 	mov	w4, #0xbb8                 	// #3000
   53c0c:	b9417400 	ldr	w0, [x0, #372]
   53c10:	1ac30842 	udiv	w2, w2, w3
   53c14:	51000800 	sub	w0, w0, #0x2
   53c18:	1ac20883 	udiv	w3, w4, w2
   53c1c:	1b029064 	msub	w4, w3, w2, w4
   53c20:	7100009f 	cmp	w4, #0x0
   53c24:	1a830465 	cinc	w5, w3, ne  // ne = any
   53c28:	510004a5 	sub	w5, w5, #0x1
   53c2c:	6b0000bf 	cmp	w5, w0
   53c30:	54000248 	b.hi	53c78 <get_pi_tdfi_phy_rdlat.isra.0+0x7c>  // b.pmore
   53c34:	7100009f 	cmp	w4, #0x0
   53c38:	1a830463 	cinc	w3, w3, ne  // ne = any
   53c3c:	11003c60 	add	w0, w3, #0xf
   53c40:	71000c3f 	cmp	w1, #0x3
   53c44:	540001e0 	b.eq	53c80 <get_pi_tdfi_phy_rdlat.isra.0+0x84>  // b.none
   53c48:	71001c3f 	cmp	w1, #0x7
   53c4c:	54000340 	b.eq	53cb4 <get_pi_tdfi_phy_rdlat.isra.0+0xb8>  // b.none
   53c50:	7100183f 	cmp	w1, #0x6
   53c54:	54000340 	b.eq	53cbc <get_pi_tdfi_phy_rdlat.isra.0+0xc0>  // b.none
   53c58:	a9bf7bfd 	stp	x29, x30, [sp, #-16]!
   53c5c:	b0000060 	adrp	x0, 60000 <version_string+0x6c>
   53c60:	9104dc00 	add	x0, x0, #0x137
   53c64:	910003fd 	mov	x29, sp
   53c68:	9400248a 	bl	5ce90 <tf_log>
   53c6c:	52800000 	mov	w0, #0x0                   	// #0
   53c70:	a8c17bfd 	ldp	x29, x30, [sp], #16
   53c74:	d65f03c0 	ret
   53c78:	52800003 	mov	w3, #0x0                   	// #0
   53c7c:	17fffff0 	b	53c3c <get_pi_tdfi_phy_rdlat.isra.0+0x40>
   53c80:	52800003 	mov	w3, #0x0                   	// #0
   53c84:	112a3064 	add	w4, w3, #0xa8c
   53c88:	1ac20881 	udiv	w1, w4, w2
   53c8c:	1b029024 	msub	w4, w1, w2, w4
   53c90:	7100009f 	cmp	w4, #0x0
   53c94:	1ac20864 	udiv	w4, w3, w2
   53c98:	1a810421 	cinc	w1, w1, ne  // ne = any
   53c9c:	1b028c82 	msub	w2, w4, w2, w3
   53ca0:	7100005f 	cmp	w2, #0x0
   53ca4:	1a840484 	cinc	w4, w4, ne  // ne = any
   53ca8:	0b040021 	add	w1, w1, w4
   53cac:	0b000020 	add	w0, w1, w0
   53cb0:	d65f03c0 	ret
   53cb4:	5281c203 	mov	w3, #0xe10                 	// #3600
   53cb8:	17fffff3 	b	53c84 <get_pi_tdfi_phy_rdlat.isra.0+0x88>
   53cbc:	5282af83 	mov	w3, #0x157c                	// #5500
   53cc0:	17fffff1 	b	53c84 <get_pi_tdfi_phy_rdlat.isra.0+0x88>

0000000000053cc4 <get_pi_wrlat_adj.constprop.0>:
   53cc4:	b00000a1 	adrp	x1, 68000 <dist_ctx+0x1e98>
   53cc8:	b94ce421 	ldr	w1, [x1, #3300]
   53ccc:	7100183f 	cmp	w1, #0x6
   53cd0:	54000101 	b.ne	53cf0 <get_pi_wrlat_adj.constprop.0+0x2c>  // b.any
   53cd4:	a9bf7bfd 	stp	x29, x30, [sp, #-16]!
   53cd8:	9105d000 	add	x0, x0, #0x174
   53cdc:	910003fd 	mov	x29, sp
   53ce0:	97ffff98 	bl	53b40 <get_pi_wrlat.isra.0.part.0>
   53ce4:	51000400 	sub	w0, w0, #0x1
   53ce8:	a8c17bfd 	ldp	x29, x30, [sp], #16
   53cec:	d65f03c0 	ret
   53cf0:	52800020 	mov	w0, #0x1                   	// #1
   53cf4:	51000400 	sub	w0, w0, #0x1
   53cf8:	d65f03c0 	ret

0000000000053cfc <prepare_ddr_timing>:
   53cfc:	a9a17bfd 	stp	x29, x30, [sp, #-496]!
   53d00:	b00000a1 	adrp	x1, 68000 <dist_ctx+0x1e98>
   53d04:	7104ac1f 	cmp	w0, #0x12b
   53d08:	910003fd 	mov	x29, sp
   53d0c:	a90153f3 	stp	x19, x20, [sp, #16]
   53d10:	9132c033 	add	x19, x1, #0xcb0
   53d14:	aa0103e7 	mov	x7, x1
   53d18:	a9025bf5 	stp	x21, x22, [sp, #32]
   53d1c:	2a0003f5 	mov	w21, w0
   53d20:	a90363f7 	stp	x23, x24, [sp, #48]
   53d24:	a9046bf9 	stp	x25, x26, [sp, #64]
   53d28:	a90573fb 	stp	x27, x28, [sp, #80]
   53d2c:	b9003a60 	str	w0, [x19, #56]
   53d30:	1a9f87e0 	cset	w0, ls  // ls = plast
   53d34:	b9004a60 	str	w0, [x19, #72]
   53d38:	b9404e60 	ldr	w0, [x19, #76]
   53d3c:	7100041f 	cmp	w0, #0x1
   53d40:	54000041 	b.ne	53d48 <prepare_ddr_timing+0x4c>  // b.any
   53d44:	97ffff3a 	bl	53a2c <gen_rk3399_set_odt>
   53d48:	b94cb0f4 	ldr	w20, [x7, #3248]
   53d4c:	9101c3e1 	add	x1, sp, #0x70
   53d50:	91005260 	add	x0, x19, #0x14
   53d54:	52800016 	mov	w22, #0x0                   	// #0
   53d58:	11000694 	add	w20, w20, #0x1
   53d5c:	52800017 	mov	w23, #0x0                   	// #0
   53d60:	12000294 	and	w20, w20, #0x1
   53d64:	94000ce7 	bl	57100 <dram_get_parameter>
   53d68:	34007754 	cbz	w20, 54c50 <prepare_ddr_timing+0xf54>
   53d6c:	52800498 	mov	w24, #0x24                  	// #36
   53d70:	52801119 	mov	w25, #0x88                  	// #136
   53d74:	52801e1a 	mov	w26, #0xf0                  	// #240
   53d78:	5280059b 	mov	w27, #0x2c                  	// #44
   53d7c:	5295cd5c 	mov	w28, #0xae6a                	// #44650
   53d80:	72bff518 	movk	w24, #0xffa8, lsl #16
   53d84:	72bff519 	movk	w25, #0xffa8, lsl #16
   53d88:	72bff51a 	movk	w26, #0xffa8, lsl #16
   53d8c:	72bff51b 	movk	w27, #0xffa8, lsl #16
   53d90:	72a0015c 	movk	w28, #0xa, lsl #16
   53d94:	b9403e60 	ldr	w0, [x19, #60]
   53d98:	6b0002ff 	cmp	w23, w0
   53d9c:	54007703 	b.cc	54c7c <prepare_ddr_timing+0xf80>  // b.lo, b.ul, b.last
   53da0:	52813a16 	mov	w22, #0x9d0                 	// #2512
   53da4:	52884819 	mov	w25, #0x4240                	// #16960
   53da8:	910793f8 	add	x24, sp, #0x1e4
   53dac:	72bff516 	movk	w22, #0xffa8, lsl #16
   53db0:	52800017 	mov	w23, #0x0                   	// #0
   53db4:	72a001f9 	movk	w25, #0xf, lsl #16
   53db8:	b9403e60 	ldr	w0, [x19, #60]
   53dbc:	6b0002ff 	cmp	w23, w0
   53dc0:	54006c02 	b.cs	54b40 <prepare_ddr_timing+0xe44>  // b.hs, b.nlast
   53dc4:	b94093e0 	ldr	w0, [sp, #144]
   53dc8:	510702c1 	sub	w1, w22, #0x1c0
   53dcc:	531e7402 	lsl	w2, w0, #2
   53dd0:	b9000022 	str	w2, [x1]
   53dd4:	5106f2c2 	sub	w2, w22, #0x1bc
   53dd8:	b9400041 	ldr	w1, [x2]
   53ddc:	12103c21 	and	w1, w1, #0xffff0000
   53de0:	2a000421 	orr	w1, w1, w0, lsl #1
   53de4:	b9000041 	str	w1, [x2]
   53de8:	510682c2 	sub	w2, w22, #0x1a0
   53dec:	b9400041 	ldr	w1, [x2]
   53df0:	12103c21 	and	w1, w1, #0xffff0000
   53df4:	2a000420 	orr	w0, w1, w0, lsl #1
   53df8:	b9000040 	str	w0, [x2]
   53dfc:	b9403666 	ldr	w6, [x19, #52]
   53e00:	71001cdf 	cmp	w6, #0x7
   53e04:	1a9f17e0 	cset	w0, eq  // eq = none
   53e08:	531f7805 	lsl	w5, w0, #1
   53e0c:	9101c3e0 	add	x0, sp, #0x70
   53e10:	97fffeea 	bl	539b8 <get_pi_rdlat_adj>
   53e14:	b941effa 	ldr	w26, [sp, #492]
   53e18:	0b050000 	add	w0, w0, w5
   53e1c:	2a0603e1 	mov	w1, w6
   53e20:	53017f5a 	lsr	w26, w26, #1
   53e24:	11000b5a 	add	w26, w26, #0x2
   53e28:	0b00035a 	add	w26, w26, w0
   53e2c:	9101c3e0 	add	x0, sp, #0x70
   53e30:	97ffff73 	bl	53bfc <get_pi_tdfi_phy_rdlat.isra.0>
   53e34:	0b1a0000 	add	w0, w0, w26
   53e38:	5104a2c2 	sub	w2, w22, #0x128
   53e3c:	b9400041 	ldr	w1, [x2]
   53e40:	12105c21 	and	w1, w1, #0xffff00ff
   53e44:	2a002021 	orr	w1, w1, w0, lsl #8
   53e48:	b9000041 	str	w1, [x2]
   53e4c:	b9403661 	ldr	w1, [x19, #52]
   53e50:	7100183f 	cmp	w1, #0x6
   53e54:	54000101 	b.ne	53e74 <prepare_ddr_timing+0x178>  // b.any
   53e58:	aa1803e0 	mov	x0, x24
   53e5c:	97ffff39 	bl	53b40 <get_pi_wrlat.isra.0.part.0>
   53e60:	510492c2 	sub	w2, w22, #0x124
   53e64:	b9400041 	ldr	w1, [x2]
   53e68:	12036821 	and	w1, w1, #0xe0ffffff
   53e6c:	2a006021 	orr	w1, w1, w0, lsl #24
   53e70:	b9000041 	str	w1, [x2]
   53e74:	510482c2 	sub	w2, w22, #0x120
   53e78:	b941e7e3 	ldr	w3, [sp, #484]
   53e7c:	b94093e5 	ldr	w5, [sp, #144]
   53e80:	b940cfe4 	ldr	w4, [sp, #204]
   53e84:	b9400041 	ldr	w1, [x2]
   53e88:	b94073e6 	ldr	w6, [sp, #112]
   53e8c:	121a6421 	and	w1, w1, #0xffffffc0
   53e90:	b9000041 	str	w1, [x2]
   53e94:	b9400041 	ldr	w1, [x2]
   53e98:	12116021 	and	w1, w1, #0xffff80ff
   53e9c:	2a032421 	orr	w1, w1, w3, lsl #9
   53ea0:	b9000041 	str	w1, [x2]
   53ea4:	510452c2 	sub	w2, w22, #0x114
   53ea8:	b9400041 	ldr	w1, [x2]
   53eac:	12003c21 	and	w1, w1, #0xffff
   53eb0:	2a054021 	orr	w1, w1, w5, lsl #16
   53eb4:	b9000041 	str	w1, [x2]
   53eb8:	b9400041 	ldr	w1, [x2]
   53ebc:	12165421 	and	w1, w1, #0xfffffc00
   53ec0:	2a040021 	orr	w1, w1, w4
   53ec4:	b9000041 	str	w1, [x2]
   53ec8:	b9403661 	ldr	w1, [x19, #52]
   53ecc:	7100183f 	cmp	w1, #0x6
   53ed0:	54000101 	b.ne	53ef0 <prepare_ddr_timing+0x1f4>  // b.any
   53ed4:	2a0603e0 	mov	w0, w6
   53ed8:	97ffff3d 	bl	53bcc <get_pi_todtoff_max.isra.0>
   53edc:	510312c2 	sub	w2, w22, #0xc4
   53ee0:	b9400041 	ldr	w1, [x2]
   53ee4:	12105c21 	and	w1, w1, #0xffff00ff
   53ee8:	2a002021 	orr	w1, w1, w0, lsl #8
   53eec:	b9000041 	str	w1, [x2]
   53ef0:	b9403661 	ldr	w1, [x19, #52]
   53ef4:	51001822 	sub	w2, w1, #0x6
   53ef8:	7100045f 	cmp	w2, #0x1
   53efc:	5400de28 	b.hi	55ac0 <prepare_ddr_timing+0x1dc4>  // b.pmore
   53f00:	7100183f 	cmp	w1, #0x6
   53f04:	5400dda1 	b.ne	55ab8 <prepare_ddr_timing+0x1dbc>  // b.any
   53f08:	aa1803e0 	mov	x0, x24
   53f0c:	97ffff0d 	bl	53b40 <get_pi_wrlat.isra.0.part.0>
   53f10:	2a0003e4 	mov	w4, w0
   53f14:	2a0603e0 	mov	w0, w6
   53f18:	97ffff2d 	bl	53bcc <get_pi_todtoff_max.isra.0>
   53f1c:	4b000081 	sub	w1, w4, w0
   53f20:	6b04001f 	cmp	w0, w4
   53f24:	1a9f3020 	csel	w0, w1, wzr, cc  // cc = lo, ul, last
   53f28:	5102c2c2 	sub	w2, w22, #0xb0
   53f2c:	b9400041 	ldr	w1, [x2]
   53f30:	12026421 	and	w1, w1, #0xc0ffffff
   53f34:	2a006021 	orr	w1, w1, w0, lsl #24
   53f38:	b9000041 	str	w1, [x2]
   53f3c:	b9403664 	ldr	w4, [x19, #52]
   53f40:	51001881 	sub	w1, w4, #0x6
   53f44:	7100043f 	cmp	w1, #0x1
   53f48:	5400dc28 	b.hi	55acc <prepare_ddr_timing+0x1dd0>  // b.pmore
   53f4c:	2a0403e1 	mov	w1, w4
   53f50:	2a0603e0 	mov	w0, w6
   53f54:	97ffff0f 	bl	53b90 <get_pi_todtoff_min.isra.0>
   53f58:	51000463 	sub	w3, w3, #0x1
   53f5c:	0b000063 	add	w3, w3, w0
   53f60:	2a0403e1 	mov	w1, w4
   53f64:	2a0603e0 	mov	w0, w6
   53f68:	97ffff19 	bl	53bcc <get_pi_todtoff_max.isra.0>
   53f6c:	6b000061 	subs	w1, w3, w0
   53f70:	1a9f8020 	csel	w0, w1, wzr, hi  // hi = pmore
   53f74:	5102b2c2 	sub	w2, w22, #0xac
   53f78:	b9400041 	ldr	w1, [x2]
   53f7c:	120a6421 	and	w1, w1, #0xffc0ffff
   53f80:	2a004020 	orr	w0, w1, w0, lsl #16
   53f84:	b9000040 	str	w0, [x2]
   53f88:	9101c3e0 	add	x0, sp, #0x70
   53f8c:	97fffe8b 	bl	539b8 <get_pi_rdlat_adj>
   53f90:	5101b2c2 	sub	w2, w22, #0x6c
   53f94:	b9400041 	ldr	w1, [x2]
   53f98:	12005c21 	and	w1, w1, #0xffffff
   53f9c:	2a006020 	orr	w0, w1, w0, lsl #24
   53fa0:	b9000040 	str	w0, [x2]
   53fa4:	9101c3e0 	add	x0, sp, #0x70
   53fa8:	97ffff47 	bl	53cc4 <get_pi_wrlat_adj.constprop.0>
   53fac:	5101a2c2 	sub	w2, w22, #0x68
   53fb0:	b9400041 	ldr	w1, [x2]
   53fb4:	12005c21 	and	w1, w1, #0xffffff
   53fb8:	2a006021 	orr	w1, w1, w0, lsl #24
   53fbc:	b9000041 	str	w1, [x2]
   53fc0:	340000a0 	cbz	w0, 53fd4 <prepare_ddr_timing+0x2d8>
   53fc4:	51000401 	sub	w1, w0, #0x1
   53fc8:	51001402 	sub	w2, w0, #0x5
   53fcc:	7100101f 	cmp	w0, #0x4
   53fd0:	1a818040 	csel	w0, w2, w1, hi  // hi = pmore
   53fd4:	510192c2 	sub	w2, w22, #0x64
   53fd8:	110006f7 	add	w23, w23, #0x1
   53fdc:	b9400041 	ldr	w1, [x2]
   53fe0:	12005c21 	and	w1, w1, #0xffffff
   53fe4:	2a006020 	orr	w0, w1, w0, lsl #24
   53fe8:	b9000040 	str	w0, [x2]
   53fec:	1ac60b21 	udiv	w1, w25, w6
   53ff0:	5289c402 	mov	w2, #0x4e20                	// #20000
   53ff4:	1ac10840 	udiv	w0, w2, w1
   53ff8:	1b018802 	msub	w2, w0, w1, w2
   53ffc:	7100005f 	cmp	w2, #0x0
   54000:	1a800400 	cinc	w0, w0, ne  // ne = any
   54004:	11000400 	add	w0, w0, #0x1
   54008:	12000002 	and	w2, w0, #0x1
   5400c:	0b400440 	add	w0, w2, w0, lsr #1
   54010:	510142c2 	sub	w2, w22, #0x50
   54014:	11001403 	add	w3, w0, #0x5
   54018:	11005c00 	add	w0, w0, #0x17
   5401c:	b9400044 	ldr	w4, [x2]
   54020:	12065484 	and	w4, w4, #0xfc00ffff
   54024:	2a034083 	orr	w3, w4, w3, lsl #16
   54028:	b9000043 	str	w3, [x2]
   5402c:	1100c2c4 	add	w4, w22, #0x30
   54030:	b9400043 	ldr	w3, [x2]
   54034:	12165463 	and	w3, w3, #0xfffffc00
   54038:	2a030000 	orr	w0, w0, w3
   5403c:	b9000040 	str	w0, [x2]
   54040:	5100d2c2 	sub	w2, w22, #0x34
   54044:	b9414be3 	ldr	w3, [sp, #328]
   54048:	b9400040 	ldr	w0, [x2]
   5404c:	121b6800 	and	w0, w0, #0xffffffe0
   54050:	2a030000 	orr	w0, w0, w3
   54054:	b9000040 	str	w0, [x2]
   54058:	5280fa02 	mov	w2, #0x7d0                 	// #2000
   5405c:	510052c3 	sub	w3, w22, #0x14
   54060:	1ac10840 	udiv	w0, w2, w1
   54064:	1b018802 	msub	w2, w0, w1, w2
   54068:	7100005f 	cmp	w2, #0x0
   5406c:	b9400062 	ldr	w2, [x3]
   54070:	1a800400 	cinc	w0, w0, ne  // ne = any
   54074:	11001400 	add	w0, w0, #0x5
   54078:	120c6c42 	and	w2, w2, #0xfff0ffff
   5407c:	2a004040 	orr	w0, w2, w0, lsl #16
   54080:	5284e202 	mov	w2, #0x2710                	// #10000
   54084:	b9000060 	str	w0, [x3]
   54088:	1101b2c3 	add	w3, w22, #0x6c
   5408c:	1ac10840 	udiv	w0, w2, w1
   54090:	1b018801 	msub	w1, w0, w1, w2
   54094:	2a1603e2 	mov	w2, w22
   54098:	7100003f 	cmp	w1, #0x0
   5409c:	1a800400 	cinc	w0, w0, ne  // ne = any
   540a0:	710190df 	cmp	w6, #0x64
   540a4:	11002001 	add	w1, w0, #0x8
   540a8:	1a808420 	csinc	w0, w1, w0, hi  // hi = pmore
   540ac:	b9400041 	ldr	w1, [x2]
   540b0:	12026421 	and	w1, w1, #0xc0ffffff
   540b4:	2a006020 	orr	w0, w1, w0, lsl #24
   540b8:	b9000040 	str	w0, [x2]
   540bc:	b94157e0 	ldr	w0, [sp, #340]
   540c0:	110132c2 	add	w2, w22, #0x4c
   540c4:	b9400081 	ldr	w1, [x4]
   540c8:	12103c21 	and	w1, w1, #0xffff0000
   540cc:	2a000021 	orr	w1, w1, w0
   540d0:	b9000081 	str	w1, [x4]
   540d4:	b9400041 	ldr	w1, [x2]
   540d8:	12083c21 	and	w1, w1, #0xff0000ff
   540dc:	2a002021 	orr	w1, w1, w0, lsl #8
   540e0:	b9000041 	str	w1, [x2]
   540e4:	110222c2 	add	w2, w22, #0x88
   540e8:	b9400061 	ldr	w1, [x3]
   540ec:	12103c21 	and	w1, w1, #0xffff0000
   540f0:	2a000021 	orr	w1, w1, w0
   540f4:	b9000061 	str	w1, [x3]
   540f8:	b9400041 	ldr	w1, [x2]
   540fc:	12083c21 	and	w1, w1, #0xff0000ff
   54100:	2a002020 	orr	w0, w1, w0, lsl #8
   54104:	b9000040 	str	w0, [x2]
   54108:	b9415be2 	ldr	w2, [sp, #344]
   5410c:	110142c0 	add	w0, w22, #0x50
   54110:	b9400081 	ldr	w1, [x4]
   54114:	12003c21 	and	w1, w1, #0xffff
   54118:	2a024021 	orr	w1, w1, w2, lsl #16
   5411c:	b9000081 	str	w1, [x4]
   54120:	b9400001 	ldr	w1, [x0]
   54124:	12103c21 	and	w1, w1, #0xffff0000
   54128:	2a020021 	orr	w1, w1, w2
   5412c:	b9000001 	str	w1, [x0]
   54130:	b9400061 	ldr	w1, [x3]
   54134:	12003c21 	and	w1, w1, #0xffff
   54138:	2a024021 	orr	w1, w1, w2, lsl #16
   5413c:	b9000061 	str	w1, [x3]
   54140:	110232c1 	add	w1, w22, #0x8c
   54144:	52800c63 	mov	w3, #0x63                  	// #99
   54148:	b9400020 	ldr	w0, [x1]
   5414c:	12103c00 	and	w0, w0, #0xffff0000
   54150:	2a020000 	orr	w0, w0, w2
   54154:	110282c2 	add	w2, w22, #0xa0
   54158:	b9000020 	str	w0, [x1]
   5415c:	b9400040 	ldr	w0, [x2]
   54160:	12065401 	and	w1, w0, #0xfc00ffff
   54164:	b941c7e0 	ldr	w0, [sp, #452]
   54168:	2a004020 	orr	w0, w1, w0, lsl #16
   5416c:	1102e2c1 	add	w1, w22, #0xb8
   54170:	b9000040 	str	w0, [x2]
   54174:	b9400020 	ldr	w0, [x1]
   54178:	12126402 	and	w2, w0, #0xffffc0ff
   5417c:	b940a3e0 	ldr	w0, [sp, #160]
   54180:	2a002040 	orr	w0, w2, w0, lsl #8
   54184:	b9000020 	str	w0, [x1]
   54188:	b940bbe2 	ldr	w2, [sp, #184]
   5418c:	b9400020 	ldr	w0, [x1]
   54190:	121a6400 	and	w0, w0, #0xffffffc0
   54194:	2a020000 	orr	w0, w0, w2
   54198:	b9000020 	str	w0, [x1]
   5419c:	1102d2c0 	add	w0, w22, #0xb4
   541a0:	b9400001 	ldr	w1, [x0]
   541a4:	12005c22 	and	w2, w1, #0xffffff
   541a8:	b94097e1 	ldr	w1, [sp, #148]
   541ac:	2a016041 	orr	w1, w2, w1, lsl #24
   541b0:	b9000001 	str	w1, [x0]
   541b4:	b9400001 	ldr	w1, [x0]
   541b8:	12085c22 	and	w2, w1, #0xff00ffff
   541bc:	b9409fe1 	ldr	w1, [sp, #156]
   541c0:	2a014041 	orr	w1, w2, w1, lsl #16
   541c4:	b9000001 	str	w1, [x0]
   541c8:	b9400001 	ldr	w1, [x0]
   541cc:	12105c22 	and	w2, w1, #0xffff00ff
   541d0:	b940abe1 	ldr	w1, [sp, #168]
   541d4:	2a012041 	orr	w1, w2, w1, lsl #8
   541d8:	b9000001 	str	w1, [x0]
   541dc:	1102f2c1 	add	w1, w22, #0xbc
   541e0:	b9400020 	ldr	w0, [x1]
   541e4:	12005c02 	and	w2, w0, #0xffffff
   541e8:	b940c7e0 	ldr	w0, [sp, #196]
   541ec:	2a006040 	orr	w0, w2, w0, lsl #24
   541f0:	b9000020 	str	w0, [x1]
   541f4:	b940c3e0 	ldr	w0, [sp, #192]
   541f8:	b9400022 	ldr	w2, [x1]
   541fc:	120f3842 	and	w2, w2, #0xfffe0000
   54200:	1b037c00 	mul	w0, w0, w3
   54204:	52800c83 	mov	w3, #0x64                  	// #100
   54208:	1ac30800 	udiv	w0, w0, w3
   5420c:	2a020000 	orr	w0, w0, w2
   54210:	b9000020 	str	w0, [x1]
   54214:	110302c1 	add	w1, w22, #0xc0
   54218:	b9400020 	ldr	w0, [x1]
   5421c:	120a6402 	and	w2, w0, #0xffc0ffff
   54220:	b94107e0 	ldr	w0, [sp, #260]
   54224:	2a004040 	orr	w0, w2, w0, lsl #16
   54228:	b9000020 	str	w0, [x1]
   5422c:	b940d7e2 	ldr	w2, [sp, #212]
   54230:	b9400020 	ldr	w0, [x1]
   54234:	121c6c00 	and	w0, w0, #0xfffffff0
   54238:	2a020000 	orr	w0, w0, w2
   5423c:	b9000020 	str	w0, [x1]
   54240:	110492c1 	add	w1, w22, #0x124
   54244:	b9400020 	ldr	w0, [x1]
   54248:	12103c00 	and	w0, w0, #0xffff0000
   5424c:	2a050400 	orr	w0, w0, w5, lsl #1
   54250:	b9000020 	str	w0, [x1]
   54254:	52800280 	mov	w0, #0x14                  	// #20
   54258:	1b007ca5 	mul	w5, w5, w0
   5425c:	1104a2c0 	add	w0, w22, #0x128
   54260:	114022d6 	add	w22, w22, #0x8, lsl #12
   54264:	b9400001 	ldr	w1, [x0]
   54268:	b9000005 	str	w5, [x0]
   5426c:	17fffed3 	b	53db8 <prepare_ddr_timing+0xbc>
   54270:	295b1fe4 	ldp	w4, w7, [sp, #216]
   54274:	0b1802ca 	add	w10, w22, w24
   54278:	b940366b 	ldr	w11, [x19, #52]
   5427c:	0b1902c9 	add	w9, w22, w25
   54280:	b94117e6 	ldr	w6, [sp, #276]
   54284:	0b1a02c5 	add	w5, w22, w26
   54288:	b9407fe8 	ldr	w8, [sp, #124]
   5428c:	71000d7f 	cmp	w11, #0x3
   54290:	b94097e0 	ldr	w0, [sp, #148]
   54294:	0b0700cc 	add	w12, w6, w7
   54298:	b94107e1 	ldr	w1, [sp, #260]
   5429c:	54004981 	b.ne	54bcc <prepare_ddr_timing+0xed0>  // b.any
   542a0:	b9403a63 	ldr	w3, [x19, #56]
   542a4:	52807d02 	mov	w2, #0x3e8                 	// #1000
   542a8:	b94103eb 	ldr	w11, [sp, #256]
   542ac:	1b1c7c63 	mul	w3, w3, w28
   542b0:	110f9c63 	add	w3, w3, #0x3e7
   542b4:	1ac20863 	udiv	w3, w3, w2
   542b8:	0b010422 	add	w2, w1, w1, lsl #1
   542bc:	0b0b0042 	add	w2, w2, w11
   542c0:	2a0b2021 	orr	w1, w1, w11, lsl #8
   542c4:	0b0c0042 	add	w2, w2, w12
   542c8:	0b030042 	add	w2, w2, w3
   542cc:	5155fec3 	sub	w3, w22, #0x57f, lsl #12
   542d0:	513ea063 	sub	w3, w3, #0xfa8
   542d4:	b9000142 	str	w2, [x10]
   542d8:	b940ebea 	ldr	w10, [sp, #232]
   542dc:	b9400062 	ldr	w2, [x3]
   542e0:	12103c42 	and	w2, w2, #0xffff0000
   542e4:	2a0a0042 	orr	w2, w2, w10
   542e8:	b9000062 	str	w2, [x3]
   542ec:	b9000121 	str	w1, [x9]
   542f0:	4b000082 	sub	w2, w4, w0
   542f4:	b94000a1 	ldr	w1, [x5]
   542f8:	12003c24 	and	w4, w1, #0xffff
   542fc:	2a024082 	orr	w2, w4, w2, lsl #16
   54300:	b90000a2 	str	w2, [x5]
   54304:	5155fec1 	sub	w1, w22, #0x57f, lsl #12
   54308:	b94087e2 	ldr	w2, [sp, #132]
   5430c:	513fa021 	sub	w1, w1, #0xfe8
   54310:	b941e7e4 	ldr	w4, [sp, #484]
   54314:	b941e3e3 	ldr	w3, [sp, #480]
   54318:	5155fec5 	sub	w5, w22, #0x57f, lsl #12
   5431c:	513e60a5 	sub	w5, w5, #0xf98
   54320:	53185c00 	lsl	w0, w0, #8
   54324:	b9000028 	str	w8, [x1]
   54328:	5155fec1 	sub	w1, w22, #0x57f, lsl #12
   5432c:	513f8021 	sub	w1, w1, #0xfe0
   54330:	b941ebe8 	ldr	w8, [sp, #488]
   54334:	b9000022 	str	w2, [x1]
   54338:	5155fec2 	sub	w2, w22, #0x57f, lsl #12
   5433c:	513e9042 	sub	w2, w2, #0xfa4
   54340:	b9400041 	ldr	w1, [x2]
   54344:	12096021 	and	w1, w1, #0xff80ffff
   54348:	2a044421 	orr	w1, w1, w4, lsl #17
   5434c:	b9000041 	str	w1, [x2]
   54350:	b9400041 	ldr	w1, [x2]
   54354:	12036821 	and	w1, w1, #0xe0ffffff
   54358:	2a086021 	orr	w1, w1, w8, lsl #24
   5435c:	b9000041 	str	w1, [x2]
   54360:	5155fec2 	sub	w2, w22, #0x57f, lsl #12
   54364:	513e8042 	sub	w2, w2, #0xfa0
   54368:	b9400041 	ldr	w1, [x2]
   5436c:	121a6421 	and	w1, w1, #0xffffffc0
   54370:	2a030021 	orr	w1, w1, w3
   54374:	b9000041 	str	w1, [x2]
   54378:	b940b3e1 	ldr	w1, [sp, #176]
   5437c:	b94000a2 	ldr	w2, [x5]
   54380:	53103c23 	lsl	w3, w1, #16
   54384:	b940afe1 	ldr	w1, [sp, #172]
   54388:	12003c42 	and	w2, w2, #0xffff
   5438c:	2a016061 	orr	w1, w3, w1, lsl #24
   54390:	b940c7e3 	ldr	w3, [sp, #196]
   54394:	2a020021 	orr	w1, w1, w2
   54398:	b90000a1 	str	w1, [x5]
   5439c:	b9409be1 	ldr	w1, [sp, #152]
   543a0:	52800085 	mov	w5, #0x4                   	// #4
   543a4:	53103c22 	lsl	w2, w1, #16
   543a8:	b940cbe1 	ldr	w1, [sp, #200]
   543ac:	2a016041 	orr	w1, w2, w1, lsl #24
   543b0:	b940bbe2 	ldr	w2, [sp, #184]
   543b4:	2a022062 	orr	w2, w3, w2, lsl #8
   543b8:	5155fec3 	sub	w3, w22, #0x57f, lsl #12
   543bc:	2a020021 	orr	w1, w1, w2
   543c0:	5155fec2 	sub	w2, w22, #0x57f, lsl #12
   543c4:	513e5042 	sub	w2, w2, #0xf94
   543c8:	513e1063 	sub	w3, w3, #0xf84
   543cc:	b9000041 	str	w1, [x2]
   543d0:	b940abe1 	ldr	w1, [sp, #168]
   543d4:	b9400062 	ldr	w2, [x3]
   543d8:	7100103f 	cmp	w1, #0x4
   543dc:	1a852021 	csel	w1, w1, w5, cs  // cs = hs, nlast
   543e0:	12005c42 	and	w2, w2, #0xffffff
   543e4:	b940a3e5 	ldr	w5, [sp, #160]
   543e8:	2a016041 	orr	w1, w2, w1, lsl #24
   543ec:	b940c3e2 	ldr	w2, [sp, #192]
   543f0:	b9000061 	str	w1, [x3]
   543f4:	5155fec3 	sub	w3, w22, #0x57f, lsl #12
   543f8:	b940efe1 	ldr	w1, [sp, #236]
   543fc:	513de063 	sub	w3, w3, #0xf78
   54400:	2a054000 	orr	w0, w0, w5, lsl #16
   54404:	2a016041 	orr	w1, w2, w1, lsl #24
   54408:	5155fec2 	sub	w2, w22, #0x57f, lsl #12
   5440c:	513df042 	sub	w2, w2, #0xf7c
   54410:	b9000041 	str	w1, [x2]
   54414:	b940f3e1 	ldr	w1, [sp, #240]
   54418:	b9400062 	ldr	w2, [x3]
   5441c:	7100003f 	cmp	w1, #0x0
   54420:	12185c42 	and	w2, w2, #0xffffff00
   54424:	1a9f1421 	csinc	w1, w1, wzr, ne  // ne = any
   54428:	2a020021 	orr	w1, w1, w2
   5442c:	5155fec2 	sub	w2, w22, #0x57f, lsl #12
   54430:	513d9042 	sub	w2, w2, #0xf64
   54434:	b9000061 	str	w1, [x3]
   54438:	b9400041 	ldr	w1, [x2]
   5443c:	120a4421 	and	w1, w1, #0xffc000ff
   54440:	2a010000 	orr	w0, w0, w1
   54444:	b9000040 	str	w0, [x2]
   54448:	5155fec2 	sub	w2, w22, #0x57f, lsl #12
   5444c:	b9409fe3 	ldr	w3, [sp, #156]
   54450:	513d6042 	sub	w2, w2, #0xf58
   54454:	b9400040 	ldr	w0, [x2]
   54458:	120b6801 	and	w1, w0, #0xffe0ffff
   5445c:	b9414be0 	ldr	w0, [sp, #328]
   54460:	2a004020 	orr	w0, w1, w0, lsl #16
   54464:	b9000040 	str	w0, [x2]
   54468:	b940a7e2 	ldr	w2, [sp, #164]
   5446c:	35000042 	cbnz	w2, 54474 <prepare_ddr_timing+0x778>
   54470:	0b0300a2 	add	w2, w5, w3
   54474:	5155fec0 	sub	w0, w22, #0x57f, lsl #12
   54478:	b94093e5 	ldr	w5, [sp, #144]
   5447c:	513d4000 	sub	w0, w0, #0xf50
   54480:	b9400001 	ldr	w1, [x0]
   54484:	12185c21 	and	w1, w1, #0xffffff00
   54488:	2a020021 	orr	w1, w1, w2
   5448c:	b9000001 	str	w1, [x0]
   54490:	5155fec1 	sub	w1, w22, #0x57f, lsl #12
   54494:	b940e3e2 	ldr	w2, [sp, #224]
   54498:	513d3021 	sub	w1, w1, #0xf4c
   5449c:	b9400020 	ldr	w0, [x1]
   544a0:	12185c00 	and	w0, w0, #0xffffff00
   544a4:	2a030000 	orr	w0, w0, w3
   544a8:	b9000020 	str	w0, [x1]
   544ac:	b940cfe1 	ldr	w1, [sp, #204]
   544b0:	510020a0 	sub	w0, w5, #0x8
   544b4:	5155fec3 	sub	w3, w22, #0x57f, lsl #12
   544b8:	513c2063 	sub	w3, w3, #0xf08
   544bc:	2a004020 	orr	w0, w1, w0, lsl #16
   544c0:	5155fec1 	sub	w1, w22, #0x57f, lsl #12
   544c4:	513d0021 	sub	w1, w1, #0xf40
   544c8:	b9000020 	str	w0, [x1]
   544cc:	5155fec1 	sub	w1, w22, #0x57f, lsl #12
   544d0:	513cc021 	sub	w1, w1, #0xf30
   544d4:	b9400020 	ldr	w0, [x1]
   544d8:	12103c00 	and	w0, w0, #0xffff0000
   544dc:	2a020000 	orr	w0, w0, w2
   544e0:	5155fec2 	sub	w2, w22, #0x57f, lsl #12
   544e4:	513cb042 	sub	w2, w2, #0xf2c
   544e8:	b9000020 	str	w0, [x1]
   544ec:	b9400040 	ldr	w0, [x2]
   544f0:	12003c01 	and	w1, w0, #0xffff
   544f4:	b940e7e0 	ldr	w0, [sp, #228]
   544f8:	2a004020 	orr	w0, w1, w0, lsl #16
   544fc:	5155fec1 	sub	w1, w22, #0x57f, lsl #12
   54500:	513c9021 	sub	w1, w1, #0xf24
   54504:	b9000040 	str	w0, [x2]
   54508:	b9400020 	ldr	w0, [x1]
   5450c:	12046c02 	and	w2, w0, #0xf0ffffff
   54510:	b94197e0 	ldr	w0, [sp, #404]
   54514:	2a006040 	orr	w0, w2, w0, lsl #24
   54518:	b9000020 	str	w0, [x1]
   5451c:	b9410fe2 	ldr	w2, [sp, #268]
   54520:	b9400020 	ldr	w0, [x1]
   54524:	12185c00 	and	w0, w0, #0xffffff00
   54528:	2a020000 	orr	w0, w0, w2
   5452c:	b9000020 	str	w0, [x1]
   54530:	b941a7e0 	ldr	w0, [sp, #420]
   54534:	b9419be2 	ldr	w2, [sp, #408]
   54538:	53103c01 	lsl	w1, w0, #16
   5453c:	b941b3e0 	ldr	w0, [sp, #432]
   54540:	2a006020 	orr	w0, w1, w0, lsl #24
   54544:	b941a3e1 	ldr	w1, [sp, #416]
   54548:	2a012041 	orr	w1, w2, w1, lsl #8
   5454c:	2a010000 	orr	w0, w0, w1
   54550:	5155fec1 	sub	w1, w22, #0x57f, lsl #12
   54554:	513c8021 	sub	w1, w1, #0xf20
   54558:	b9000020 	str	w0, [x1]
   5455c:	5155fec1 	sub	w1, w22, #0x57f, lsl #12
   54560:	513c4021 	sub	w1, w1, #0xf10
   54564:	b9400020 	ldr	w0, [x1]
   54568:	12103c00 	and	w0, w0, #0xffff0000
   5456c:	2a070007 	orr	w7, w0, w7
   54570:	b941d7e0 	ldr	w0, [sp, #468]
   54574:	b9000027 	str	w7, [x1]
   54578:	53103c02 	lsl	w2, w0, #16
   5457c:	b941d3e0 	ldr	w0, [sp, #464]
   54580:	b9400061 	ldr	w1, [x3]
   54584:	2a006040 	orr	w0, w2, w0, lsl #24
   54588:	12003c21 	and	w1, w1, #0xffff
   5458c:	2a010000 	orr	w0, w0, w1
   54590:	b9000060 	str	w0, [x3]
   54594:	b9418be0 	ldr	w0, [sp, #392]
   54598:	53103c01 	lsl	w1, w0, #16
   5459c:	b941dbe0 	ldr	w0, [sp, #472]
   545a0:	2a006020 	orr	w0, w1, w0, lsl #24
   545a4:	b9418fe1 	ldr	w1, [sp, #396]
   545a8:	b941dfe2 	ldr	w2, [sp, #476]
   545ac:	b9419fe3 	ldr	w3, [sp, #412]
   545b0:	b94157e7 	ldr	w7, [sp, #340]
   545b4:	2a012041 	orr	w1, w2, w1, lsl #8
   545b8:	5155fec2 	sub	w2, w22, #0x57f, lsl #12
   545bc:	2a010000 	orr	w0, w0, w1
   545c0:	5155fec1 	sub	w1, w22, #0x57f, lsl #12
   545c4:	513c1021 	sub	w1, w1, #0xf04
   545c8:	513c0042 	sub	w2, w2, #0xf00
   545cc:	b9415bea 	ldr	w10, [sp, #344]
   545d0:	b9415fe9 	ldr	w9, [sp, #348]
   545d4:	b9000020 	str	w0, [x1]
   545d8:	b94193e0 	ldr	w0, [sp, #400]
   545dc:	b9400041 	ldr	w1, [x2]
   545e0:	2a002060 	orr	w0, w3, w0, lsl #8
   545e4:	12144c21 	and	w1, w1, #0xfffff000
   545e8:	2a010000 	orr	w0, w0, w1
   545ec:	b9000040 	str	w0, [x2]
   545f0:	b940f7e0 	ldr	w0, [sp, #244]
   545f4:	5155fec3 	sub	w3, w22, #0x57f, lsl #12
   545f8:	513a4063 	sub	w3, w3, #0xe90
   545fc:	53185c02 	lsl	w2, w0, #8
   54600:	b940fbe0 	ldr	w0, [sp, #248]
   54604:	b9400061 	ldr	w1, [x3]
   54608:	2a004040 	orr	w0, w2, w0, lsl #16
   5460c:	5155fec2 	sub	w2, w22, #0x57f, lsl #12
   54610:	51394042 	sub	w2, w2, #0xe50
   54614:	12083c21 	and	w1, w1, #0xff0000ff
   54618:	2a010000 	orr	w0, w0, w1
   5461c:	b9000060 	str	w0, [x3]
   54620:	b9400041 	ldr	w1, [x2]
   54624:	b9404a60 	ldr	w0, [x19, #72]
   54628:	12077821 	and	w1, w1, #0xfeffffff
   5462c:	2a006020 	orr	w0, w1, w0, lsl #24
   54630:	b9000040 	str	w0, [x2]
   54634:	5155fec2 	sub	w2, w22, #0x57f, lsl #12
   54638:	51386042 	sub	w2, w2, #0xe18
   5463c:	b9400040 	ldr	w0, [x2]
   54640:	12065401 	and	w1, w0, #0xfc00ffff
   54644:	b941bfe0 	ldr	w0, [sp, #444]
   54648:	2a004020 	orr	w0, w1, w0, lsl #16
   5464c:	b941c3e1 	ldr	w1, [sp, #448]
   54650:	b9000040 	str	w0, [x2]
   54654:	b941c7e0 	ldr	w0, [sp, #452]
   54658:	2a004020 	orr	w0, w1, w0, lsl #16
   5465c:	5155fec1 	sub	w1, w22, #0x57f, lsl #12
   54660:	51385021 	sub	w1, w1, #0xe14
   54664:	b9000020 	str	w0, [x1]
   54668:	b941cfe0 	ldr	w0, [sp, #460]
   5466c:	53185c01 	lsl	w1, w0, #8
   54670:	b941b7e0 	ldr	w0, [sp, #436]
   54674:	2a004020 	orr	w0, w1, w0, lsl #16
   54678:	b941cbe1 	ldr	w1, [sp, #456]
   5467c:	2a010000 	orr	w0, w0, w1
   54680:	5155fec1 	sub	w1, w22, #0x57f, lsl #12
   54684:	51384021 	sub	w1, w1, #0xe10
   54688:	b9000020 	str	w0, [x1]
   5468c:	5155fec1 	sub	w1, w22, #0x57f, lsl #12
   54690:	b94153e0 	ldr	w0, [sp, #336]
   54694:	5137a021 	sub	w1, w1, #0xde8
   54698:	2a074007 	orr	w7, w0, w7, lsl #16
   5469c:	5155fec0 	sub	w0, w22, #0x57f, lsl #12
   546a0:	5137b000 	sub	w0, w0, #0xdec
   546a4:	b9000007 	str	w7, [x0]
   546a8:	b9400020 	ldr	w0, [x1]
   546ac:	12103c00 	and	w0, w0, #0xffff0000
   546b0:	2a0a0000 	orr	w0, w0, w10
   546b4:	b9000020 	str	w0, [x1]
   546b8:	5155fec0 	sub	w0, w22, #0x57f, lsl #12
   546bc:	51376000 	sub	w0, w0, #0xdd8
   546c0:	b9400002 	ldr	w2, [x0]
   546c4:	12103c42 	and	w2, w2, #0xffff0000
   546c8:	2a090042 	orr	w2, w2, w9
   546cc:	b9000002 	str	w2, [x0]
   546d0:	5155fec0 	sub	w0, w22, #0x57f, lsl #12
   546d4:	b94163e3 	ldr	w3, [sp, #352]
   546d8:	51375000 	sub	w0, w0, #0xdd4
   546dc:	b9400002 	ldr	w2, [x0]
   546e0:	12005c42 	and	w2, w2, #0xffffff
   546e4:	2a036042 	orr	w2, w2, w3, lsl #24
   546e8:	b9000002 	str	w2, [x0]
   546ec:	5155fec0 	sub	w0, w22, #0x57f, lsl #12
   546f0:	5136d000 	sub	w0, w0, #0xdb4
   546f4:	b9000007 	str	w7, [x0]
   546f8:	5155fec0 	sub	w0, w22, #0x57f, lsl #12
   546fc:	5136c000 	sub	w0, w0, #0xdb0
   54700:	b9400001 	ldr	w1, [x0]
   54704:	12103c21 	and	w1, w1, #0xffff0000
   54708:	2a0a0021 	orr	w1, w1, w10
   5470c:	b9000001 	str	w1, [x0]
   54710:	5155fec1 	sub	w1, w22, #0x57f, lsl #12
   54714:	51368021 	sub	w1, w1, #0xda0
   54718:	b9400020 	ldr	w0, [x1]
   5471c:	12103c00 	and	w0, w0, #0xffff0000
   54720:	2a090000 	orr	w0, w0, w9
   54724:	b9000020 	str	w0, [x1]
   54728:	5155fec1 	sub	w1, w22, #0x57f, lsl #12
   5472c:	51367021 	sub	w1, w1, #0xd9c
   54730:	b9400020 	ldr	w0, [x1]
   54734:	12005c00 	and	w0, w0, #0xffffff
   54738:	2a036003 	orr	w3, w0, w3, lsl #24
   5473c:	b9000023 	str	w3, [x1]
   54740:	b9403660 	ldr	w0, [x19, #52]
   54744:	71001c1f 	cmp	w0, #0x7
   54748:	54000501 	b.ne	547e8 <prepare_ddr_timing+0xaec>  // b.any
   5474c:	5155fec1 	sub	w1, w22, #0x57f, lsl #12
   54750:	b94167e3 	ldr	w3, [sp, #356]
   54754:	51374021 	sub	w1, w1, #0xdd0
   54758:	b9416fe2 	ldr	w2, [sp, #364]
   5475c:	5155fec7 	sub	w7, w22, #0x57f, lsl #12
   54760:	5136f0e7 	sub	w7, w7, #0xdbc
   54764:	b9400020 	ldr	w0, [x1]
   54768:	12003c00 	and	w0, w0, #0xffff
   5476c:	2a034000 	orr	w0, w0, w3, lsl #16
   54770:	b9000020 	str	w0, [x1]
   54774:	5155fec1 	sub	w1, w22, #0x57f, lsl #12
   54778:	51372021 	sub	w1, w1, #0xdc8
   5477c:	b9400020 	ldr	w0, [x1]
   54780:	12003c00 	and	w0, w0, #0xffff
   54784:	2a024000 	orr	w0, w0, w2, lsl #16
   54788:	b9000020 	str	w0, [x1]
   5478c:	b9417fe1 	ldr	w1, [sp, #380]
   54790:	b94000e0 	ldr	w0, [x7]
   54794:	12003c00 	and	w0, w0, #0xffff
   54798:	2a014000 	orr	w0, w0, w1, lsl #16
   5479c:	b90000e0 	str	w0, [x7]
   547a0:	5155fec7 	sub	w7, w22, #0x57f, lsl #12
   547a4:	513660e7 	sub	w7, w7, #0xd98
   547a8:	b94000e0 	ldr	w0, [x7]
   547ac:	12003c00 	and	w0, w0, #0xffff
   547b0:	2a034003 	orr	w3, w0, w3, lsl #16
   547b4:	b90000e3 	str	w3, [x7]
   547b8:	5155fec3 	sub	w3, w22, #0x57f, lsl #12
   547bc:	51364063 	sub	w3, w3, #0xd90
   547c0:	b9400060 	ldr	w0, [x3]
   547c4:	12003c00 	and	w0, w0, #0xffff
   547c8:	2a024002 	orr	w2, w0, w2, lsl #16
   547cc:	b9000062 	str	w2, [x3]
   547d0:	5155fec2 	sub	w2, w22, #0x57f, lsl #12
   547d4:	51361042 	sub	w2, w2, #0xd84
   547d8:	b9400040 	ldr	w0, [x2]
   547dc:	12003c00 	and	w0, w0, #0xffff
   547e0:	2a014001 	orr	w1, w0, w1, lsl #16
   547e4:	b9000041 	str	w1, [x2]
   547e8:	5155fec1 	sub	w1, w22, #0x57f, lsl #12
   547ec:	5155fec2 	sub	w2, w22, #0x57f, lsl #12
   547f0:	5134d021 	sub	w1, w1, #0xd34
   547f4:	5132c042 	sub	w2, w2, #0xcb0
   547f8:	b9400020 	ldr	w0, [x1]
   547fc:	120c4c00 	and	w0, w0, #0xfff000ff
   54800:	2a062000 	orr	w0, w0, w6, lsl #8
   54804:	b9000020 	str	w0, [x1]
   54808:	b9411be0 	ldr	w0, [sp, #280]
   5480c:	53017cc6 	lsr	w6, w6, #1
   54810:	b941abe1 	ldr	w1, [sp, #424]
   54814:	2a0040c6 	orr	w6, w6, w0, lsl #16
   54818:	5155fec0 	sub	w0, w22, #0x57f, lsl #12
   5481c:	5134c000 	sub	w0, w0, #0xd30
   54820:	b9000006 	str	w6, [x0]
   54824:	b941afe0 	ldr	w0, [sp, #428]
   54828:	2a004020 	orr	w0, w1, w0, lsl #16
   5482c:	5155fec1 	sub	w1, w22, #0x57f, lsl #12
   54830:	5134b021 	sub	w1, w1, #0xd2c
   54834:	b9000020 	str	w0, [x1]
   54838:	b9400040 	ldr	w0, [x2]
   5483c:	12105c01 	and	w1, w0, #0xffff00ff
   54840:	b94113e0 	ldr	w0, [sp, #272]
   54844:	2a002020 	orr	w0, w1, w0, lsl #8
   54848:	b9000040 	str	w0, [x2]
   5484c:	5155fec0 	sub	w0, w22, #0x57f, lsl #12
   54850:	b9404e61 	ldr	w1, [x19, #76]
   54854:	5132b000 	sub	w0, w0, #0xcac
   54858:	34001de1 	cbz	w1, 54c14 <prepare_ddr_timing+0xf18>
   5485c:	b9400001 	ldr	w1, [x0]
   54860:	32100021 	orr	w1, w1, #0x10000
   54864:	b9000001 	str	w1, [x0]
   54868:	52a10001 	mov	w1, #0x8000000             	// #134217728
   5486c:	b9403a60 	ldr	w0, [x19, #56]
   54870:	7106401f 	cmp	w0, #0x190
   54874:	52a08000 	mov	w0, #0x4000000             	// #67108864
   54878:	1a813001 	csel	w1, w0, w1, cc  // cc = lo, ul, last
   5487c:	5155fec2 	sub	w2, w22, #0x57f, lsl #12
   54880:	5155fec3 	sub	w3, w22, #0x57f, lsl #12
   54884:	51328042 	sub	w2, w2, #0xca0
   54888:	51323063 	sub	w3, w3, #0xc8c
   5488c:	b9400040 	ldr	w0, [x2]
   54890:	12036800 	and	w0, w0, #0xe0ffffff
   54894:	2a010000 	orr	w0, w0, w1
   54898:	b9000040 	str	w0, [x2]
   5489c:	b940d7e0 	ldr	w0, [sp, #212]
   548a0:	b9400061 	ldr	w1, [x3]
   548a4:	53185c02 	lsl	w2, w0, #8
   548a8:	b940d3e0 	ldr	w0, [sp, #208]
   548ac:	2a004040 	orr	w0, w2, w0, lsl #16
   548b0:	529e1fe2 	mov	w2, #0xf0ff                	// #61695
   548b4:	72bfff82 	movk	w2, #0xfffc, lsl #16
   548b8:	0a020021 	and	w1, w1, w2
   548bc:	2a010000 	orr	w0, w0, w1
   548c0:	b9000060 	str	w0, [x3]
   548c4:	2a0803e1 	mov	w1, w8
   548c8:	b9403667 	ldr	w7, [x19, #52]
   548cc:	2a0703e0 	mov	w0, w7
   548d0:	97fffc20 	bl	53950 <get_wrlat_adj>
   548d4:	2a0003e6 	mov	w6, w0
   548d8:	2a0403e1 	mov	w1, w4
   548dc:	2a0703e0 	mov	w0, w7
   548e0:	97fffc02 	bl	538e8 <get_rdlat_adj>
   548e4:	5155fec2 	sub	w2, w22, #0x57f, lsl #12
   548e8:	512e4042 	sub	w2, w2, #0xb90
   548ec:	b9400041 	ldr	w1, [x2]
   548f0:	12103c21 	and	w1, w1, #0xffff0000
   548f4:	2a000021 	orr	w1, w1, w0
   548f8:	2a062026 	orr	w6, w1, w6, lsl #8
   548fc:	5155fec1 	sub	w1, w22, #0x57f, lsl #12
   54900:	513ae021 	sub	w1, w1, #0xeb8
   54904:	b9000046 	str	w6, [x2]
   54908:	b9400020 	ldr	w0, [x1]
   5490c:	12003c00 	and	w0, w0, #0xffff
   54910:	2a054800 	orr	w0, w0, w5, lsl #18
   54914:	b9000020 	str	w0, [x1]
   54918:	5155fec1 	sub	w1, w22, #0x57f, lsl #12
   5491c:	531f38a5 	ubfiz	w5, w5, #1, #15
   54920:	513ad021 	sub	w1, w1, #0xeb4
   54924:	b9400020 	ldr	w0, [x1]
   54928:	12103c00 	and	w0, w0, #0xffff0000
   5492c:	2a0000a5 	orr	w5, w5, w0
   54930:	b9000025 	str	w5, [x1]
   54934:	b9403661 	ldr	w1, [x19, #52]
   54938:	51001820 	sub	w0, w1, #0x6
   5493c:	7100041f 	cmp	w0, #0x1
   54940:	54001788 	b.hi	54c30 <prepare_ddr_timing+0xf34>  // b.pmore
   54944:	7100183f 	cmp	w1, #0x6
   54948:	54001701 	b.ne	54c28 <prepare_ddr_timing+0xf2c>  // b.any
   5494c:	910793e0 	add	x0, sp, #0x1e4
   54950:	97fffc7c 	bl	53b40 <get_pi_wrlat.isra.0.part.0>
   54954:	2a0003e3 	mov	w3, w0
   54958:	b94073e0 	ldr	w0, [sp, #112]
   5495c:	97fffc9c 	bl	53bcc <get_pi_todtoff_max.isra.0>
   54960:	4b000061 	sub	w1, w3, w0
   54964:	6b03001f 	cmp	w0, w3
   54968:	1a9f3020 	csel	w0, w1, wzr, cc  // cc = lo, ul, last
   5496c:	5155fec2 	sub	w2, w22, #0x57f, lsl #12
   54970:	5132a042 	sub	w2, w2, #0xca8
   54974:	b9400041 	ldr	w1, [x2]
   54978:	33101401 	bfi	w1, w0, #16, #6
   5497c:	b9000041 	str	w1, [x2]
   54980:	b9403663 	ldr	w3, [x19, #52]
   54984:	51001860 	sub	w0, w3, #0x6
   54988:	7100041f 	cmp	w0, #0x1
   5498c:	54001568 	b.hi	54c38 <prepare_ddr_timing+0xf3c>  // b.pmore
   54990:	b94073e5 	ldr	w5, [sp, #112]
   54994:	2a0303e1 	mov	w1, w3
   54998:	2a0503e0 	mov	w0, w5
   5499c:	97fffc7d 	bl	53b90 <get_pi_todtoff_min.isra.0>
   549a0:	51000484 	sub	w4, w4, #0x1
   549a4:	0b000084 	add	w4, w4, w0
   549a8:	2a0303e1 	mov	w1, w3
   549ac:	2a0503e0 	mov	w0, w5
   549b0:	97fffc87 	bl	53bcc <get_pi_todtoff_max.isra.0>
   549b4:	6b000081 	subs	w1, w4, w0
   549b8:	1a9f8021 	csel	w1, w1, wzr, hi  // hi = pmore
   549bc:	5155fec2 	sub	w2, w22, #0x57f, lsl #12
   549c0:	51329042 	sub	w2, w2, #0xca4
   549c4:	b9400040 	ldr	w0, [x2]
   549c8:	33181420 	bfi	w0, w1, #8, #6
   549cc:	b9000040 	str	w0, [x2]
   549d0:	9101c3e0 	add	x0, sp, #0x70
   549d4:	b9403661 	ldr	w1, [x19, #52]
   549d8:	97fffc89 	bl	53bfc <get_pi_tdfi_phy_rdlat.isra.0>
   549dc:	5155fec2 	sub	w2, w22, #0x57f, lsl #12
   549e0:	512ed042 	sub	w2, w2, #0xbb4
   549e4:	b9400041 	ldr	w1, [x2]
   549e8:	33101c01 	bfi	w1, w0, #16, #8
   549ec:	5155fec0 	sub	w0, w22, #0x57f, lsl #12
   549f0:	512eb000 	sub	w0, w0, #0xbac
   549f4:	b9000041 	str	w1, [x2]
   549f8:	b94093e2 	ldr	w2, [sp, #144]
   549fc:	b9400001 	ldr	w1, [x0]
   54a00:	531f3843 	ubfiz	w3, w2, #1, #15
   54a04:	12103c21 	and	w1, w1, #0xffff0000
   54a08:	2a030021 	orr	w1, w1, w3
   54a0c:	b9000001 	str	w1, [x0]
   54a10:	5155fec1 	sub	w1, w22, #0x57f, lsl #12
   54a14:	512e6021 	sub	w1, w1, #0xb98
   54a18:	b9400020 	ldr	w0, [x1]
   54a1c:	12103c00 	and	w0, w0, #0xffff0000
   54a20:	2a030000 	orr	w0, w0, w3
   54a24:	b9000020 	str	w0, [x1]
   54a28:	52800280 	mov	w0, #0x14                  	// #20
   54a2c:	52884801 	mov	w1, #0x4240                	// #16960
   54a30:	72a001e1 	movk	w1, #0xf, lsl #16
   54a34:	1b007c42 	mul	w2, w2, w0
   54a38:	5155fec0 	sub	w0, w22, #0x57f, lsl #12
   54a3c:	512e5000 	sub	w0, w0, #0xb94
   54a40:	b9000002 	str	w2, [x0]
   54a44:	5289c402 	mov	w2, #0x4e20                	// #20000
   54a48:	b94073e0 	ldr	w0, [sp, #112]
   54a4c:	1ac00821 	udiv	w1, w1, w0
   54a50:	1ac10840 	udiv	w0, w2, w1
   54a54:	1b018801 	msub	w1, w0, w1, w2
   54a58:	7100003f 	cmp	w1, #0x0
   54a5c:	1a800400 	cinc	w0, w0, ne  // ne = any
   54a60:	11000400 	add	w0, w0, #0x1
   54a64:	12000001 	and	w1, w0, #0x1
   54a68:	0b400420 	add	w0, w1, w0, lsr #1
   54a6c:	5155fec1 	sub	w1, w22, #0x57f, lsl #12
   54a70:	512cc021 	sub	w1, w1, #0xb30
   54a74:	11001402 	add	w2, w0, #0x5
   54a78:	11005c00 	add	w0, w0, #0x17
   54a7c:	b9400023 	ldr	w3, [x1]
   54a80:	12065463 	and	w3, w3, #0xfc00ffff
   54a84:	2a024062 	orr	w2, w3, w2, lsl #16
   54a88:	b9000022 	str	w2, [x1]
   54a8c:	b9400022 	ldr	w2, [x1]
   54a90:	12165442 	and	w2, w2, #0xfffffc00
   54a94:	2a020000 	orr	w0, w0, w2
   54a98:	b9000020 	str	w0, [x1]
   54a9c:	9101c3e0 	add	x0, sp, #0x70
   54aa0:	97fffc89 	bl	53cc4 <get_pi_wrlat_adj.constprop.0>
   54aa4:	b9403a61 	ldr	w1, [x19, #56]
   54aa8:	710e803f 	cmp	w1, #0x3a0
   54aac:	54000ca8 	b.hi	54c40 <prepare_ddr_timing+0xf44>  // b.pmore
   54ab0:	340000a0 	cbz	w0, 54ac4 <prepare_ddr_timing+0xdc8>
   54ab4:	51000401 	sub	w1, w0, #0x1
   54ab8:	51001402 	sub	w2, w0, #0x5
   54abc:	7100101f 	cmp	w0, #0x4
   54ac0:	1a818040 	csel	w0, w2, w1, hi  // hi = pmore
   54ac4:	5155fec2 	sub	w2, w22, #0x57f, lsl #12
   54ac8:	512c6042 	sub	w2, w2, #0xb18
   54acc:	b9400041 	ldr	w1, [x2]
   54ad0:	12105c21 	and	w1, w1, #0xffff00ff
   54ad4:	2a002020 	orr	w0, w1, w0, lsl #8
   54ad8:	b9000040 	str	w0, [x2]
   54adc:	b941e7e0 	ldr	w0, [sp, #484]
   54ae0:	b9403a61 	ldr	w1, [x19, #56]
   54ae4:	710e803f 	cmp	w1, #0x3a0
   54ae8:	54000b08 	b.hi	54c48 <prepare_ddr_timing+0xf4c>  // b.pmore
   54aec:	7100101f 	cmp	w0, #0x4
   54af0:	54000ac9 	b.ls	54c48 <prepare_ddr_timing+0xf4c>  // b.plast
   54af4:	51001400 	sub	w0, w0, #0x5
   54af8:	b9400041 	ldr	w1, [x2]
   54afc:	110006f7 	add	w23, w23, #0x1
   54b00:	114022d6 	add	w22, w22, #0x8, lsl #12
   54b04:	12185c21 	and	w1, w1, #0xffffff00
   54b08:	2a000020 	orr	w0, w1, w0
   54b0c:	b9000040 	str	w0, [x2]
   54b10:	b9403e60 	ldr	w0, [x19, #60]
   54b14:	6b0002ff 	cmp	w23, w0
   54b18:	54ffbac3 	b.cc	54270 <prepare_ddr_timing+0x574>  // b.lo, b.ul, b.last
   54b1c:	52813a16 	mov	w22, #0x9d0                 	// #2512
   54b20:	52884819 	mov	w25, #0x4240                	// #16960
   54b24:	910793f8 	add	x24, sp, #0x1e4
   54b28:	52800017 	mov	w23, #0x0                   	// #0
   54b2c:	72bff516 	movk	w22, #0xffa8, lsl #16
   54b30:	72a001f9 	movk	w25, #0xf, lsl #16
   54b34:	b9403e60 	ldr	w0, [x19, #60]
   54b38:	6b0002ff 	cmp	w23, w0
   54b3c:	54005563 	b.cc	555e8 <prepare_ddr_timing+0x18ec>  // b.lo, b.ul, b.last
   54b40:	b94073e4 	ldr	w4, [sp, #112]
   54b44:	53185e80 	lsl	w0, w20, #8
   54b48:	b90067e0 	str	w0, [sp, #100]
   54b4c:	52800500 	mov	w0, #0x28                  	// #40
   54b50:	7104109f 	cmp	w4, #0x104
   54b54:	b941e7ee 	ldr	w14, [sp, #484]
   54b58:	52800185 	mov	w5, #0xc                   	// #12
   54b5c:	1a9f90a5 	csel	w5, w5, wzr, ls  // ls = plast
   54b60:	1ac00880 	udiv	w0, w4, w0
   54b64:	5288480a 	mov	w10, #0x4240                	// #16960
   54b68:	5284c511 	mov	w17, #0x2628                	// #9768
   54b6c:	52842812 	mov	w18, #0x2140                	// #8512
   54b70:	5284681e 	mov	w30, #0x2340                	// #9024
   54b74:	5284a816 	mov	w22, #0x2540                	// #9536
   54b78:	5284e817 	mov	w23, #0x2740                	// #10048
   54b7c:	52840498 	mov	w24, #0x2024                	// #8228
   54b80:	b9006be0 	str	w0, [sp, #104]
   54b84:	900000a0 	adrp	x0, 68000 <dist_ctx+0x1e98>
   54b88:	52844499 	mov	w25, #0x2224                	// #8740
   54b8c:	53185ca9 	lsl	w9, w5, #8
   54b90:	b94cac00 	ldr	w0, [x0, #3244]
   54b94:	510009cf 	sub	w15, w14, #0x2
   54b98:	53103ca5 	lsl	w5, w5, #16
   54b9c:	52800001 	mov	w1, #0x0                   	// #0
   54ba0:	52800008 	mov	w8, #0x0                   	// #0
   54ba4:	72a001ea 	movk	w10, #0xf, lsl #16
   54ba8:	72bff511 	movk	w17, #0xffa8, lsl #16
   54bac:	72bff512 	movk	w18, #0xffa8, lsl #16
   54bb0:	72bff51e 	movk	w30, #0xffa8, lsl #16
   54bb4:	72bff516 	movk	w22, #0xffa8, lsl #16
   54bb8:	72bff517 	movk	w23, #0xffa8, lsl #16
   54bbc:	72bff518 	movk	w24, #0xffa8, lsl #16
   54bc0:	72bff519 	movk	w25, #0xffa8, lsl #16
   54bc4:	b9006fe0 	str	w0, [sp, #108]
   54bc8:	14000530 	b	56088 <prepare_ddr_timing+0x238c>
   54bcc:	b94077e3 	ldr	w3, [sp, #116]
   54bd0:	2a012021 	orr	w1, w1, w1, lsl #8
   54bd4:	53103c82 	lsl	w2, w4, #16
   54bd8:	71001d7f 	cmp	w11, #0x7
   54bdc:	54000121 	b.ne	54c00 <prepare_ddr_timing+0xf04>  // b.any
   54be0:	0b080063 	add	w3, w3, w8
   54be4:	b9000143 	str	w3, [x10]
   54be8:	b9000121 	str	w1, [x9]
   54bec:	b94000a1 	ldr	w1, [x5]
   54bf0:	12003c21 	and	w1, w1, #0xffff
   54bf4:	2a020021 	orr	w1, w1, w2
   54bf8:	b90000a1 	str	w1, [x5]
   54bfc:	17fffdc2 	b	54304 <prepare_ddr_timing+0x608>
   54c00:	b9000143 	str	w3, [x10]
   54c04:	0b1b02c3 	add	w3, w22, w27
   54c08:	b94083e4 	ldr	w4, [sp, #128]
   54c0c:	b9000064 	str	w4, [x3]
   54c10:	17fffff6 	b	54be8 <prepare_ddr_timing+0xeec>
   54c14:	b9400001 	ldr	w1, [x0]
   54c18:	120f7821 	and	w1, w1, #0xfffeffff
   54c1c:	b9000001 	str	w1, [x0]
   54c20:	52a04001 	mov	w1, #0x2000000             	// #33554432
   54c24:	17ffff16 	b	5487c <prepare_ddr_timing+0xb80>
   54c28:	52800023 	mov	w3, #0x1                   	// #1
   54c2c:	17ffff4b 	b	54958 <prepare_ddr_timing+0xc5c>
   54c30:	52800000 	mov	w0, #0x0                   	// #0
   54c34:	17ffff4e 	b	5496c <prepare_ddr_timing+0xc70>
   54c38:	4b080081 	sub	w1, w4, w8
   54c3c:	17ffff60 	b	549bc <prepare_ddr_timing+0xcc0>
   54c40:	51000800 	sub	w0, w0, #0x2
   54c44:	17ffffa0 	b	54ac4 <prepare_ddr_timing+0xdc8>
   54c48:	51000800 	sub	w0, w0, #0x2
   54c4c:	17ffffab 	b	54af8 <prepare_ddr_timing+0xdfc>
   54c50:	52800298 	mov	w24, #0x14                  	// #20
   54c54:	52801019 	mov	w25, #0x80                  	// #128
   54c58:	52801d9a 	mov	w26, #0xec                  	// #236
   54c5c:	5280039b 	mov	w27, #0x1c                  	// #28
   54c60:	5295cd5c 	mov	w28, #0xae6a                	// #44650
   54c64:	72bff518 	movk	w24, #0xffa8, lsl #16
   54c68:	72bff519 	movk	w25, #0xffa8, lsl #16
   54c6c:	72bff51a 	movk	w26, #0xffa8, lsl #16
   54c70:	72bff51b 	movk	w27, #0xffa8, lsl #16
   54c74:	72a0015c 	movk	w28, #0xa, lsl #16
   54c78:	17ffffa6 	b	54b10 <prepare_ddr_timing+0xe14>
   54c7c:	b94107e0 	ldr	w0, [sp, #260]
   54c80:	0b1802cc 	add	w12, w22, w24
   54c84:	b940abeb 	ldr	w11, [sp, #168]
   54c88:	0b1902c8 	add	w8, w22, w25
   54c8c:	295b1fe2 	ldp	w2, w7, [sp, #216]
   54c90:	53103c01 	lsl	w1, w0, #16
   54c94:	b9403663 	ldr	w3, [x19, #52]
   54c98:	0b1a02c4 	add	w4, w22, w26
   54c9c:	b94117e6 	ldr	w6, [sp, #276]
   54ca0:	2a0b202b 	orr	w11, w1, w11, lsl #8
   54ca4:	b9407fea 	ldr	w10, [sp, #124]
   54ca8:	71000c7f 	cmp	w3, #0x3
   54cac:	b94097e5 	ldr	w5, [sp, #148]
   54cb0:	0b0700cd 	add	w13, w6, w7
   54cb4:	54004541 	b.ne	5555c <prepare_ddr_timing+0x1860>  // b.any
   54cb8:	b9403a63 	ldr	w3, [x19, #56]
   54cbc:	52807d01 	mov	w1, #0x3e8                 	// #1000
   54cc0:	b94103e9 	ldr	w9, [sp, #256]
   54cc4:	4b050042 	sub	w2, w2, w5
   54cc8:	1b1c7c63 	mul	w3, w3, w28
   54ccc:	110f9c63 	add	w3, w3, #0x3e7
   54cd0:	1ac10863 	udiv	w3, w3, w1
   54cd4:	0b000401 	add	w1, w0, w0, lsl #1
   54cd8:	0b090021 	add	w1, w1, w9
   54cdc:	0b0d0021 	add	w1, w1, w13
   54ce0:	0b030021 	add	w1, w1, w3
   54ce4:	5155fec3 	sub	w3, w22, #0x57f, lsl #12
   54ce8:	513ea063 	sub	w3, w3, #0xfa8
   54cec:	b9000181 	str	w1, [x12]
   54cf0:	b9400060 	ldr	w0, [x3]
   54cf4:	12003c01 	and	w1, w0, #0xffff
   54cf8:	b940ebe0 	ldr	w0, [sp, #232]
   54cfc:	2a004020 	orr	w0, w1, w0, lsl #16
   54d00:	b9000060 	str	w0, [x3]
   54d04:	b9400100 	ldr	w0, [x8]
   54d08:	12001c00 	and	w0, w0, #0xff
   54d0c:	2a096009 	orr	w9, w0, w9, lsl #24
   54d10:	2a0b0120 	orr	w0, w9, w11
   54d14:	b9000100 	str	w0, [x8]
   54d18:	b9400080 	ldr	w0, [x4]
   54d1c:	12003c00 	and	w0, w0, #0xffff
   54d20:	2a024002 	orr	w2, w0, w2, lsl #16
   54d24:	5155fec0 	sub	w0, w22, #0x57f, lsl #12
   54d28:	b9000082 	str	w2, [x4]
   54d2c:	513f6000 	sub	w0, w0, #0xfd8
   54d30:	5155fec3 	sub	w3, w22, #0x57f, lsl #12
   54d34:	b94087e1 	ldr	w1, [sp, #132]
   54d38:	513e4063 	sub	w3, w3, #0xf90
   54d3c:	b941e7e4 	ldr	w4, [sp, #484]
   54d40:	b900000a 	str	w10, [x0]
   54d44:	5155fec0 	sub	w0, w22, #0x57f, lsl #12
   54d48:	513f4000 	sub	w0, w0, #0xfd0
   54d4c:	b941ebe8 	ldr	w8, [sp, #488]
   54d50:	b9000001 	str	w1, [x0]
   54d54:	5155fec0 	sub	w0, w22, #0x57f, lsl #12
   54d58:	513e8000 	sub	w0, w0, #0xfa0
   54d5c:	b9400001 	ldr	w1, [x0]
   54d60:	12116021 	and	w1, w1, #0xffff80ff
   54d64:	2a042421 	orr	w1, w1, w4, lsl #9
   54d68:	b9000001 	str	w1, [x0]
   54d6c:	b9400001 	ldr	w1, [x0]
   54d70:	120b6821 	and	w1, w1, #0xffe0ffff
   54d74:	2a084021 	orr	w1, w1, w8, lsl #16
   54d78:	b9000001 	str	w1, [x0]
   54d7c:	b9400001 	ldr	w1, [x0]
   54d80:	12026422 	and	w2, w1, #0xc0ffffff
   54d84:	b941e3e1 	ldr	w1, [sp, #480]
   54d88:	2a016041 	orr	w1, w2, w1, lsl #24
   54d8c:	b9000001 	str	w1, [x0]
   54d90:	b940afe0 	ldr	w0, [sp, #172]
   54d94:	b9400061 	ldr	w1, [x3]
   54d98:	53103c02 	lsl	w2, w0, #16
   54d9c:	b940c7e0 	ldr	w0, [sp, #196]
   54da0:	2a006040 	orr	w0, w2, w0, lsl #24
   54da4:	12001c22 	and	w2, w1, #0xff
   54da8:	b940b3e1 	ldr	w1, [sp, #176]
   54dac:	2a012041 	orr	w1, w2, w1, lsl #8
   54db0:	2a010000 	orr	w0, w0, w1
   54db4:	b9000060 	str	w0, [x3]
   54db8:	b9409be0 	ldr	w0, [sp, #152]
   54dbc:	5155fec3 	sub	w3, w22, #0x57f, lsl #12
   54dc0:	513e3063 	sub	w3, w3, #0xf8c
   54dc4:	53185c02 	lsl	w2, w0, #8
   54dc8:	b940cbe0 	ldr	w0, [sp, #200]
   54dcc:	b9400061 	ldr	w1, [x3]
   54dd0:	2a004040 	orr	w0, w2, w0, lsl #16
   54dd4:	b940bbe2 	ldr	w2, [sp, #184]
   54dd8:	12081c21 	and	w1, w1, #0xff000000
   54ddc:	2a020021 	orr	w1, w1, w2
   54de0:	5155fec2 	sub	w2, w22, #0x57f, lsl #12
   54de4:	2a010000 	orr	w0, w0, w1
   54de8:	b940c3e1 	ldr	w1, [sp, #192]
   54dec:	b9000060 	str	w0, [x3]
   54df0:	513dc042 	sub	w2, w2, #0xf70
   54df4:	b940efe0 	ldr	w0, [sp, #236]
   54df8:	5155fec3 	sub	w3, w22, #0x57f, lsl #12
   54dfc:	513d6063 	sub	w3, w3, #0xf58
   54e00:	2a006020 	orr	w0, w1, w0, lsl #24
   54e04:	5155fec1 	sub	w1, w22, #0x57f, lsl #12
   54e08:	513dd021 	sub	w1, w1, #0xf74
   54e0c:	b9000020 	str	w0, [x1]
   54e10:	b940f3e0 	ldr	w0, [sp, #240]
   54e14:	b9400041 	ldr	w1, [x2]
   54e18:	7100001f 	cmp	w0, #0x0
   54e1c:	12185c21 	and	w1, w1, #0xffffff00
   54e20:	1a9f1400 	csinc	w0, w0, wzr, ne  // ne = any
   54e24:	2a010000 	orr	w0, w0, w1
   54e28:	5155fec1 	sub	w1, w22, #0x57f, lsl #12
   54e2c:	513d9021 	sub	w1, w1, #0xf64
   54e30:	b9000040 	str	w0, [x2]
   54e34:	b940a3e2 	ldr	w2, [sp, #160]
   54e38:	b9400020 	ldr	w0, [x1]
   54e3c:	12005c00 	and	w0, w0, #0xffffff
   54e40:	2a056005 	orr	w5, w0, w5, lsl #24
   54e44:	b9000025 	str	w5, [x1]
   54e48:	5155fec1 	sub	w1, w22, #0x57f, lsl #12
   54e4c:	513d8021 	sub	w1, w1, #0xf60
   54e50:	b9400020 	ldr	w0, [x1]
   54e54:	121a6400 	and	w0, w0, #0xffffffc0
   54e58:	2a020000 	orr	w0, w0, w2
   54e5c:	b9000020 	str	w0, [x1]
   54e60:	b9400060 	ldr	w0, [x3]
   54e64:	12036801 	and	w1, w0, #0xe0ffffff
   54e68:	b9414be0 	ldr	w0, [sp, #328]
   54e6c:	2a006020 	orr	w0, w1, w0, lsl #24
   54e70:	b9000060 	str	w0, [x3]
   54e74:	b940a7e0 	ldr	w0, [sp, #164]
   54e78:	b9409fe1 	ldr	w1, [sp, #156]
   54e7c:	35000040 	cbnz	w0, 54e84 <prepare_ddr_timing+0x1188>
   54e80:	0b010040 	add	w0, w2, w1
   54e84:	5155fec3 	sub	w3, w22, #0x57f, lsl #12
   54e88:	b94093e5 	ldr	w5, [sp, #144]
   54e8c:	513d4063 	sub	w3, w3, #0xf50
   54e90:	b9400062 	ldr	w2, [x3]
   54e94:	12105c42 	and	w2, w2, #0xffff00ff
   54e98:	2a002040 	orr	w0, w2, w0, lsl #8
   54e9c:	5155fec2 	sub	w2, w22, #0x57f, lsl #12
   54ea0:	513d3042 	sub	w2, w2, #0xf4c
   54ea4:	b9000060 	str	w0, [x3]
   54ea8:	5155fec3 	sub	w3, w22, #0x57f, lsl #12
   54eac:	513c0063 	sub	w3, w3, #0xf00
   54eb0:	b9400040 	ldr	w0, [x2]
   54eb4:	12105c00 	and	w0, w0, #0xffff00ff
   54eb8:	2a012001 	orr	w1, w0, w1, lsl #8
   54ebc:	b9000041 	str	w1, [x2]
   54ec0:	b940cfe1 	ldr	w1, [sp, #204]
   54ec4:	510020a0 	sub	w0, w5, #0x8
   54ec8:	5155fec2 	sub	w2, w22, #0x57f, lsl #12
   54ecc:	513cc042 	sub	w2, w2, #0xf30
   54ed0:	2a004020 	orr	w0, w1, w0, lsl #16
   54ed4:	5155fec1 	sub	w1, w22, #0x57f, lsl #12
   54ed8:	513cf021 	sub	w1, w1, #0xf3c
   54edc:	b9000020 	str	w0, [x1]
   54ee0:	b9400040 	ldr	w0, [x2]
   54ee4:	12003c01 	and	w1, w0, #0xffff
   54ee8:	b940e3e0 	ldr	w0, [sp, #224]
   54eec:	2a004020 	orr	w0, w1, w0, lsl #16
   54ef0:	5155fec1 	sub	w1, w22, #0x57f, lsl #12
   54ef4:	513ca021 	sub	w1, w1, #0xf28
   54ef8:	b9000040 	str	w0, [x2]
   54efc:	b940e7e2 	ldr	w2, [sp, #228]
   54f00:	b9400020 	ldr	w0, [x1]
   54f04:	12103c00 	and	w0, w0, #0xffff0000
   54f08:	2a020000 	orr	w0, w0, w2
   54f0c:	5155fec2 	sub	w2, w22, #0x57f, lsl #12
   54f10:	513c9042 	sub	w2, w2, #0xf24
   54f14:	b9000020 	str	w0, [x1]
   54f18:	b9400040 	ldr	w0, [x2]
   54f1c:	12105c01 	and	w1, w0, #0xffff00ff
   54f20:	b9410fe0 	ldr	w0, [sp, #268]
   54f24:	2a002020 	orr	w0, w1, w0, lsl #8
   54f28:	b9000040 	str	w0, [x2]
   54f2c:	b941a3e0 	ldr	w0, [sp, #416]
   54f30:	b94197e2 	ldr	w2, [sp, #404]
   54f34:	53103c01 	lsl	w1, w0, #16
   54f38:	b941a7e0 	ldr	w0, [sp, #420]
   54f3c:	2a006020 	orr	w0, w1, w0, lsl #24
   54f40:	b9419be1 	ldr	w1, [sp, #408]
   54f44:	2a012041 	orr	w1, w2, w1, lsl #8
   54f48:	b941b3e2 	ldr	w2, [sp, #432]
   54f4c:	2a010000 	orr	w0, w0, w1
   54f50:	5155fec1 	sub	w1, w22, #0x57f, lsl #12
   54f54:	513c7021 	sub	w1, w1, #0xf1c
   54f58:	b9000020 	str	w0, [x1]
   54f5c:	5155fec1 	sub	w1, w22, #0x57f, lsl #12
   54f60:	513c6021 	sub	w1, w1, #0xf18
   54f64:	b9400020 	ldr	w0, [x1]
   54f68:	121c6c00 	and	w0, w0, #0xfffffff0
   54f6c:	2a020000 	orr	w0, w0, w2
   54f70:	b9000020 	str	w0, [x1]
   54f74:	5155fec1 	sub	w1, w22, #0x57f, lsl #12
   54f78:	513c3021 	sub	w1, w1, #0xf0c
   54f7c:	b9400020 	ldr	w0, [x1]
   54f80:	12103c00 	and	w0, w0, #0xffff0000
   54f84:	2a070007 	orr	w7, w0, w7
   54f88:	b941d7e0 	ldr	w0, [sp, #468]
   54f8c:	b9000027 	str	w7, [x1]
   54f90:	53103c02 	lsl	w2, w0, #16
   54f94:	b941d3e0 	ldr	w0, [sp, #464]
   54f98:	b9400061 	ldr	w1, [x3]
   54f9c:	2a006040 	orr	w0, w2, w0, lsl #24
   54fa0:	12003c21 	and	w1, w1, #0xffff
   54fa4:	2a010000 	orr	w0, w0, w1
   54fa8:	b9000060 	str	w0, [x3]
   54fac:	b9418be0 	ldr	w0, [sp, #392]
   54fb0:	53103c01 	lsl	w1, w0, #16
   54fb4:	b941dbe0 	ldr	w0, [sp, #472]
   54fb8:	2a006020 	orr	w0, w1, w0, lsl #24
   54fbc:	b9418fe1 	ldr	w1, [sp, #396]
   54fc0:	b941dfe2 	ldr	w2, [sp, #476]
   54fc4:	b9419fe3 	ldr	w3, [sp, #412]
   54fc8:	b94153e7 	ldr	w7, [sp, #336]
   54fcc:	2a012041 	orr	w1, w2, w1, lsl #8
   54fd0:	5155fec2 	sub	w2, w22, #0x57f, lsl #12
   54fd4:	2a010000 	orr	w0, w0, w1
   54fd8:	5155fec1 	sub	w1, w22, #0x57f, lsl #12
   54fdc:	513bf021 	sub	w1, w1, #0xefc
   54fe0:	513be042 	sub	w2, w2, #0xef8
   54fe4:	b9000020 	str	w0, [x1]
   54fe8:	b94193e0 	ldr	w0, [sp, #400]
   54fec:	b9400041 	ldr	w1, [x2]
   54ff0:	2a002060 	orr	w0, w3, w0, lsl #8
   54ff4:	12144c21 	and	w1, w1, #0xfffff000
   54ff8:	2a010000 	orr	w0, w0, w1
   54ffc:	b9000040 	str	w0, [x2]
   55000:	5155fec2 	sub	w2, w22, #0x57f, lsl #12
   55004:	b9415be3 	ldr	w3, [sp, #344]
   55008:	513a4042 	sub	w2, w2, #0xe90
   5500c:	b9400040 	ldr	w0, [x2]
   55010:	12005c01 	and	w1, w0, #0xffffff
   55014:	b940f7e0 	ldr	w0, [sp, #244]
   55018:	2a006020 	orr	w0, w1, w0, lsl #24
   5501c:	5155fec1 	sub	w1, w22, #0x57f, lsl #12
   55020:	513a3021 	sub	w1, w1, #0xe8c
   55024:	b9000040 	str	w0, [x2]
   55028:	b940fbe2 	ldr	w2, [sp, #248]
   5502c:	b9400020 	ldr	w0, [x1]
   55030:	12185c00 	and	w0, w0, #0xffffff00
   55034:	2a020000 	orr	w0, w0, w2
   55038:	5155fec2 	sub	w2, w22, #0x57f, lsl #12
   5503c:	51394042 	sub	w2, w2, #0xe50
   55040:	b9000020 	str	w0, [x1]
   55044:	b9404a60 	ldr	w0, [x19, #72]
   55048:	b9400041 	ldr	w1, [x2]
   5504c:	12067821 	and	w1, w1, #0xfdffffff
   55050:	2a006420 	orr	w0, w1, w0, lsl #25
   55054:	b941bfe1 	ldr	w1, [sp, #444]
   55058:	b9000040 	str	w0, [x2]
   5505c:	b941c3e0 	ldr	w0, [sp, #448]
   55060:	b941b7e2 	ldr	w2, [sp, #436]
   55064:	2a004020 	orr	w0, w1, w0, lsl #16
   55068:	5155fec1 	sub	w1, w22, #0x57f, lsl #12
   5506c:	51383021 	sub	w1, w1, #0xe0c
   55070:	b9000020 	str	w0, [x1]
   55074:	b941cbe0 	ldr	w0, [sp, #456]
   55078:	53103c01 	lsl	w1, w0, #16
   5507c:	b941cfe0 	ldr	w0, [sp, #460]
   55080:	2a006020 	orr	w0, w1, w0, lsl #24
   55084:	b941c7e1 	ldr	w1, [sp, #452]
   55088:	2a010000 	orr	w0, w0, w1
   5508c:	5155fec1 	sub	w1, w22, #0x57f, lsl #12
   55090:	51382021 	sub	w1, w1, #0xe08
   55094:	b9000020 	str	w0, [x1]
   55098:	5155fec1 	sub	w1, w22, #0x57f, lsl #12
   5509c:	51381021 	sub	w1, w1, #0xe04
   550a0:	b9400020 	ldr	w0, [x1]
   550a4:	12103c00 	and	w0, w0, #0xffff0000
   550a8:	2a020000 	orr	w0, w0, w2
   550ac:	b9000020 	str	w0, [x1]
   550b0:	5155fec1 	sub	w1, w22, #0x57f, lsl #12
   550b4:	5137a021 	sub	w1, w1, #0xde8
   550b8:	b9400020 	ldr	w0, [x1]
   550bc:	12003c00 	and	w0, w0, #0xffff
   550c0:	2a074000 	orr	w0, w0, w7, lsl #16
   550c4:	b9000020 	str	w0, [x1]
   550c8:	b94157e0 	ldr	w0, [sp, #340]
   550cc:	5155fec1 	sub	w1, w22, #0x57f, lsl #12
   550d0:	51376021 	sub	w1, w1, #0xdd8
   550d4:	2a034003 	orr	w3, w0, w3, lsl #16
   550d8:	5155fec0 	sub	w0, w22, #0x57f, lsl #12
   550dc:	51379000 	sub	w0, w0, #0xde4
   550e0:	b9000003 	str	w3, [x0]
   550e4:	b9415fe2 	ldr	w2, [sp, #348]
   550e8:	b9400020 	ldr	w0, [x1]
   550ec:	b94163e9 	ldr	w9, [sp, #352]
   550f0:	12003c00 	and	w0, w0, #0xffff
   550f4:	2a024000 	orr	w0, w0, w2, lsl #16
   550f8:	b9000020 	str	w0, [x1]
   550fc:	5155fec0 	sub	w0, w22, #0x57f, lsl #12
   55100:	51374000 	sub	w0, w0, #0xdd0
   55104:	b9400001 	ldr	w1, [x0]
   55108:	12185c21 	and	w1, w1, #0xffffff00
   5510c:	2a090021 	orr	w1, w1, w9
   55110:	b9000001 	str	w1, [x0]
   55114:	5155fec0 	sub	w0, w22, #0x57f, lsl #12
   55118:	5136c000 	sub	w0, w0, #0xdb0
   5511c:	b9400001 	ldr	w1, [x0]
   55120:	12003c21 	and	w1, w1, #0xffff
   55124:	2a074027 	orr	w7, w1, w7, lsl #16
   55128:	b9000007 	str	w7, [x0]
   5512c:	5155fec0 	sub	w0, w22, #0x57f, lsl #12
   55130:	5136b000 	sub	w0, w0, #0xdac
   55134:	b9000003 	str	w3, [x0]
   55138:	5155fec0 	sub	w0, w22, #0x57f, lsl #12
   5513c:	51368000 	sub	w0, w0, #0xda0
   55140:	b9400001 	ldr	w1, [x0]
   55144:	12003c21 	and	w1, w1, #0xffff
   55148:	2a024022 	orr	w2, w1, w2, lsl #16
   5514c:	5155fec1 	sub	w1, w22, #0x57f, lsl #12
   55150:	51366021 	sub	w1, w1, #0xd98
   55154:	b9000002 	str	w2, [x0]
   55158:	b9400020 	ldr	w0, [x1]
   5515c:	12185c00 	and	w0, w0, #0xffffff00
   55160:	2a090000 	orr	w0, w0, w9
   55164:	b9000020 	str	w0, [x1]
   55168:	b9403660 	ldr	w0, [x19, #52]
   5516c:	71001c1f 	cmp	w0, #0x7
   55170:	54000501 	b.ne	55210 <prepare_ddr_timing+0x1514>  // b.any
   55174:	5155fec2 	sub	w2, w22, #0x57f, lsl #12
   55178:	b94167e1 	ldr	w1, [sp, #356]
   5517c:	51373042 	sub	w2, w2, #0xdcc
   55180:	b9416fe9 	ldr	w9, [sp, #364]
   55184:	b9417fe7 	ldr	w7, [sp, #380]
   55188:	b9400040 	ldr	w0, [x2]
   5518c:	12103c00 	and	w0, w0, #0xffff0000
   55190:	2a010000 	orr	w0, w0, w1
   55194:	b9000040 	str	w0, [x2]
   55198:	5155fec2 	sub	w2, w22, #0x57f, lsl #12
   5519c:	51371042 	sub	w2, w2, #0xdc4
   551a0:	b9400040 	ldr	w0, [x2]
   551a4:	12103c00 	and	w0, w0, #0xffff0000
   551a8:	2a090000 	orr	w0, w0, w9
   551ac:	b9000040 	str	w0, [x2]
   551b0:	5155fec0 	sub	w0, w22, #0x57f, lsl #12
   551b4:	5136e000 	sub	w0, w0, #0xdb8
   551b8:	b9400003 	ldr	w3, [x0]
   551bc:	12103c63 	and	w3, w3, #0xffff0000
   551c0:	2a070063 	orr	w3, w3, w7
   551c4:	b9000003 	str	w3, [x0]
   551c8:	5155fec0 	sub	w0, w22, #0x57f, lsl #12
   551cc:	51365000 	sub	w0, w0, #0xd94
   551d0:	b9400002 	ldr	w2, [x0]
   551d4:	12103c42 	and	w2, w2, #0xffff0000
   551d8:	2a010042 	orr	w2, w2, w1
   551dc:	b9000002 	str	w2, [x0]
   551e0:	5155fec0 	sub	w0, w22, #0x57f, lsl #12
   551e4:	51363000 	sub	w0, w0, #0xd8c
   551e8:	b9400001 	ldr	w1, [x0]
   551ec:	12103c21 	and	w1, w1, #0xffff0000
   551f0:	2a090021 	orr	w1, w1, w9
   551f4:	b9000001 	str	w1, [x0]
   551f8:	5155fec1 	sub	w1, w22, #0x57f, lsl #12
   551fc:	51360021 	sub	w1, w1, #0xd80
   55200:	b9400020 	ldr	w0, [x1]
   55204:	12103c00 	and	w0, w0, #0xffff0000
   55208:	2a070000 	orr	w0, w0, w7
   5520c:	b9000020 	str	w0, [x1]
   55210:	53017cc0 	lsr	w0, w6, #1
   55214:	b9411be1 	ldr	w1, [sp, #280]
   55218:	b941afe2 	ldr	w2, [sp, #428]
   5521c:	2a0040c6 	orr	w6, w6, w0, lsl #16
   55220:	5155fec0 	sub	w0, w22, #0x57f, lsl #12
   55224:	5134a000 	sub	w0, w0, #0xd28
   55228:	b9000006 	str	w6, [x0]
   5522c:	b941abe0 	ldr	w0, [sp, #424]
   55230:	2a004020 	orr	w0, w1, w0, lsl #16
   55234:	5155fec1 	sub	w1, w22, #0x57f, lsl #12
   55238:	51349021 	sub	w1, w1, #0xd24
   5523c:	b9000020 	str	w0, [x1]
   55240:	5155fec1 	sub	w1, w22, #0x57f, lsl #12
   55244:	51348021 	sub	w1, w1, #0xd20
   55248:	b9400020 	ldr	w0, [x1]
   5524c:	121a6400 	and	w0, w0, #0xffffffc0
   55250:	2a020000 	orr	w0, w0, w2
   55254:	b9000020 	str	w0, [x1]
   55258:	5155fec1 	sub	w1, w22, #0x57f, lsl #12
   5525c:	b94123e2 	ldr	w2, [sp, #288]
   55260:	51344021 	sub	w1, w1, #0xd10
   55264:	b9400020 	ldr	w0, [x1]
   55268:	12144c00 	and	w0, w0, #0xfffff000
   5526c:	2a020000 	orr	w0, w0, w2
   55270:	5155fec2 	sub	w2, w22, #0x57f, lsl #12
   55274:	5132c042 	sub	w2, w2, #0xcb0
   55278:	b9000020 	str	w0, [x1]
   5527c:	b9400040 	ldr	w0, [x2]
   55280:	12085c01 	and	w1, w0, #0xff00ffff
   55284:	b94113e0 	ldr	w0, [sp, #272]
   55288:	2a004020 	orr	w0, w1, w0, lsl #16
   5528c:	b9000040 	str	w0, [x2]
   55290:	5155fec0 	sub	w0, w22, #0x57f, lsl #12
   55294:	b9404e61 	ldr	w1, [x19, #76]
   55298:	5132b000 	sub	w0, w0, #0xcac
   5529c:	34001881 	cbz	w1, 555ac <prepare_ddr_timing+0x18b0>
   552a0:	b9400001 	ldr	w1, [x0]
   552a4:	32080021 	orr	w1, w1, #0x1000000
   552a8:	b9000001 	str	w1, [x0]
   552ac:	52a10001 	mov	w1, #0x8000000             	// #134217728
   552b0:	b9403a60 	ldr	w0, [x19, #56]
   552b4:	7106401f 	cmp	w0, #0x190
   552b8:	52a08000 	mov	w0, #0x4000000             	// #67108864
   552bc:	1a813001 	csel	w1, w0, w1, cc  // cc = lo, ul, last
   552c0:	5155fec2 	sub	w2, w22, #0x57f, lsl #12
   552c4:	51327042 	sub	w2, w2, #0xc9c
   552c8:	b9400040 	ldr	w0, [x2]
   552cc:	12036800 	and	w0, w0, #0xe0ffffff
   552d0:	2a010000 	orr	w0, w0, w1
   552d4:	b9000040 	str	w0, [x2]
   552d8:	5155fec2 	sub	w2, w22, #0x57f, lsl #12
   552dc:	51323042 	sub	w2, w2, #0xc8c
   552e0:	b9400040 	ldr	w0, [x2]
   552e4:	12046c01 	and	w1, w0, #0xf0ffffff
   552e8:	b940d7e0 	ldr	w0, [sp, #212]
   552ec:	2a006020 	orr	w0, w1, w0, lsl #24
   552f0:	5155fec1 	sub	w1, w22, #0x57f, lsl #12
   552f4:	51322021 	sub	w1, w1, #0xc88
   552f8:	b9000040 	str	w0, [x2]
   552fc:	b940d3e2 	ldr	w2, [sp, #208]
   55300:	b9400020 	ldr	w0, [x1]
   55304:	121e7400 	and	w0, w0, #0xfffffffc
   55308:	2a020000 	orr	w0, w0, w2
   5530c:	b9000020 	str	w0, [x1]
   55310:	2a0803e1 	mov	w1, w8
   55314:	b9403667 	ldr	w7, [x19, #52]
   55318:	2a0703e0 	mov	w0, w7
   5531c:	97fff98d 	bl	53950 <get_wrlat_adj>
   55320:	2a0003e6 	mov	w6, w0
   55324:	2a0403e1 	mov	w1, w4
   55328:	2a0703e0 	mov	w0, w7
   5532c:	97fff96f 	bl	538e8 <get_rdlat_adj>
   55330:	5155fec2 	sub	w2, w22, #0x57f, lsl #12
   55334:	512dd042 	sub	w2, w2, #0xb74
   55338:	b9400041 	ldr	w1, [x2]
   5533c:	12103c21 	and	w1, w1, #0xffff0000
   55340:	2a000021 	orr	w1, w1, w0
   55344:	5155fec0 	sub	w0, w22, #0x57f, lsl #12
   55348:	513ac000 	sub	w0, w0, #0xeb0
   5534c:	2a062026 	orr	w6, w1, w6, lsl #8
   55350:	b9000046 	str	w6, [x2]
   55354:	531e34a1 	ubfiz	w1, w5, #2, #14
   55358:	b9400002 	ldr	w2, [x0]
   5535c:	12103c42 	and	w2, w2, #0xffff0000
   55360:	2a020021 	orr	w1, w1, w2
   55364:	b9000001 	str	w1, [x0]
   55368:	b9400001 	ldr	w1, [x0]
   5536c:	12003c21 	and	w1, w1, #0xffff
   55370:	2a054425 	orr	w5, w1, w5, lsl #17
   55374:	b9000005 	str	w5, [x0]
   55378:	b9403661 	ldr	w1, [x19, #52]
   5537c:	51001820 	sub	w0, w1, #0x6
   55380:	7100041f 	cmp	w0, #0x1
   55384:	54001228 	b.hi	555c8 <prepare_ddr_timing+0x18cc>  // b.pmore
   55388:	7100183f 	cmp	w1, #0x6
   5538c:	540011a1 	b.ne	555c0 <prepare_ddr_timing+0x18c4>  // b.any
   55390:	910793e0 	add	x0, sp, #0x1e4
   55394:	97fff9eb 	bl	53b40 <get_pi_wrlat.isra.0.part.0>
   55398:	2a0003e3 	mov	w3, w0
   5539c:	b94073e0 	ldr	w0, [sp, #112]
   553a0:	97fffa0b 	bl	53bcc <get_pi_todtoff_max.isra.0>
   553a4:	4b000061 	sub	w1, w3, w0
   553a8:	6b03001f 	cmp	w0, w3
   553ac:	1a9f3020 	csel	w0, w1, wzr, cc  // cc = lo, ul, last
   553b0:	5155fec2 	sub	w2, w22, #0x57f, lsl #12
   553b4:	5132a042 	sub	w2, w2, #0xca8
   553b8:	b9400041 	ldr	w1, [x2]
   553bc:	33081401 	bfi	w1, w0, #24, #6
   553c0:	b9000041 	str	w1, [x2]
   553c4:	b9403663 	ldr	w3, [x19, #52]
   553c8:	51001860 	sub	w0, w3, #0x6
   553cc:	7100041f 	cmp	w0, #0x1
   553d0:	54001008 	b.hi	555d0 <prepare_ddr_timing+0x18d4>  // b.pmore
   553d4:	b94073e5 	ldr	w5, [sp, #112]
   553d8:	2a0303e1 	mov	w1, w3
   553dc:	2a0503e0 	mov	w0, w5
   553e0:	97fff9ec 	bl	53b90 <get_pi_todtoff_min.isra.0>
   553e4:	51000484 	sub	w4, w4, #0x1
   553e8:	0b000084 	add	w4, w4, w0
   553ec:	2a0303e1 	mov	w1, w3
   553f0:	2a0503e0 	mov	w0, w5
   553f4:	97fff9f6 	bl	53bcc <get_pi_todtoff_max.isra.0>
   553f8:	6b000081 	subs	w1, w4, w0
   553fc:	1a9f8021 	csel	w1, w1, wzr, hi  // hi = pmore
   55400:	5155fec2 	sub	w2, w22, #0x57f, lsl #12
   55404:	51329042 	sub	w2, w2, #0xca4
   55408:	b9400040 	ldr	w0, [x2]
   5540c:	33101420 	bfi	w0, w1, #16, #6
   55410:	b9000040 	str	w0, [x2]
   55414:	9101c3e0 	add	x0, sp, #0x70
   55418:	b9403661 	ldr	w1, [x19, #52]
   5541c:	97fff9f8 	bl	53bfc <get_pi_tdfi_phy_rdlat.isra.0>
   55420:	5155fec2 	sub	w2, w22, #0x57f, lsl #12
   55424:	5155fec3 	sub	w3, w22, #0x57f, lsl #12
   55428:	512ed042 	sub	w2, w2, #0xbb4
   5542c:	512df063 	sub	w3, w3, #0xb7c
   55430:	b9400041 	ldr	w1, [x2]
   55434:	12005c21 	and	w1, w1, #0xffffff
   55438:	2a006020 	orr	w0, w1, w0, lsl #24
   5543c:	b9000040 	str	w0, [x2]
   55440:	5155fec2 	sub	w2, w22, #0x57f, lsl #12
   55444:	b94093e0 	ldr	w0, [sp, #144]
   55448:	512e4042 	sub	w2, w2, #0xb90
   5544c:	b9400041 	ldr	w1, [x2]
   55450:	12003c21 	and	w1, w1, #0xffff
   55454:	2a004421 	orr	w1, w1, w0, lsl #17
   55458:	b9000041 	str	w1, [x2]
   5545c:	531f3801 	ubfiz	w1, w0, #1, #15
   55460:	b9400062 	ldr	w2, [x3]
   55464:	12103c42 	and	w2, w2, #0xffff0000
   55468:	2a020021 	orr	w1, w1, w2
   5546c:	b9000061 	str	w1, [x3]
   55470:	52800281 	mov	w1, #0x14                  	// #20
   55474:	5289c402 	mov	w2, #0x4e20                	// #20000
   55478:	1b017c00 	mul	w0, w0, w1
   5547c:	5155fec1 	sub	w1, w22, #0x57f, lsl #12
   55480:	512de021 	sub	w1, w1, #0xb78
   55484:	b9000020 	str	w0, [x1]
   55488:	52884801 	mov	w1, #0x4240                	// #16960
   5548c:	b94073e0 	ldr	w0, [sp, #112]
   55490:	72a001e1 	movk	w1, #0xf, lsl #16
   55494:	1ac00821 	udiv	w1, w1, w0
   55498:	1ac10840 	udiv	w0, w2, w1
   5549c:	1b018801 	msub	w1, w0, w1, w2
   554a0:	7100003f 	cmp	w1, #0x0
   554a4:	1a800400 	cinc	w0, w0, ne  // ne = any
   554a8:	11000400 	add	w0, w0, #0x1
   554ac:	12000001 	and	w1, w0, #0x1
   554b0:	0b400420 	add	w0, w1, w0, lsr #1
   554b4:	5155fec1 	sub	w1, w22, #0x57f, lsl #12
   554b8:	512cb021 	sub	w1, w1, #0xb2c
   554bc:	11001402 	add	w2, w0, #0x5
   554c0:	11005c00 	add	w0, w0, #0x17
   554c4:	b9400023 	ldr	w3, [x1]
   554c8:	12065463 	and	w3, w3, #0xfc00ffff
   554cc:	2a024062 	orr	w2, w3, w2, lsl #16
   554d0:	b9000022 	str	w2, [x1]
   554d4:	b9400022 	ldr	w2, [x1]
   554d8:	12165442 	and	w2, w2, #0xfffffc00
   554dc:	2a020000 	orr	w0, w0, w2
   554e0:	b9000020 	str	w0, [x1]
   554e4:	9101c3e0 	add	x0, sp, #0x70
   554e8:	97fff9f7 	bl	53cc4 <get_pi_wrlat_adj.constprop.0>
   554ec:	b9403a61 	ldr	w1, [x19, #56]
   554f0:	710e803f 	cmp	w1, #0x3a0
   554f4:	54000728 	b.hi	555d8 <prepare_ddr_timing+0x18dc>  // b.pmore
   554f8:	340000a0 	cbz	w0, 5550c <prepare_ddr_timing+0x1810>
   554fc:	51000401 	sub	w1, w0, #0x1
   55500:	51001402 	sub	w2, w0, #0x5
   55504:	7100101f 	cmp	w0, #0x4
   55508:	1a818040 	csel	w0, w2, w1, hi  // hi = pmore
   5550c:	5155fec1 	sub	w1, w22, #0x57f, lsl #12
   55510:	512c6021 	sub	w1, w1, #0xb18
   55514:	b9400022 	ldr	w2, [x1]
   55518:	12005c42 	and	w2, w2, #0xffffff
   5551c:	2a006040 	orr	w0, w2, w0, lsl #24
   55520:	b9000020 	str	w0, [x1]
   55524:	b941e7e0 	ldr	w0, [sp, #484]
   55528:	b9403a62 	ldr	w2, [x19, #56]
   5552c:	710e805f 	cmp	w2, #0x3a0
   55530:	54000588 	b.hi	555e0 <prepare_ddr_timing+0x18e4>  // b.pmore
   55534:	7100101f 	cmp	w0, #0x4
   55538:	54000549 	b.ls	555e0 <prepare_ddr_timing+0x18e4>  // b.plast
   5553c:	51001400 	sub	w0, w0, #0x5
   55540:	b9400022 	ldr	w2, [x1]
   55544:	110006f7 	add	w23, w23, #0x1
   55548:	114022d6 	add	w22, w22, #0x8, lsl #12
   5554c:	12085c42 	and	w2, w2, #0xff00ffff
   55550:	2a004040 	orr	w0, w2, w0, lsl #16
   55554:	b9000020 	str	w0, [x1]
   55558:	17fffa0f 	b	53d94 <prepare_ddr_timing+0x98>
   5555c:	b94077e1 	ldr	w1, [sp, #116]
   55560:	2a006160 	orr	w0, w11, w0, lsl #24
   55564:	53103c42 	lsl	w2, w2, #16
   55568:	71001c7f 	cmp	w3, #0x7
   5556c:	54000161 	b.ne	55598 <prepare_ddr_timing+0x189c>  // b.any
   55570:	0b010141 	add	w1, w10, w1
   55574:	b9000181 	str	w1, [x12]
   55578:	b9400101 	ldr	w1, [x8]
   5557c:	12001c21 	and	w1, w1, #0xff
   55580:	2a000020 	orr	w0, w1, w0
   55584:	b9000100 	str	w0, [x8]
   55588:	b9400080 	ldr	w0, [x4]
   5558c:	12003c00 	and	w0, w0, #0xffff
   55590:	2a020002 	orr	w2, w0, w2
   55594:	17fffde4 	b	54d24 <prepare_ddr_timing+0x1028>
   55598:	b9000181 	str	w1, [x12]
   5559c:	0b1b02c1 	add	w1, w22, w27
   555a0:	b94083e3 	ldr	w3, [sp, #128]
   555a4:	b9000023 	str	w3, [x1]
   555a8:	17fffff4 	b	55578 <prepare_ddr_timing+0x187c>
   555ac:	b9400001 	ldr	w1, [x0]
   555b0:	12077821 	and	w1, w1, #0xfeffffff
   555b4:	b9000001 	str	w1, [x0]
   555b8:	52a04001 	mov	w1, #0x2000000             	// #33554432
   555bc:	17ffff41 	b	552c0 <prepare_ddr_timing+0x15c4>
   555c0:	2a1403e3 	mov	w3, w20
   555c4:	17ffff76 	b	5539c <prepare_ddr_timing+0x16a0>
   555c8:	52800000 	mov	w0, #0x0                   	// #0
   555cc:	17ffff79 	b	553b0 <prepare_ddr_timing+0x16b4>
   555d0:	4b080081 	sub	w1, w4, w8
   555d4:	17ffff8b 	b	55400 <prepare_ddr_timing+0x1704>
   555d8:	51000800 	sub	w0, w0, #0x2
   555dc:	17ffffcc 	b	5550c <prepare_ddr_timing+0x1810>
   555e0:	51000800 	sub	w0, w0, #0x2
   555e4:	17ffffd7 	b	55540 <prepare_ddr_timing+0x1844>
   555e8:	b94093e0 	ldr	w0, [sp, #144]
   555ec:	510722c1 	sub	w1, w22, #0x1c8
   555f0:	531e7402 	lsl	w2, w0, #2
   555f4:	b9000022 	str	w2, [x1]
   555f8:	510712c2 	sub	w2, w22, #0x1c4
   555fc:	b9400041 	ldr	w1, [x2]
   55600:	12103c21 	and	w1, w1, #0xffff0000
   55604:	2a000421 	orr	w1, w1, w0, lsl #1
   55608:	b9000041 	str	w1, [x2]
   5560c:	5106d2c2 	sub	w2, w22, #0x1b4
   55610:	b9400041 	ldr	w1, [x2]
   55614:	12003c21 	and	w1, w1, #0xffff
   55618:	2a004420 	orr	w0, w1, w0, lsl #17
   5561c:	b9000040 	str	w0, [x2]
   55620:	b9403666 	ldr	w6, [x19, #52]
   55624:	71001cdf 	cmp	w6, #0x7
   55628:	1a9f17e0 	cset	w0, eq  // eq = none
   5562c:	531f7805 	lsl	w5, w0, #1
   55630:	9101c3e0 	add	x0, sp, #0x70
   55634:	97fff8e1 	bl	539b8 <get_pi_rdlat_adj>
   55638:	b941effa 	ldr	w26, [sp, #492]
   5563c:	0b050000 	add	w0, w0, w5
   55640:	2a0603e1 	mov	w1, w6
   55644:	53017f5a 	lsr	w26, w26, #1
   55648:	11000b5a 	add	w26, w26, #0x2
   5564c:	0b00035a 	add	w26, w26, w0
   55650:	9101c3e0 	add	x0, sp, #0x70
   55654:	97fff96a 	bl	53bfc <get_pi_tdfi_phy_rdlat.isra.0>
   55658:	0b1a0000 	add	w0, w0, w26
   5565c:	5104a2c2 	sub	w2, w22, #0x128
   55660:	b9400041 	ldr	w1, [x2]
   55664:	12185c21 	and	w1, w1, #0xffffff00
   55668:	2a000021 	orr	w1, w1, w0
   5566c:	b9000041 	str	w1, [x2]
   55670:	510492c1 	sub	w1, w22, #0x124
   55674:	b9403662 	ldr	w2, [x19, #52]
   55678:	7100185f 	cmp	w2, #0x6
   5567c:	540000e1 	b.ne	55698 <prepare_ddr_timing+0x199c>  // b.any
   55680:	aa1803e0 	mov	x0, x24
   55684:	97fff92f 	bl	53b40 <get_pi_wrlat.isra.0.part.0>
   55688:	b9400022 	ldr	w2, [x1]
   5568c:	121b6842 	and	w2, w2, #0xffffffe0
   55690:	2a000042 	orr	w2, w2, w0
   55694:	b9000022 	str	w2, [x1]
   55698:	b9400022 	ldr	w2, [x1]
   5569c:	b941e7e3 	ldr	w3, [sp, #484]
   556a0:	12126442 	and	w2, w2, #0xffffc0ff
   556a4:	b9000022 	str	w2, [x1]
   556a8:	b94093e5 	ldr	w5, [sp, #144]
   556ac:	b9400022 	ldr	w2, [x1]
   556b0:	b940cfe4 	ldr	w4, [sp, #204]
   556b4:	12096042 	and	w2, w2, #0xff80ffff
   556b8:	b94073e6 	ldr	w6, [sp, #112]
   556bc:	2a034442 	orr	w2, w2, w3, lsl #17
   556c0:	b9000022 	str	w2, [x1]
   556c4:	510462c2 	sub	w2, w22, #0x118
   556c8:	b9400041 	ldr	w1, [x2]
   556cc:	12003c21 	and	w1, w1, #0xffff
   556d0:	2a054021 	orr	w1, w1, w5, lsl #16
   556d4:	b9000041 	str	w1, [x2]
   556d8:	b9400041 	ldr	w1, [x2]
   556dc:	12165421 	and	w1, w1, #0xfffffc00
   556e0:	2a040021 	orr	w1, w1, w4
   556e4:	b9000041 	str	w1, [x2]
   556e8:	b9403661 	ldr	w1, [x19, #52]
   556ec:	7100183f 	cmp	w1, #0x6
   556f0:	54000101 	b.ne	55710 <prepare_ddr_timing+0x1a14>  // b.any
   556f4:	2a0603e0 	mov	w0, w6
   556f8:	97fff935 	bl	53bcc <get_pi_todtoff_max.isra.0>
   556fc:	510322c2 	sub	w2, w22, #0xc8
   55700:	b9400041 	ldr	w1, [x2]
   55704:	12005c21 	and	w1, w1, #0xffffff
   55708:	2a006021 	orr	w1, w1, w0, lsl #24
   5570c:	b9000041 	str	w1, [x2]
   55710:	b9403661 	ldr	w1, [x19, #52]
   55714:	51001822 	sub	w2, w1, #0x6
   55718:	7100045f 	cmp	w2, #0x1
   5571c:	54001be8 	b.hi	55a98 <prepare_ddr_timing+0x1d9c>  // b.pmore
   55720:	7100183f 	cmp	w1, #0x6
   55724:	54001b61 	b.ne	55a90 <prepare_ddr_timing+0x1d94>  // b.any
   55728:	aa1803e0 	mov	x0, x24
   5572c:	97fff905 	bl	53b40 <get_pi_wrlat.isra.0.part.0>
   55730:	2a0003e4 	mov	w4, w0
   55734:	2a0603e0 	mov	w0, w6
   55738:	97fff925 	bl	53bcc <get_pi_todtoff_max.isra.0>
   5573c:	4b000081 	sub	w1, w4, w0
   55740:	6b04001f 	cmp	w0, w4
   55744:	1a9f3020 	csel	w0, w1, wzr, cc  // cc = lo, ul, last
   55748:	5102c2c2 	sub	w2, w22, #0xb0
   5574c:	b9400041 	ldr	w1, [x2]
   55750:	120a6421 	and	w1, w1, #0xffc0ffff
   55754:	2a004021 	orr	w1, w1, w0, lsl #16
   55758:	b9000041 	str	w1, [x2]
   5575c:	b9403664 	ldr	w4, [x19, #52]
   55760:	51001881 	sub	w1, w4, #0x6
   55764:	7100043f 	cmp	w1, #0x1
   55768:	540019e8 	b.hi	55aa4 <prepare_ddr_timing+0x1da8>  // b.pmore
   5576c:	2a0403e1 	mov	w1, w4
   55770:	2a0603e0 	mov	w0, w6
   55774:	97fff907 	bl	53b90 <get_pi_todtoff_min.isra.0>
   55778:	51000463 	sub	w3, w3, #0x1
   5577c:	0b000063 	add	w3, w3, w0
   55780:	2a0403e1 	mov	w1, w4
   55784:	2a0603e0 	mov	w0, w6
   55788:	97fff911 	bl	53bcc <get_pi_todtoff_max.isra.0>
   5578c:	6b000061 	subs	w1, w3, w0
   55790:	1a9f8020 	csel	w0, w1, wzr, hi  // hi = pmore
   55794:	5102b2c2 	sub	w2, w22, #0xac
   55798:	b9400041 	ldr	w1, [x2]
   5579c:	12126421 	and	w1, w1, #0xffffc0ff
   557a0:	2a002020 	orr	w0, w1, w0, lsl #8
   557a4:	b9000040 	str	w0, [x2]
   557a8:	9101c3e0 	add	x0, sp, #0x70
   557ac:	97fff883 	bl	539b8 <get_pi_rdlat_adj>
   557b0:	5101b2c2 	sub	w2, w22, #0x6c
   557b4:	b9400041 	ldr	w1, [x2]
   557b8:	12085c21 	and	w1, w1, #0xff00ffff
   557bc:	2a004020 	orr	w0, w1, w0, lsl #16
   557c0:	b9000040 	str	w0, [x2]
   557c4:	9101c3e0 	add	x0, sp, #0x70
   557c8:	97fff93f 	bl	53cc4 <get_pi_wrlat_adj.constprop.0>
   557cc:	5101a2c2 	sub	w2, w22, #0x68
   557d0:	b9400041 	ldr	w1, [x2]
   557d4:	12085c21 	and	w1, w1, #0xff00ffff
   557d8:	2a004021 	orr	w1, w1, w0, lsl #16
   557dc:	b9000041 	str	w1, [x2]
   557e0:	340000a0 	cbz	w0, 557f4 <prepare_ddr_timing+0x1af8>
   557e4:	51000401 	sub	w1, w0, #0x1
   557e8:	51001402 	sub	w2, w0, #0x5
   557ec:	7100101f 	cmp	w0, #0x4
   557f0:	1a818040 	csel	w0, w2, w1, hi  // hi = pmore
   557f4:	510192c2 	sub	w2, w22, #0x64
   557f8:	110006f7 	add	w23, w23, #0x1
   557fc:	b9400041 	ldr	w1, [x2]
   55800:	12085c21 	and	w1, w1, #0xff00ffff
   55804:	2a004020 	orr	w0, w1, w0, lsl #16
   55808:	b9000040 	str	w0, [x2]
   5580c:	1ac60b21 	udiv	w1, w25, w6
   55810:	5289c402 	mov	w2, #0x4e20                	// #20000
   55814:	1ac10840 	udiv	w0, w2, w1
   55818:	1b018802 	msub	w2, w0, w1, w2
   5581c:	7100005f 	cmp	w2, #0x0
   55820:	1a800400 	cinc	w0, w0, ne  // ne = any
   55824:	11000400 	add	w0, w0, #0x1
   55828:	12000002 	and	w2, w0, #0x1
   5582c:	0b400440 	add	w0, w2, w0, lsr #1
   55830:	510152c2 	sub	w2, w22, #0x54
   55834:	11001403 	add	w3, w0, #0x5
   55838:	11005c00 	add	w0, w0, #0x17
   5583c:	b9400044 	ldr	w4, [x2]
   55840:	12065484 	and	w4, w4, #0xfc00ffff
   55844:	2a034083 	orr	w3, w4, w3, lsl #16
   55848:	b9000043 	str	w3, [x2]
   5584c:	b94157e4 	ldr	w4, [sp, #340]
   55850:	b9400043 	ldr	w3, [x2]
   55854:	12165463 	and	w3, w3, #0xfffffc00
   55858:	2a030000 	orr	w0, w0, w3
   5585c:	5100e2c3 	sub	w3, w22, #0x38
   55860:	b9000040 	str	w0, [x2]
   55864:	b9400060 	ldr	w0, [x3]
   55868:	12136802 	and	w2, w0, #0xffffe0ff
   5586c:	b9414be0 	ldr	w0, [sp, #328]
   55870:	2a002040 	orr	w0, w2, w0, lsl #8
   55874:	5280fa02 	mov	w2, #0x7d0                 	// #2000
   55878:	b9000060 	str	w0, [x3]
   5587c:	510052c3 	sub	w3, w22, #0x14
   55880:	1ac10840 	udiv	w0, w2, w1
   55884:	1b018802 	msub	w2, w0, w1, w2
   55888:	7100005f 	cmp	w2, #0x0
   5588c:	b9400062 	ldr	w2, [x3]
   55890:	1a800400 	cinc	w0, w0, ne  // ne = any
   55894:	11001400 	add	w0, w0, #0x5
   55898:	12146c42 	and	w2, w2, #0xfffff0ff
   5589c:	2a002040 	orr	w0, w2, w0, lsl #8
   558a0:	5284e202 	mov	w2, #0x2710                	// #10000
   558a4:	b9000060 	str	w0, [x3]
   558a8:	110112c3 	add	w3, w22, #0x44
   558ac:	1ac10840 	udiv	w0, w2, w1
   558b0:	1b018801 	msub	w1, w0, w1, w2
   558b4:	2a1603e2 	mov	w2, w22
   558b8:	7100003f 	cmp	w1, #0x0
   558bc:	1a800400 	cinc	w0, w0, ne  // ne = any
   558c0:	710190df 	cmp	w6, #0x64
   558c4:	11002001 	add	w1, w0, #0x8
   558c8:	1a808420 	csinc	w0, w1, w0, hi  // hi = pmore
   558cc:	b9400041 	ldr	w1, [x2]
   558d0:	120a6421 	and	w1, w1, #0xffc0ffff
   558d4:	2a004020 	orr	w0, w1, w0, lsl #16
   558d8:	b9000040 	str	w0, [x2]
   558dc:	110092c0 	add	w0, w22, #0x24
   558e0:	110202c2 	add	w2, w22, #0x80
   558e4:	b9400001 	ldr	w1, [x0]
   558e8:	12083c21 	and	w1, w1, #0xff0000ff
   558ec:	2a042021 	orr	w1, w1, w4, lsl #8
   558f0:	b9000001 	str	w1, [x0]
   558f4:	110182c0 	add	w0, w22, #0x60
   558f8:	b9400061 	ldr	w1, [x3]
   558fc:	12103c21 	and	w1, w1, #0xffff0000
   55900:	2a040021 	orr	w1, w1, w4
   55904:	b9000061 	str	w1, [x3]
   55908:	b9400001 	ldr	w1, [x0]
   5590c:	12003c21 	and	w1, w1, #0xffff
   55910:	2a044021 	orr	w1, w1, w4, lsl #16
   55914:	b9000001 	str	w1, [x0]
   55918:	b9400040 	ldr	w0, [x2]
   5591c:	12103c00 	and	w0, w0, #0xffff0000
   55920:	2a040000 	orr	w0, w0, w4
   55924:	1100a2c4 	add	w4, w22, #0x28
   55928:	b9000040 	str	w0, [x2]
   5592c:	b9415be0 	ldr	w0, [sp, #344]
   55930:	b9400081 	ldr	w1, [x4]
   55934:	12103c21 	and	w1, w1, #0xffff0000
   55938:	2a000021 	orr	w1, w1, w0
   5593c:	b9000081 	str	w1, [x4]
   55940:	b9400061 	ldr	w1, [x3]
   55944:	12003c21 	and	w1, w1, #0xffff
   55948:	2a004021 	orr	w1, w1, w0, lsl #16
   5594c:	b9000061 	str	w1, [x3]
   55950:	110192c3 	add	w3, w22, #0x64
   55954:	b9400061 	ldr	w1, [x3]
   55958:	12103c21 	and	w1, w1, #0xffff0000
   5595c:	2a000021 	orr	w1, w1, w0
   55960:	b9000061 	str	w1, [x3]
   55964:	52800c63 	mov	w3, #0x63                  	// #99
   55968:	b9400041 	ldr	w1, [x2]
   5596c:	12003c21 	and	w1, w1, #0xffff
   55970:	2a004020 	orr	w0, w1, w0, lsl #16
   55974:	110282c1 	add	w1, w22, #0xa0
   55978:	b9000040 	str	w0, [x2]
   5597c:	b9400020 	ldr	w0, [x1]
   55980:	b941c7e2 	ldr	w2, [sp, #452]
   55984:	12165400 	and	w0, w0, #0xfffffc00
   55988:	2a020000 	orr	w0, w0, w2
   5598c:	b9000020 	str	w0, [x1]
   55990:	1102a2c0 	add	w0, w22, #0xa8
   55994:	b9400001 	ldr	w1, [x0]
   55998:	12026422 	and	w2, w1, #0xc0ffffff
   5599c:	b940a3e1 	ldr	w1, [sp, #160]
   559a0:	2a016041 	orr	w1, w2, w1, lsl #24
   559a4:	b9000001 	str	w1, [x0]
   559a8:	b9400001 	ldr	w1, [x0]
   559ac:	120a6422 	and	w2, w1, #0xffc0ffff
   559b0:	b940bbe1 	ldr	w1, [sp, #184]
   559b4:	2a014041 	orr	w1, w2, w1, lsl #16
   559b8:	b9000001 	str	w1, [x0]
   559bc:	b9400001 	ldr	w1, [x0]
   559c0:	12105c22 	and	w2, w1, #0xffff00ff
   559c4:	b94097e1 	ldr	w1, [sp, #148]
   559c8:	2a012041 	orr	w1, w2, w1, lsl #8
   559cc:	b9000001 	str	w1, [x0]
   559d0:	b9409fe2 	ldr	w2, [sp, #156]
   559d4:	b9400001 	ldr	w1, [x0]
   559d8:	12185c21 	and	w1, w1, #0xffffff00
   559dc:	2a020021 	orr	w1, w1, w2
   559e0:	110292c2 	add	w2, w22, #0xa4
   559e4:	b9000001 	str	w1, [x0]
   559e8:	b9400040 	ldr	w0, [x2]
   559ec:	12005c01 	and	w1, w0, #0xffffff
   559f0:	b940abe0 	ldr	w0, [sp, #168]
   559f4:	2a006020 	orr	w0, w1, w0, lsl #24
   559f8:	1102b2c1 	add	w1, w22, #0xac
   559fc:	b9000040 	str	w0, [x2]
   55a00:	b9400020 	ldr	w0, [x1]
   55a04:	12005c02 	and	w2, w0, #0xffffff
   55a08:	b940c7e0 	ldr	w0, [sp, #196]
   55a0c:	2a006040 	orr	w0, w2, w0, lsl #24
   55a10:	b9000020 	str	w0, [x1]
   55a14:	b940c3e0 	ldr	w0, [sp, #192]
   55a18:	b9400022 	ldr	w2, [x1]
   55a1c:	120f3842 	and	w2, w2, #0xfffe0000
   55a20:	1b037c00 	mul	w0, w0, w3
   55a24:	52800c83 	mov	w3, #0x64                  	// #100
   55a28:	1ac30800 	udiv	w0, w0, w3
   55a2c:	2a020000 	orr	w0, w0, w2
   55a30:	b9000020 	str	w0, [x1]
   55a34:	1102c2c1 	add	w1, w22, #0xb0
   55a38:	b9400020 	ldr	w0, [x1]
   55a3c:	120a6402 	and	w2, w0, #0xffc0ffff
   55a40:	b94107e0 	ldr	w0, [sp, #260]
   55a44:	2a004040 	orr	w0, w2, w0, lsl #16
   55a48:	b9000020 	str	w0, [x1]
   55a4c:	b940d7e2 	ldr	w2, [sp, #212]
   55a50:	b9400020 	ldr	w0, [x1]
   55a54:	121c6c00 	and	w0, w0, #0xfffffff0
   55a58:	2a020000 	orr	w0, w0, w2
   55a5c:	b9000020 	str	w0, [x1]
   55a60:	110472c1 	add	w1, w22, #0x11c
   55a64:	b9400020 	ldr	w0, [x1]
   55a68:	12083c00 	and	w0, w0, #0xff0000ff
   55a6c:	2a052400 	orr	w0, w0, w5, lsl #9
   55a70:	b9000020 	str	w0, [x1]
   55a74:	52800280 	mov	w0, #0x14                  	// #20
   55a78:	1b007ca5 	mul	w5, w5, w0
   55a7c:	110482c0 	add	w0, w22, #0x120
   55a80:	114022d6 	add	w22, w22, #0x8, lsl #12
   55a84:	b9400001 	ldr	w1, [x0]
   55a88:	b9000005 	str	w5, [x0]
   55a8c:	17fffc2a 	b	54b34 <prepare_ddr_timing+0xe38>
   55a90:	52800024 	mov	w4, #0x1                   	// #1
   55a94:	17ffff28 	b	55734 <prepare_ddr_timing+0x1a38>
   55a98:	71000c3f 	cmp	w1, #0x3
   55a9c:	1a9f1000 	csel	w0, w0, wzr, ne  // ne = any
   55aa0:	17ffff2a 	b	55748 <prepare_ddr_timing+0x1a4c>
   55aa4:	71000c9f 	cmp	w4, #0x3
   55aa8:	54ffe761 	b.ne	55794 <prepare_ddr_timing+0x1a98>  // b.any
   55aac:	b941ebe0 	ldr	w0, [sp, #488]
   55ab0:	4b000060 	sub	w0, w3, w0
   55ab4:	17ffff38 	b	55794 <prepare_ddr_timing+0x1a98>
   55ab8:	2a1403e4 	mov	w4, w20
   55abc:	17fff916 	b	53f14 <prepare_ddr_timing+0x218>
   55ac0:	71000c3f 	cmp	w1, #0x3
   55ac4:	1a9f1000 	csel	w0, w0, wzr, ne  // ne = any
   55ac8:	17fff918 	b	53f28 <prepare_ddr_timing+0x22c>
   55acc:	71000c9f 	cmp	w4, #0x3
   55ad0:	54ff2521 	b.ne	53f74 <prepare_ddr_timing+0x278>  // b.any
   55ad4:	b941ebe0 	ldr	w0, [sp, #488]
   55ad8:	4b000060 	sub	w0, w3, w0
   55adc:	17fff926 	b	53f74 <prepare_ddr_timing+0x278>
   55ae0:	32000042 	orr	w2, w2, #0x1
   55ae4:	1400017b 	b	560d0 <prepare_ddr_timing+0x23d4>
   55ae8:	52800020 	mov	w0, #0x1                   	// #1
   55aec:	140001b6 	b	561c4 <prepare_ddr_timing+0x24c8>
   55af0:	52800060 	mov	w0, #0x3                   	// #3
   55af4:	140001b4 	b	561c4 <prepare_ddr_timing+0x24c8>
   55af8:	52807d02 	mov	w2, #0x3e8                 	// #1000
   55afc:	52800000 	mov	w0, #0x0                   	// #0
   55b00:	110fa000 	add	w0, w0, #0x3e8
   55b04:	52807d06 	mov	w6, #0x3e8                 	// #1000
   55b08:	4b4204c2 	sub	w2, w6, w2, lsr #1
   55b0c:	5155f42b 	sub	w11, w1, #0x57d, lsl #12
   55b10:	513b316b 	sub	w11, w11, #0xecc
   55b14:	12a05fe7 	mov	w7, #0xfd00ffff            	// #-50266113
   55b18:	1b067c00 	mul	w0, w0, w6
   55b1c:	1ac30800 	udiv	w0, w0, w3
   55b20:	0b020000 	add	w0, w0, w2
   55b24:	1ac60802 	udiv	w2, w0, w6
   55b28:	1b068040 	msub	w0, w2, w6, w0
   55b2c:	53175800 	lsl	w0, w0, #9
   55b30:	1ac60800 	udiv	w0, w0, w6
   55b34:	b9400166 	ldr	w6, [x11]
   55b38:	0a0700c6 	and	w6, w6, w7
   55b3c:	2a0040c6 	orr	w6, w6, w0, lsl #16
   55b40:	b9000166 	str	w6, [x11]
   55b44:	5155f42b 	sub	w11, w1, #0x57d, lsl #12
   55b48:	5133316b 	sub	w11, w11, #0xccc
   55b4c:	b9400166 	ldr	w6, [x11]
   55b50:	0a0700c6 	and	w6, w6, w7
   55b54:	2a0040c6 	orr	w6, w6, w0, lsl #16
   55b58:	b9000166 	str	w6, [x11]
   55b5c:	5155f42b 	sub	w11, w1, #0x57d, lsl #12
   55b60:	512b316b 	sub	w11, w11, #0xacc
   55b64:	b9400166 	ldr	w6, [x11]
   55b68:	0a0700c6 	and	w6, w6, w7
   55b6c:	2a0040c6 	orr	w6, w6, w0, lsl #16
   55b70:	b9000166 	str	w6, [x11]
   55b74:	5155f42b 	sub	w11, w1, #0x57d, lsl #12
   55b78:	5123316b 	sub	w11, w11, #0x8cc
   55b7c:	b9400166 	ldr	w6, [x11]
   55b80:	0a0700c7 	and	w7, w6, w7
   55b84:	5155f426 	sub	w6, w1, #0x57d, lsl #12
   55b88:	513f60c6 	sub	w6, w6, #0xfd8
   55b8c:	2a0040e7 	orr	w7, w7, w0, lsl #16
   55b90:	b9000167 	str	w7, [x11]
   55b94:	52805787 	mov	w7, #0x2bc                 	// #700
   55b98:	b94000c0 	ldr	w0, [x6]
   55b9c:	121c6c00 	and	w0, w0, #0xfffffff0
   55ba0:	2a020000 	orr	w0, w0, w2
   55ba4:	b90000c0 	str	w0, [x6]
   55ba8:	5155f426 	sub	w6, w1, #0x57d, lsl #12
   55bac:	513760c6 	sub	w6, w6, #0xdd8
   55bb0:	b94000c0 	ldr	w0, [x6]
   55bb4:	121c6c00 	and	w0, w0, #0xfffffff0
   55bb8:	2a020000 	orr	w0, w0, w2
   55bbc:	b90000c0 	str	w0, [x6]
   55bc0:	5155f426 	sub	w6, w1, #0x57d, lsl #12
   55bc4:	512f60c6 	sub	w6, w6, #0xbd8
   55bc8:	b94000c0 	ldr	w0, [x6]
   55bcc:	121c6c00 	and	w0, w0, #0xfffffff0
   55bd0:	2a020000 	orr	w0, w0, w2
   55bd4:	b90000c0 	str	w0, [x6]
   55bd8:	0b110026 	add	w6, w1, w17
   55bdc:	b94000c0 	ldr	w0, [x6]
   55be0:	121c6c00 	and	w0, w0, #0xfffffff0
   55be4:	2a020002 	orr	w2, w0, w2
   55be8:	b9406fe0 	ldr	w0, [sp, #108]
   55bec:	b90000c2 	str	w2, [x6]
   55bf0:	0b120026 	add	w6, w1, w18
   55bf4:	1ac30800 	udiv	w0, w0, w3
   55bf8:	b94000c2 	ldr	w2, [x6]
   55bfc:	120c6c42 	and	w2, w2, #0xfff0ffff
   55c00:	11000800 	add	w0, w0, #0x2
   55c04:	2a004042 	orr	w2, w2, w0, lsl #16
   55c08:	b90000c2 	str	w2, [x6]
   55c0c:	0b1e0026 	add	w6, w1, w30
   55c10:	b94000c2 	ldr	w2, [x6]
   55c14:	120c6c42 	and	w2, w2, #0xfff0ffff
   55c18:	2a004042 	orr	w2, w2, w0, lsl #16
   55c1c:	b90000c2 	str	w2, [x6]
   55c20:	0b160026 	add	w6, w1, w22
   55c24:	b94000c2 	ldr	w2, [x6]
   55c28:	120c6c42 	and	w2, w2, #0xfff0ffff
   55c2c:	2a004042 	orr	w2, w2, w0, lsl #16
   55c30:	b90000c2 	str	w2, [x6]
   55c34:	0b170026 	add	w6, w1, w23
   55c38:	b94000c2 	ldr	w2, [x6]
   55c3c:	120c6c42 	and	w2, w2, #0xfff0ffff
   55c40:	2a004040 	orr	w0, w2, w0, lsl #16
   55c44:	52817702 	mov	w2, #0xbb8                 	// #3000
   55c48:	b90000c0 	str	w0, [x6]
   55c4c:	1ac30840 	udiv	w0, w2, w3
   55c50:	1b038802 	msub	w2, w0, w3, w2
   55c54:	7100005f 	cmp	w2, #0x0
   55c58:	1ac308e2 	udiv	w2, w7, w3
   55c5c:	1a800400 	cinc	w0, w0, ne  // ne = any
   55c60:	51000406 	sub	w6, w0, #0x1
   55c64:	1b039c43 	msub	w3, w2, w3, w7
   55c68:	7100007f 	cmp	w3, #0x0
   55c6c:	1a820442 	cinc	w2, w2, ne  // ne = any
   55c70:	6b0200c3 	subs	w3, w6, w2
   55c74:	1a9f8063 	csel	w3, w3, wzr, hi  // hi = pmore
   55c78:	6b0f00df 	cmp	w6, w15
   55c7c:	54003048 	b.hi	56284 <prepare_ddr_timing+0x2588>  // b.pmore
   55c80:	4b0001c0 	sub	w0, w14, w0
   55c84:	7100041f 	cmp	w0, #0x1
   55c88:	54000048 	b.hi	55c90 <prepare_ddr_timing+0x1f94>  // b.pmore
   55c8c:	4b0300c3 	sub	w3, w6, w3
   55c90:	0b18003c 	add	w28, w1, w24
   55c94:	0b19003b 	add	w27, w1, w25
   55c98:	5155f43a 	sub	w26, w1, #0x57d, lsl #12
   55c9c:	5155f430 	sub	w16, w1, #0x57d, lsl #12
   55ca0:	512f735a 	sub	w26, w26, #0xbdc
   55ca4:	51277210 	sub	w16, w16, #0x9dc
   55ca8:	b9400380 	ldr	w0, [x28]
   55cac:	5155f427 	sub	w7, w1, #0x57d, lsl #12
   55cb0:	513aa0e7 	sub	w7, w7, #0xea8
   55cb4:	5155f42d 	sub	w13, w1, #0x57d, lsl #12
   55cb8:	120c6c00 	and	w0, w0, #0xfff0ffff
   55cbc:	5132a1ad 	sub	w13, w13, #0xca8
   55cc0:	2a034000 	orr	w0, w0, w3, lsl #16
   55cc4:	b9000380 	str	w0, [x28]
   55cc8:	5155f42c 	sub	w12, w1, #0x57d, lsl #12
   55ccc:	5155f42b 	sub	w11, w1, #0x57d, lsl #12
   55cd0:	b9400360 	ldr	w0, [x27]
   55cd4:	512aa18c 	sub	w12, w12, #0xaa8
   55cd8:	5122a16b 	sub	w11, w11, #0x8a8
   55cdc:	6b0200df 	cmp	w6, w2
   55ce0:	120c6c00 	and	w0, w0, #0xfff0ffff
   55ce4:	2a034000 	orr	w0, w0, w3, lsl #16
   55ce8:	b9000360 	str	w0, [x27]
   55cec:	b9400340 	ldr	w0, [x26]
   55cf0:	120c6c00 	and	w0, w0, #0xfff0ffff
   55cf4:	2a034000 	orr	w0, w0, w3, lsl #16
   55cf8:	b9000340 	str	w0, [x26]
   55cfc:	b9400200 	ldr	w0, [x16]
   55d00:	120c6c00 	and	w0, w0, #0xfff0ffff
   55d04:	2a034000 	orr	w0, w0, w3, lsl #16
   55d08:	b9000200 	str	w0, [x16]
   55d0c:	b94000e0 	ldr	w0, [x7]
   55d10:	121c6c00 	and	w0, w0, #0xfffffff0
   55d14:	2a030000 	orr	w0, w0, w3
   55d18:	b90000e0 	str	w0, [x7]
   55d1c:	b94001a0 	ldr	w0, [x13]
   55d20:	121c6c00 	and	w0, w0, #0xfffffff0
   55d24:	2a030000 	orr	w0, w0, w3
   55d28:	b90001a0 	str	w0, [x13]
   55d2c:	b9400180 	ldr	w0, [x12]
   55d30:	121c6c00 	and	w0, w0, #0xfffffff0
   55d34:	2a030000 	orr	w0, w0, w3
   55d38:	b9000180 	str	w0, [x12]
   55d3c:	b9400160 	ldr	w0, [x11]
   55d40:	121c6c00 	and	w0, w0, #0xfffffff0
   55d44:	2a030003 	orr	w3, w0, w3
   55d48:	b9000163 	str	w3, [x11]
   55d4c:	4b060040 	sub	w0, w2, w6
   55d50:	1a9f3000 	csel	w0, w0, wzr, cc  // cc = lo, ul, last
   55d54:	6b0f00df 	cmp	w6, w15
   55d58:	54000048 	b.hi	55d60 <prepare_ddr_timing+0x2064>  // b.pmore
   55d5c:	0b0000c2 	add	w2, w6, w0
   55d60:	b9400380 	ldr	w0, [x28]
   55d64:	5155f423 	sub	w3, w1, #0x57d, lsl #12
   55d68:	513ab063 	sub	w3, w3, #0xeac
   55d6c:	5155f426 	sub	w6, w1, #0x57d, lsl #12
   55d70:	12146c00 	and	w0, w0, #0xfffff0ff
   55d74:	513ac0c6 	sub	w6, w6, #0xeb0
   55d78:	2a022000 	orr	w0, w0, w2, lsl #8
   55d7c:	b9000380 	str	w0, [x28]
   55d80:	710a689f 	cmp	w4, #0x29a
   55d84:	b9400360 	ldr	w0, [x27]
   55d88:	12146c00 	and	w0, w0, #0xfffff0ff
   55d8c:	2a022000 	orr	w0, w0, w2, lsl #8
   55d90:	b9000360 	str	w0, [x27]
   55d94:	b9400340 	ldr	w0, [x26]
   55d98:	12146c00 	and	w0, w0, #0xfffff0ff
   55d9c:	2a022000 	orr	w0, w0, w2, lsl #8
   55da0:	b9000340 	str	w0, [x26]
   55da4:	b9400200 	ldr	w0, [x16]
   55da8:	12146c00 	and	w0, w0, #0xfffff0ff
   55dac:	2a022000 	orr	w0, w0, w2, lsl #8
   55db0:	b9000200 	str	w0, [x16]
   55db4:	b9400060 	ldr	w0, [x3]
   55db8:	12046c00 	and	w0, w0, #0xf0ffffff
   55dbc:	2a026000 	orr	w0, w0, w2, lsl #24
   55dc0:	b9000060 	str	w0, [x3]
   55dc4:	5155f423 	sub	w3, w1, #0x57d, lsl #12
   55dc8:	5132b063 	sub	w3, w3, #0xcac
   55dcc:	b9400060 	ldr	w0, [x3]
   55dd0:	12046c00 	and	w0, w0, #0xf0ffffff
   55dd4:	2a026000 	orr	w0, w0, w2, lsl #24
   55dd8:	b9000060 	str	w0, [x3]
   55ddc:	5155f423 	sub	w3, w1, #0x57d, lsl #12
   55de0:	512ab063 	sub	w3, w3, #0xaac
   55de4:	b9400060 	ldr	w0, [x3]
   55de8:	12046c00 	and	w0, w0, #0xf0ffffff
   55dec:	2a026000 	orr	w0, w0, w2, lsl #24
   55df0:	b9000060 	str	w0, [x3]
   55df4:	5155f423 	sub	w3, w1, #0x57d, lsl #12
   55df8:	5122b063 	sub	w3, w3, #0x8ac
   55dfc:	b9400060 	ldr	w0, [x3]
   55e00:	12046c00 	and	w0, w0, #0xf0ffffff
   55e04:	2a026002 	orr	w2, w0, w2, lsl #24
   55e08:	b9000062 	str	w2, [x3]
   55e0c:	5155f420 	sub	w0, w1, #0x57d, lsl #12
   55e10:	5155f423 	sub	w3, w1, #0x57d, lsl #12
   55e14:	b94000d0 	ldr	w16, [x6]
   55e18:	5155f422 	sub	w2, w1, #0x57d, lsl #12
   55e1c:	5122c000 	sub	w0, w0, #0x8b0
   55e20:	5132c063 	sub	w3, w3, #0xcb0
   55e24:	512ac042 	sub	w2, w2, #0xab0
   55e28:	54002328 	b.hi	5628c <prepare_ddr_timing+0x2590>  // b.pmore
   55e2c:	120f7a10 	and	w16, w16, #0xfffeffff
   55e30:	b90000d0 	str	w16, [x6]
   55e34:	b9400066 	ldr	w6, [x3]
   55e38:	120f78c6 	and	w6, w6, #0xfffeffff
   55e3c:	b9000066 	str	w6, [x3]
   55e40:	b9400043 	ldr	w3, [x2]
   55e44:	120f7863 	and	w3, w3, #0xfffeffff
   55e48:	b9000043 	str	w3, [x2]
   55e4c:	b9400002 	ldr	w2, [x0]
   55e50:	120f7842 	and	w2, w2, #0xfffeffff
   55e54:	b9000002 	str	w2, [x0]
   55e58:	b9403660 	ldr	w0, [x19, #52]
   55e5c:	71000c1f 	cmp	w0, #0x3
   55e60:	540022c0 	b.eq	562b8 <prepare_ddr_timing+0x25bc>  // b.none
   55e64:	7100181f 	cmp	w0, #0x6
   55e68:	5281b582 	mov	w2, #0xdac                 	// #3500
   55e6c:	52813880 	mov	w0, #0x9c4                 	// #2500
   55e70:	1a800040 	csel	w0, w2, w0, eq  // eq = none
   55e74:	7104109f 	cmp	w4, #0x104
   55e78:	54002248 	b.hi	562c0 <prepare_ddr_timing+0x25c4>  // b.pmore
   55e7c:	528c8e02 	mov	w2, #0x6470                	// #25712
   55e80:	5155f423 	sub	w3, w1, #0x57d, lsl #12
   55e84:	72a00102 	movk	w2, #0x8, lsl #16
   55e88:	511fe063 	sub	w3, w3, #0x7f8
   55e8c:	5294001c 	mov	w28, #0xa000                	// #40960
   55e90:	5285009a 	mov	w26, #0x2804                	// #10244
   55e94:	1ac40842 	udiv	w2, w2, w4
   55e98:	72a0009c 	movk	w28, #0x4, lsl #16
   55e9c:	5280141b 	mov	w27, #0xa0                  	// #160
   55ea0:	72bff51a 	movk	w26, #0xffa8, lsl #16
   55ea4:	0b000042 	add	w2, w2, w0
   55ea8:	1b027c86 	mul	w6, w4, w2
   55eac:	1aca08c6 	udiv	w6, w6, w10
   55eb0:	1b0a7cc0 	mul	w0, w6, w10
   55eb4:	1ac40800 	udiv	w0, w0, w4
   55eb8:	4b000042 	sub	w2, w2, w0
   55ebc:	b9400060 	ldr	w0, [x3]
   55ec0:	32000000 	orr	w0, w0, #0x1
   55ec4:	b9000060 	str	w0, [x3]
   55ec8:	5155f423 	sub	w3, w1, #0x57d, lsl #12
   55ecc:	1b047c42 	mul	w2, w2, w4
   55ed0:	5117e063 	sub	w3, w3, #0x5f8
   55ed4:	53175842 	lsl	w2, w2, #9
   55ed8:	b9400060 	ldr	w0, [x3]
   55edc:	1aca0842 	udiv	w2, w2, w10
   55ee0:	32000000 	orr	w0, w0, #0x1
   55ee4:	b9000060 	str	w0, [x3]
   55ee8:	5155f423 	sub	w3, w1, #0x57d, lsl #12
   55eec:	510fe063 	sub	w3, w3, #0x3f8
   55ef0:	b9400060 	ldr	w0, [x3]
   55ef4:	32000000 	orr	w0, w0, #0x1
   55ef8:	b9000060 	str	w0, [x3]
   55efc:	5155f420 	sub	w0, w1, #0x57d, lsl #12
   55f00:	513ff000 	sub	w0, w0, #0xffc
   55f04:	2a0003f0 	mov	w16, w0
   55f08:	b9400203 	ldr	w3, [x16]
   55f0c:	120d5063 	and	w3, w3, #0xfff800ff
   55f10:	2a1c0063 	orr	w3, w3, w28
   55f14:	b9000203 	str	w3, [x16]
   55f18:	1100a010 	add	w16, w0, #0x28
   55f1c:	b9400203 	ldr	w3, [x16]
   55f20:	12165463 	and	w3, w3, #0xfffffc00
   55f24:	2a1b0063 	orr	w3, w3, w27
   55f28:	b9000203 	str	w3, [x16]
   55f2c:	11001010 	add	w16, w0, #0x4
   55f30:	b9400203 	ldr	w3, [x16]
   55f34:	12165463 	and	w3, w3, #0xfffffc00
   55f38:	2a020063 	orr	w3, w3, w2
   55f3c:	b9000203 	str	w3, [x16]
   55f40:	1104d010 	add	w16, w0, #0x134
   55f44:	11080000 	add	w0, w0, #0x200
   55f48:	b9400203 	ldr	w3, [x16]
   55f4c:	121c6c63 	and	w3, w3, #0xfffffff0
   55f50:	2a060063 	orr	w3, w3, w6
   55f54:	b9000203 	str	w3, [x16]
   55f58:	0b1a0023 	add	w3, w1, w26
   55f5c:	6b00007f 	cmp	w3, w0
   55f60:	54fffd21 	b.ne	55f04 <prepare_ddr_timing+0x2208>  // b.any
   55f64:	5155f426 	sub	w6, w1, #0x57d, lsl #12
   55f68:	5107f0c6 	sub	w6, w6, #0x1fc
   55f6c:	2a0303e2 	mov	w2, w3
   55f70:	11080063 	add	w3, w3, #0x200
   55f74:	6b0300df 	cmp	w6, w3
   55f78:	b9400040 	ldr	w0, [x2]
   55f7c:	12055000 	and	w0, w0, #0xf800ffff
   55f80:	32090000 	orr	w0, w0, #0x800000
   55f84:	b9000040 	str	w0, [x2]
   55f88:	54ffff21 	b.ne	55f6c <prepare_ddr_timing+0x2270>  // b.any
   55f8c:	b94000e0 	ldr	w0, [x7]
   55f90:	7216041f 	tst	w0, #0xc00
   55f94:	54000321 	b.ne	55ff8 <prepare_ddr_timing+0x22fc>  // b.any
   55f98:	2a1403e0 	mov	w0, w20
   55f9c:	5155f422 	sub	w2, w1, #0x57d, lsl #12
   55fa0:	8b284403 	add	x3, x0, w8, uxtw #1
   55fa4:	5155f430 	sub	w16, w1, #0x57d, lsl #12
   55fa8:	f0000080 	adrp	x0, 68000 <dist_ctx+0x1e98>
   55fac:	91351000 	add	x0, x0, #0xd44
   55fb0:	513c1042 	sub	w2, w2, #0xf04
   55fb4:	8b031000 	add	x0, x0, x3, lsl #4
   55fb8:	511c1210 	sub	w16, w16, #0x704
   55fbc:	2a0203e3 	mov	w3, w2
   55fc0:	b9400066 	ldr	w6, [x3]
   55fc4:	d35064c6 	ubfx	x6, x6, #16, #10
   55fc8:	b8004406 	str	w6, [x0], #4
   55fcc:	b9400066 	ldr	w6, [x3]
   55fd0:	120654c6 	and	w6, w6, #0xfc00ffff
   55fd4:	b9000066 	str	w6, [x3]
   55fd8:	1100f046 	add	w6, w2, #0x3c
   55fdc:	11080042 	add	w2, w2, #0x200
   55fe0:	6b02021f 	cmp	w16, w2
   55fe4:	b94000c3 	ldr	w3, [x6]
   55fe8:	12157063 	and	w3, w3, #0xfffff8ff
   55fec:	32180063 	orr	w3, w3, #0x100
   55ff0:	b90000c3 	str	w3, [x6]
   55ff4:	54fffe41 	b.ne	55fbc <prepare_ddr_timing+0x22c0>  // b.any
   55ff8:	b94000e0 	ldr	w0, [x7]
   55ffc:	5155f422 	sub	w2, w1, #0x57d, lsl #12
   56000:	511dd042 	sub	w2, w2, #0x774
   56004:	11000508 	add	w8, w8, #0x1
   56008:	12146c00 	and	w0, w0, #0xfffff0ff
   5600c:	2a090000 	orr	w0, w0, w9
   56010:	b90000e0 	str	w0, [x7]
   56014:	b94001a0 	ldr	w0, [x13]
   56018:	12146c00 	and	w0, w0, #0xfffff0ff
   5601c:	2a090000 	orr	w0, w0, w9
   56020:	b90001a0 	str	w0, [x13]
   56024:	b9400180 	ldr	w0, [x12]
   56028:	12146c00 	and	w0, w0, #0xfffff0ff
   5602c:	2a090000 	orr	w0, w0, w9
   56030:	b9000180 	str	w0, [x12]
   56034:	b9400160 	ldr	w0, [x11]
   56038:	12146c00 	and	w0, w0, #0xfffff0ff
   5603c:	2a090000 	orr	w0, w0, w9
   56040:	b9000160 	str	w0, [x11]
   56044:	b9400040 	ldr	w0, [x2]
   56048:	120c6c00 	and	w0, w0, #0xfff0ffff
   5604c:	2a050000 	orr	w0, w0, w5
   56050:	b9000040 	str	w0, [x2]
   56054:	5155f422 	sub	w2, w1, #0x57d, lsl #12
   56058:	5115d042 	sub	w2, w2, #0x574
   5605c:	b9400040 	ldr	w0, [x2]
   56060:	120c6c00 	and	w0, w0, #0xfff0ffff
   56064:	2a050000 	orr	w0, w0, w5
   56068:	b9000040 	str	w0, [x2]
   5606c:	5155f422 	sub	w2, w1, #0x57d, lsl #12
   56070:	11402021 	add	w1, w1, #0x8, lsl #12
   56074:	510dd042 	sub	w2, w2, #0x374
   56078:	b9400040 	ldr	w0, [x2]
   5607c:	120c6c00 	and	w0, w0, #0xfff0ffff
   56080:	2a050000 	orr	w0, w0, w5
   56084:	b9000040 	str	w0, [x2]
   56088:	b9403e60 	ldr	w0, [x19, #60]
   5608c:	6b00011f 	cmp	w8, w0
   56090:	54000d82 	b.cs	56240 <prepare_ddr_timing+0x2544>  // b.hs, b.nlast
   56094:	5155f422 	sub	w2, w1, #0x57d, lsl #12
   56098:	12806023 	mov	w3, #0xfffffcfe            	// #-770
   5609c:	51080042 	sub	w2, w2, #0x200
   560a0:	b9400040 	ldr	w0, [x2]
   560a4:	0a030000 	and	w0, w0, w3
   560a8:	b94067e3 	ldr	w3, [sp, #100]
   560ac:	2a030000 	orr	w0, w0, w3
   560b0:	b9000040 	str	w0, [x2]
   560b4:	5155f420 	sub	w0, w1, #0x57d, lsl #12
   560b8:	5106f000 	sub	w0, w0, #0x1bc
   560bc:	b9403a62 	ldr	w2, [x19, #56]
   560c0:	7106405f 	cmp	w2, #0x190
   560c4:	b9400002 	ldr	w2, [x0]
   560c8:	54ffd0c9 	b.ls	55ae0 <prepare_ddr_timing+0x1de4>  // b.plast
   560cc:	121f7842 	and	w2, w2, #0xfffffffe
   560d0:	1ac40943 	udiv	w3, w10, w4
   560d4:	b9000002 	str	w2, [x0]
   560d8:	52813882 	mov	w2, #0x9c4                 	// #2500
   560dc:	5155f426 	sub	w6, w1, #0x57d, lsl #12
   560e0:	513a90c6 	sub	w6, w6, #0xea4
   560e4:	52822047 	mov	w7, #0x1102                	// #4354
   560e8:	1ac30840 	udiv	w0, w2, w3
   560ec:	1b038802 	msub	w2, w0, w3, w2
   560f0:	7100005f 	cmp	w2, #0x0
   560f4:	b94000c2 	ldr	w2, [x6]
   560f8:	1a800400 	cinc	w0, w0, ne  // ne = any
   560fc:	7106409f 	cmp	w4, #0x190
   56100:	11000c00 	add	w0, w0, #0x3
   56104:	120c6c42 	and	w2, w2, #0xfff0ffff
   56108:	2a004042 	orr	w2, w2, w0, lsl #16
   5610c:	b90000c2 	str	w2, [x6]
   56110:	5155f426 	sub	w6, w1, #0x57d, lsl #12
   56114:	513290c6 	sub	w6, w6, #0xca4
   56118:	b94000c2 	ldr	w2, [x6]
   5611c:	120c6c42 	and	w2, w2, #0xfff0ffff
   56120:	2a004042 	orr	w2, w2, w0, lsl #16
   56124:	b90000c2 	str	w2, [x6]
   56128:	5155f426 	sub	w6, w1, #0x57d, lsl #12
   5612c:	512a90c6 	sub	w6, w6, #0xaa4
   56130:	b94000c2 	ldr	w2, [x6]
   56134:	120c6c42 	and	w2, w2, #0xfff0ffff
   56138:	2a004042 	orr	w2, w2, w0, lsl #16
   5613c:	b90000c2 	str	w2, [x6]
   56140:	5155f426 	sub	w6, w1, #0x57d, lsl #12
   56144:	512290c6 	sub	w6, w6, #0x8a4
   56148:	b94000c2 	ldr	w2, [x6]
   5614c:	120c6c42 	and	w2, w2, #0xfff0ffff
   56150:	2a004040 	orr	w0, w2, w0, lsl #16
   56154:	b90000c0 	str	w0, [x6]
   56158:	5155f426 	sub	w6, w1, #0x57d, lsl #12
   5615c:	5155f422 	sub	w2, w1, #0x57d, lsl #12
   56160:	510710c6 	sub	w6, w6, #0x1c4
   56164:	51069042 	sub	w2, w2, #0x1a4
   56168:	b94000c0 	ldr	w0, [x6]
   5616c:	12134800 	and	w0, w0, #0xffffe000
   56170:	2a070000 	orr	w0, w0, w7
   56174:	b90000c0 	str	w0, [x6]
   56178:	b9400040 	ldr	w0, [x2]
   5617c:	12134800 	and	w0, w0, #0xffffe000
   56180:	2a070000 	orr	w0, w0, w7
   56184:	b9000040 	str	w0, [x2]
   56188:	52a02447 	mov	w7, #0x1220000             	// #19005440
   5618c:	b94000c0 	ldr	w0, [x6]
   56190:	12034800 	and	w0, w0, #0xe000ffff
   56194:	2a070000 	orr	w0, w0, w7
   56198:	b90000c0 	str	w0, [x6]
   5619c:	b9400040 	ldr	w0, [x2]
   561a0:	12034800 	and	w0, w0, #0xe000ffff
   561a4:	2a070007 	orr	w7, w0, w7
   561a8:	b9000047 	str	w7, [x2]
   561ac:	54ffc9e9 	b.ls	55ae8 <prepare_ddr_timing+0x1dec>  // b.plast
   561b0:	710c809f 	cmp	w4, #0x320
   561b4:	54ffc9e9 	b.ls	55af0 <prepare_ddr_timing+0x1df4>  // b.plast
   561b8:	710fa09f 	cmp	w4, #0x3e8
   561bc:	1a9f97e0 	cset	w0, hi  // hi = pmore
   561c0:	11001000 	add	w0, w0, #0x4
   561c4:	5155f426 	sub	w6, w1, #0x57d, lsl #12
   561c8:	510660c6 	sub	w6, w6, #0x198
   561cc:	b94000c2 	ldr	w2, [x6]
   561d0:	12046c42 	and	w2, w2, #0xf0ffffff
   561d4:	2a006040 	orr	w0, w2, w0, lsl #24
   561d8:	52800042 	mov	w2, #0x2                   	// #2
   561dc:	b90000c0 	str	w0, [x6]
   561e0:	52800020 	mov	w0, #0x1                   	// #1
   561e4:	b9406be6 	ldr	w6, [sp, #104]
   561e8:	6b0200df 	cmp	w6, w2
   561ec:	540000a3 	b.cc	56200 <prepare_ddr_timing+0x2504>  // b.lo, b.ul, b.last
   561f0:	11000400 	add	w0, w0, #0x1
   561f4:	531f7842 	lsl	w2, w2, #1
   561f8:	7100201f 	cmp	w0, #0x8
   561fc:	54ffff41 	b.ne	561e4 <prepare_ddr_timing+0x24e8>  // b.any
   56200:	5155f426 	sub	w6, w1, #0x57d, lsl #12
   56204:	5104d0c6 	sub	w6, w6, #0x134
   56208:	b94000c2 	ldr	w2, [x6]
   5620c:	12157042 	and	w2, w2, #0xfffff8ff
   56210:	2a002040 	orr	w0, w2, w0, lsl #8
   56214:	b90000c0 	str	w0, [x6]
   56218:	b9403660 	ldr	w0, [x19, #52]
   5621c:	71000c1f 	cmp	w0, #0x3
   56220:	54ffc6c0 	b.eq	55af8 <prepare_ddr_timing+0x1dfc>  // b.none
   56224:	71001c1f 	cmp	w0, #0x7
   56228:	54000220 	b.eq	5626c <prepare_ddr_timing+0x2570>  // b.none
   5622c:	7100181f 	cmp	w0, #0x6
   56230:	54000240 	b.eq	56278 <prepare_ddr_timing+0x257c>  // b.none
   56234:	d0000040 	adrp	x0, 60000 <version_string+0x6c>
   56238:	91058800 	add	x0, x0, #0x162
   5623c:	94001b15 	bl	5ce90 <tf_log>
   56240:	2a1403e0 	mov	w0, w20
   56244:	a94363f7 	ldp	x23, x24, [sp, #48]
   56248:	8b000a73 	add	x19, x19, x0, lsl #2
   5624c:	a9446bf9 	ldp	x25, x26, [sp, #64]
   56250:	2a1403e0 	mov	w0, w20
   56254:	a94573fb 	ldp	x27, x28, [sp, #80]
   56258:	b9000675 	str	w21, [x19, #4]
   5625c:	a94153f3 	ldp	x19, x20, [sp, #16]
   56260:	a9425bf5 	ldp	x21, x22, [sp, #32]
   56264:	a8df7bfd 	ldp	x29, x30, [sp], #496
   56268:	d65f03c0 	ret
   5626c:	52807082 	mov	w2, #0x384                 	// #900
   56270:	5280bb80 	mov	w0, #0x5dc                 	// #1500
   56274:	17fffe23 	b	55b00 <prepare_ddr_timing+0x1e04>
   56278:	52807082 	mov	w2, #0x384                 	// #900
   5627c:	52813880 	mov	w0, #0x9c4                 	// #2500
   56280:	17fffe20 	b	55b00 <prepare_ddr_timing+0x1e04>
   56284:	52800003 	mov	w3, #0x0                   	// #0
   56288:	17fffe82 	b	55c90 <prepare_ddr_timing+0x1f94>
   5628c:	32100210 	orr	w16, w16, #0x10000
   56290:	b90000d0 	str	w16, [x6]
   56294:	b9400066 	ldr	w6, [x3]
   56298:	321000c6 	orr	w6, w6, #0x10000
   5629c:	b9000066 	str	w6, [x3]
   562a0:	b9400043 	ldr	w3, [x2]
   562a4:	32100063 	orr	w3, w3, #0x10000
   562a8:	b9000043 	str	w3, [x2]
   562ac:	b9400002 	ldr	w2, [x0]
   562b0:	32100042 	orr	w2, w2, #0x10000
   562b4:	17fffee8 	b	55e54 <prepare_ddr_timing+0x2158>
   562b8:	52807d00 	mov	w0, #0x3e8                 	// #1000
   562bc:	17fffeee 	b	55e74 <prepare_ddr_timing+0x2178>
   562c0:	b94000e0 	ldr	w0, [x7]
   562c4:	7216041f 	tst	w0, #0xc00
   562c8:	54ffe980 	b.eq	55ff8 <prepare_ddr_timing+0x22fc>  // b.none
   562cc:	2a1403e0 	mov	w0, w20
   562d0:	5155f422 	sub	w2, w1, #0x57d, lsl #12
   562d4:	8b284403 	add	x3, x0, w8, uxtw #1
   562d8:	5155f430 	sub	w16, w1, #0x57d, lsl #12
   562dc:	d0000080 	adrp	x0, 68000 <dist_ctx+0x1e98>
   562e0:	91351000 	add	x0, x0, #0xd44
   562e4:	513c1042 	sub	w2, w2, #0xf04
   562e8:	8b031000 	add	x0, x0, x3, lsl #4
   562ec:	511c1210 	sub	w16, w16, #0x704
   562f0:	2a0203e6 	mov	w6, w2
   562f4:	b840441a 	ldr	w26, [x0], #4
   562f8:	b94000c3 	ldr	w3, [x6]
   562fc:	33102743 	bfi	w3, w26, #16, #10
   56300:	b90000c3 	str	w3, [x6]
   56304:	1100f046 	add	w6, w2, #0x3c
   56308:	11080042 	add	w2, w2, #0x200
   5630c:	6b02021f 	cmp	w16, w2
   56310:	b94000c3 	ldr	w3, [x6]
   56314:	12157063 	and	w3, w3, #0xfffff8ff
   56318:	b90000c3 	str	w3, [x6]
   5631c:	54fffea1 	b.ne	562f0 <prepare_ddr_timing+0x25f4>  // b.any
   56320:	17ffff36 	b	55ff8 <prepare_ddr_timing+0x22fc>

0000000000056324 <ddr_get_rate>:
   56324:	d2800881 	mov	x1, #0x44                  	// #68
   56328:	d2800802 	mov	x2, #0x40                  	// #64
   5632c:	f2bfeec1 	movk	x1, #0xff76, lsl #16
   56330:	f2bfeec2 	movk	x2, #0xff76, lsl #16
   56334:	b9400020 	ldr	w0, [x1]
   56338:	b9400043 	ldr	w3, [x2]
   5633c:	12001404 	and	w4, w0, #0x3f
   56340:	52800300 	mov	w0, #0x18                  	// #24
   56344:	12002c63 	and	w3, w3, #0xfff
   56348:	b9400022 	ldr	w2, [x1]
   5634c:	b9400021 	ldr	w1, [x1]
   56350:	1ac40800 	udiv	w0, w0, w4
   56354:	d3482842 	ubfx	x2, x2, #8, #3
   56358:	d34c3821 	ubfx	x1, x1, #12, #3
   5635c:	1b037c00 	mul	w0, w0, w3
   56360:	1ac20800 	udiv	w0, w0, w2
   56364:	1ac10800 	udiv	w0, w0, w1
   56368:	52884801 	mov	w1, #0x4240                	// #16960
   5636c:	72a001e1 	movk	w1, #0xf, lsl #16
   56370:	1b017c00 	mul	w0, w0, w1
   56374:	d65f03c0 	ret

0000000000056378 <exit_low_power>:
   56378:	d2806100 	mov	x0, #0x308                 	// #776
   5637c:	f2bfe640 	movk	x0, #0xff32, lsl #16
   56380:	b9400001 	ldr	w1, [x0]
   56384:	531c7c23 	lsr	w3, w1, #28
   56388:	d35c7020 	ubfx	x0, x1, #28, #1
   5638c:	36e00561 	tbz	w1, #28, 56438 <exit_low_power+0xc0>
   56390:	d2800080 	mov	x0, #0x4                   	// #4
   56394:	52a00021 	mov	w1, #0x10000               	// #65536
   56398:	f2bfec40 	movk	x0, #0xff62, lsl #16
   5639c:	b9000001 	str	w1, [x0]
   563a0:	d2800481 	mov	x1, #0x24                  	// #36
   563a4:	f2bfe621 	movk	x1, #0xff31, lsl #16
   563a8:	b9400020 	ldr	w0, [x1]
   563ac:	b9400022 	ldr	w2, [x1]
   563b0:	53087c00 	lsr	w0, w0, #8
   563b4:	12177842 	and	w2, w2, #0xfffffeff
   563b8:	b9000022 	str	w2, [x1]
   563bc:	d2801302 	mov	x2, #0x98                  	// #152
   563c0:	531c0000 	ubfiz	w0, w0, #4, #1
   563c4:	f2bfe622 	movk	x2, #0xff31, lsl #16
   563c8:	b9400041 	ldr	w1, [x2]
   563cc:	3607ffe1 	tbz	w1, #0, 563c8 <exit_low_power+0x50>
   563d0:	d2803282 	mov	x2, #0x194                 	// #404
   563d4:	f2bff502 	movk	x2, #0xffa8, lsl #16
   563d8:	b9400041 	ldr	w1, [x2]
   563dc:	121d7021 	and	w1, w1, #0xfffffff8
   563e0:	b9000041 	str	w1, [x2]
   563e4:	d2803201 	mov	x1, #0x190                 	// #400
   563e8:	f2bff501 	movk	x1, #0xffa8, lsl #16
   563ec:	b9400021 	ldr	w1, [x1]
   563f0:	d3587821 	ubfx	x1, x1, #24, #7
   563f4:	7101003f 	cmp	w1, #0x40
   563f8:	54000200 	b.eq	56438 <exit_low_power+0xc0>  // b.none
   563fc:	91063042 	add	x2, x2, #0x18c
   56400:	b9400041 	ldr	w1, [x2]
   56404:	3707ffe1 	tbnz	w1, #0, 56400 <exit_low_power+0x88>
   56408:	d2802e82 	mov	x2, #0x174                 	// #372
   5640c:	52ad2004 	mov	w4, #0x69000000            	// #1761607680
   56410:	f2bff502 	movk	x2, #0xffa8, lsl #16
   56414:	91007042 	add	x2, x2, #0x1c
   56418:	b85e4041 	ldur	w1, [x2, #-28]
   5641c:	12005c21 	and	w1, w1, #0xffffff
   56420:	2a040021 	orr	w1, w1, w4
   56424:	b81e4041 	stur	w1, [x2, #-28]
   56428:	b9400041 	ldr	w1, [x2]
   5642c:	d3587821 	ubfx	x1, x1, #24, #7
   56430:	7101003f 	cmp	w1, #0x40
   56434:	54ffffa1 	b.ne	56428 <exit_low_power+0xb0>  // b.any
   56438:	36080563 	tbz	w3, #1, 564e4 <exit_low_power+0x16c>
   5643c:	d2800081 	mov	x1, #0x4                   	// #4
   56440:	52a00042 	mov	w2, #0x20000               	// #131072
   56444:	f2bfec41 	movk	x1, #0xff62, lsl #16
   56448:	b9000022 	str	w2, [x1]
   5644c:	d2800481 	mov	x1, #0x24                  	// #36
   56450:	f2bfe621 	movk	x1, #0xff31, lsl #16
   56454:	b9400022 	ldr	w2, [x1]
   56458:	12140042 	and	w2, w2, #0x1000
   5645c:	2a020000 	orr	w0, w0, w2
   56460:	b9400022 	ldr	w2, [x1]
   56464:	12137842 	and	w2, w2, #0xffffefff
   56468:	b9000022 	str	w2, [x1]
   5646c:	d2801302 	mov	x2, #0x98                  	// #152
   56470:	f2bfe622 	movk	x2, #0xff31, lsl #16
   56474:	b9400041 	ldr	w1, [x2]
   56478:	360fffe1 	tbz	w1, #1, 56474 <exit_low_power+0xfc>
   5647c:	d2903282 	mov	x2, #0x8194                	// #33172
   56480:	f2bff502 	movk	x2, #0xffa8, lsl #16
   56484:	b9400041 	ldr	w1, [x2]
   56488:	121d7021 	and	w1, w1, #0xfffffff8
   5648c:	b9000041 	str	w1, [x2]
   56490:	d2903201 	mov	x1, #0x8190                	// #33168
   56494:	f2bff501 	movk	x1, #0xffa8, lsl #16
   56498:	b9400021 	ldr	w1, [x1]
   5649c:	d3587821 	ubfx	x1, x1, #24, #7
   564a0:	7101003f 	cmp	w1, #0x40
   564a4:	54000200 	b.eq	564e4 <exit_low_power+0x16c>  // b.none
   564a8:	91063042 	add	x2, x2, #0x18c
   564ac:	b9400041 	ldr	w1, [x2]
   564b0:	3707ffe1 	tbnz	w1, #0, 564ac <exit_low_power+0x134>
   564b4:	d2902e82 	mov	x2, #0x8174                	// #33140
   564b8:	52ad2003 	mov	w3, #0x69000000            	// #1761607680
   564bc:	f2bff502 	movk	x2, #0xffa8, lsl #16
   564c0:	91007042 	add	x2, x2, #0x1c
   564c4:	b85e4041 	ldur	w1, [x2, #-28]
   564c8:	12005c21 	and	w1, w1, #0xffffff
   564cc:	2a030021 	orr	w1, w1, w3
   564d0:	b81e4041 	stur	w1, [x2, #-28]
   564d4:	b9400041 	ldr	w1, [x2]
   564d8:	d3587821 	ubfx	x1, x1, #24, #7
   564dc:	7101003f 	cmp	w1, #0x40
   564e0:	54ffffa1 	b.ne	564d4 <exit_low_power+0x15c>  // b.any
   564e4:	d65f03c0 	ret

00000000000564e8 <resume_low_power>:
   564e8:	d2806101 	mov	x1, #0x308                 	// #776
   564ec:	f2bfe641 	movk	x1, #0xff32, lsl #16
   564f0:	b9400021 	ldr	w1, [x1]
   564f4:	531c7c23 	lsr	w3, w1, #28
   564f8:	36e00261 	tbz	w1, #28, 56544 <resume_low_power+0x5c>
   564fc:	d2800482 	mov	x2, #0x24                  	// #36
   56500:	53047c01 	lsr	w1, w0, #4
   56504:	f2bfe622 	movk	x2, #0xff31, lsl #16
   56508:	53180021 	ubfiz	w1, w1, #8, #1
   5650c:	b9400044 	ldr	w4, [x2]
   56510:	2a040021 	orr	w1, w1, w4
   56514:	b9000041 	str	w1, [x2]
   56518:	d2803282 	mov	x2, #0x194                 	// #404
   5651c:	12000801 	and	w1, w0, #0x7
   56520:	f2bff502 	movk	x2, #0xffa8, lsl #16
   56524:	b9400044 	ldr	w4, [x2]
   56528:	2a040021 	orr	w1, w1, w4
   5652c:	b9000041 	str	w1, [x2]
   56530:	d2800082 	mov	x2, #0x4                   	// #4
   56534:	d3430c01 	ubfx	x1, x0, #3, #1
   56538:	f2bfec42 	movk	x2, #0xff62, lsl #16
   5653c:	32100021 	orr	w1, w1, #0x10000
   56540:	b9000041 	str	w1, [x2]
   56544:	36080263 	tbz	w3, #1, 56590 <resume_low_power+0xa8>
   56548:	d2800482 	mov	x2, #0x24                  	// #36
   5654c:	12140001 	and	w1, w0, #0x1000
   56550:	f2bfe622 	movk	x2, #0xff31, lsl #16
   56554:	b9400043 	ldr	w3, [x2]
   56558:	2a030021 	orr	w1, w1, w3
   5655c:	b9000041 	str	w1, [x2]
   56560:	d2903282 	mov	x2, #0x8194                	// #33172
   56564:	d3482801 	ubfx	x1, x0, #8, #3
   56568:	f2bff502 	movk	x2, #0xffa8, lsl #16
   5656c:	530b7c00 	lsr	w0, w0, #11
   56570:	b9400043 	ldr	w3, [x2]
   56574:	531f0000 	ubfiz	w0, w0, #1, #1
   56578:	320f0000 	orr	w0, w0, #0x20000
   5657c:	2a030021 	orr	w1, w1, w3
   56580:	b9000041 	str	w1, [x2]
   56584:	d2800081 	mov	x1, #0x4                   	// #4
   56588:	f2bfec41 	movk	x1, #0xff62, lsl #16
   5658c:	b9000020 	str	w0, [x1]
   56590:	d65f03c0 	ret

0000000000056594 <dram_dfs_init>:
   56594:	f07f9ac2 	adrp	x2, ff3b1000 <rk3399m0pmu_bin>
   56598:	91090042 	add	x2, x2, #0x240
   5659c:	a9bf7bfd 	stp	x29, x30, [sp, #-16]!
   565a0:	d0000088 	adrp	x8, 68000 <dist_ctx+0x1e98>
   565a4:	9132c106 	add	x6, x8, #0xcb0
   565a8:	910003fd 	mov	x29, sp
   565ac:	39413043 	ldrb	w3, [x2, #76]
   565b0:	71000c7f 	cmp	w3, #0x3
   565b4:	540003a0 	b.eq	56628 <dram_dfs_init+0x94>  // b.none
   565b8:	d2804500 	mov	x0, #0x228                 	// #552
   565bc:	d2804581 	mov	x1, #0x22c                 	// #556
   565c0:	7100187f 	cmp	w3, #0x6
   565c4:	f2bff500 	movk	x0, #0xffa8, lsl #16
   565c8:	f2bff501 	movk	x1, #0xffa8, lsl #16
   565cc:	54001a60 	b.eq	56918 <dram_dfs_init+0x384>  // b.none
   565d0:	b9400004 	ldr	w4, [x0]
   565d4:	b9400020 	ldr	w0, [x1]
   565d8:	d3431484 	ubfx	x4, x4, #3, #3
   565dc:	7100009f 	cmp	w4, #0x0
   565e0:	53187c01 	lsr	w1, w0, #24
   565e4:	7a471884 	ccmp	w4, #0x7, #0x4, ne  // ne = any
   565e8:	54001e40 	b.eq	569b0 <dram_dfs_init+0x41c>  // b.none
   565ec:	52801e05 	mov	w5, #0xf0                  	// #240
   565f0:	1ac408a4 	udiv	w4, w5, w4
   565f4:	b9007cc4 	str	w4, [x6, #124]
   565f8:	72000821 	ands	w1, w1, #0x7
   565fc:	7a471824 	ccmp	w1, #0x7, #0x4, ne  // ne = any
   56600:	54001dc0 	b.eq	569b8 <dram_dfs_init+0x424>  // b.none
   56604:	52801e04 	mov	w4, #0xf0                  	// #240
   56608:	1ac10881 	udiv	w1, w4, w1
   5660c:	d35c7800 	ubfx	x0, x0, #28, #3
   56610:	b90080c1 	str	w1, [x6, #128]
   56614:	7100001f 	cmp	w0, #0x0
   56618:	7a471804 	ccmp	w0, #0x7, #0x4, ne  // ne = any
   5661c:	54001d21 	b.ne	569c0 <dram_dfs_init+0x42c>  // b.any
   56620:	b90084df 	str	wzr, [x6, #132]
   56624:	14000010 	b	56664 <dram_dfs_init+0xd0>
   56628:	d2804280 	mov	x0, #0x214                 	// #532
   5662c:	52800504 	mov	w4, #0x28                  	// #40
   56630:	f2bff500 	movk	x0, #0xffa8, lsl #16
   56634:	b9400000 	ldr	w0, [x0]
   56638:	53147c01 	lsr	w1, w0, #20
   5663c:	2a404421 	orr	w1, w1, w0, lsr #17
   56640:	f240003f 	tst	x1, #0x1
   56644:	52800441 	mov	w1, #0x22                  	// #34
   56648:	1a841021 	csel	w1, w1, w4, ne  // ne = any
   5664c:	b9007cc1 	str	w1, [x6, #124]
   56650:	53157c01 	lsr	w1, w0, #21
   56654:	2a404821 	orr	w1, w1, w0, lsr #18
   56658:	2a405c20 	orr	w0, w1, w0, lsr #23
   5665c:	37001580 	tbnz	w0, #0, 5690c <dram_dfs_init+0x378>
   56660:	b90080df 	str	wzr, [x6, #128]
   56664:	3941344a 	ldrb	w10, [x2, #77]
   56668:	aa0603e4 	mov	x4, x6
   5666c:	52800009 	mov	w9, #0x0                   	// #0
   56670:	528002ae 	mov	w14, #0x15                  	// #21
   56674:	5280010b 	mov	w11, #0x8                   	// #8
   56678:	5280002c 	mov	w12, #0x1                   	// #1
   5667c:	5280008f 	mov	w15, #0x4                   	// #4
   56680:	52800070 	mov	w16, #0x3                   	// #3
   56684:	6b0a013f 	cmp	w9, w10
   56688:	54001a43 	b.cc	569d0 <dram_dfs_init+0x43c>  // b.lo, b.ul, b.last
   5668c:	b90034c3 	str	w3, [x6, #52]
   56690:	7100187f 	cmp	w3, #0x6
   56694:	b9003cca 	str	w10, [x6, #60]
   56698:	540000a0 	b.eq	566ac <dram_dfs_init+0x118>  // b.none
   5669c:	71001c7f 	cmp	w3, #0x7
   566a0:	54001e20 	b.eq	56a64 <dram_dfs_init+0x4d0>  // b.none
   566a4:	71000c7f 	cmp	w3, #0x3
   566a8:	54000061 	b.ne	566b4 <dram_dfs_init+0x120>  // b.any
   566ac:	52800100 	mov	w0, #0x8                   	// #8
   566b0:	29087cc0 	stp	w0, wzr, [x6, #64]
   566b4:	b9407cc0 	ldr	w0, [x6, #124]
   566b8:	52800144 	mov	w4, #0xa                   	// #10
   566bc:	b90058c0 	str	w0, [x6, #88]
   566c0:	528004e2 	mov	w2, #0x27                  	// #39
   566c4:	b94080c0 	ldr	w0, [x6, #128]
   566c8:	71000c7f 	cmp	w3, #0x3
   566cc:	b9005cc0 	str	w0, [x6, #92]
   566d0:	b94084c0 	ldr	w0, [x6, #132]
   566d4:	b90060c0 	str	w0, [x6, #96]
   566d8:	d2840280 	mov	x0, #0x2014                	// #8212
   566dc:	f2bff500 	movk	x0, #0xffa8, lsl #16
   566e0:	b9400000 	ldr	w0, [x0]
   566e4:	d3504000 	ubfx	x0, x0, #16, #1
   566e8:	b9004cc0 	str	w0, [x6, #76]
   566ec:	d2801800 	mov	x0, #0xc0                  	// #192
   566f0:	f2bff500 	movk	x0, #0xffa8, lsl #16
   566f4:	91001000 	add	x0, x0, #0x4
   566f8:	b85fc001 	ldur	w1, [x0, #-4]
   566fc:	b9400000 	ldr	w0, [x0]
   56700:	53107c21 	lsr	w1, w1, #16
   56704:	53107c00 	lsr	w0, w0, #16
   56708:	11002021 	add	w1, w1, #0x8
   5670c:	11002000 	add	w0, w0, #0x8
   56710:	1b047c21 	mul	w1, w1, w4
   56714:	1b047c00 	mul	w0, w0, w4
   56718:	1ac20821 	udiv	w1, w1, w2
   5671c:	1ac20800 	udiv	w0, w0, w2
   56720:	d2803782 	mov	x2, #0x1bc                 	// #444
   56724:	f2bff502 	movk	x2, #0xffa8, lsl #16
   56728:	290080c1 	stp	w1, w0, [x6, #4]
   5672c:	b9400047 	ldr	w7, [x2]
   56730:	d35044e7 	ubfx	x7, x7, #16, #2
   56734:	b90cb107 	str	w7, [x8, #3248]
   56738:	54000081 	b.ne	56748 <dram_dfs_init+0x1b4>  // b.any
   5673c:	53017c21 	lsr	w1, w1, #1
   56740:	53017c00 	lsr	w0, w0, #1
   56744:	290080c1 	stp	w1, w0, [x6, #4]
   56748:	d37e04e9 	ubfiz	x9, x7, #2, #2
   5674c:	8b0900c9 	add	x9, x6, x9
   56750:	b9400520 	ldr	w0, [x9, #4]
   56754:	97fff4ec 	bl	53b04 <to_get_clk_index>
   56758:	93407c00 	sxtw	x0, w0
   5675c:	d2800381 	mov	x1, #0x1c                  	// #28
   56760:	110004e7 	add	w7, w7, #0x1
   56764:	5280e004 	mov	w4, #0x700                 	// #1792
   56768:	9b017c00 	mul	x0, x0, x1
   5676c:	b0000041 	adrp	x1, 5f000 <fdt_ro_probe_+0x20>
   56770:	91332021 	add	x1, x1, #0xcc8
   56774:	d37e00e7 	ubfiz	x7, x7, #2, #1
   56778:	8b0700c7 	add	x7, x6, x7
   5677c:	72a00044 	movk	w4, #0x2, lsl #16
   56780:	b8606822 	ldr	w2, [x1, x0]
   56784:	d29c4001 	mov	x1, #0xe200                	// #57856
   56788:	f2bfeee1 	movk	x1, #0xff77, lsl #16
   5678c:	b9000522 	str	w2, [x9, #4]
   56790:	b90004ff 	str	wzr, [x7, #4]
   56794:	12800000 	mov	w0, #0xffffffff            	// #-1
   56798:	2901fcc2 	stp	w2, wzr, [x6, #12]
   5679c:	529e1e07 	mov	w7, #0xf0f0                	// #61680
   567a0:	b9000020 	str	w0, [x1]
   567a4:	72bfff07 	movk	w7, #0xfff8, lsl #16
   567a8:	b9000420 	str	w0, [x1, #4]
   567ac:	b9000820 	str	w0, [x1, #8]
   567b0:	b9000c20 	str	w0, [x1, #12]
   567b4:	d29c4200 	mov	x0, #0xe210                	// #57872
   567b8:	f2bfeee0 	movk	x0, #0xff77, lsl #16
   567bc:	32048be1 	mov	w1, #0x70007000            	// #1879076864
   567c0:	b9000001 	str	w1, [x0]
   567c4:	d285c001 	mov	x1, #0x2e00                	// #11776
   567c8:	f2bff501 	movk	x1, #0xffa8, lsl #16
   567cc:	b9400020 	ldr	w0, [x1]
   567d0:	121f7800 	and	w0, w0, #0xfffffffe
   567d4:	b9000020 	str	w0, [x1]
   567d8:	91402021 	add	x1, x1, #0x8, lsl #12
   567dc:	b9400020 	ldr	w0, [x1]
   567e0:	121f7800 	and	w0, w0, #0xfffffffe
   567e4:	b9000020 	str	w0, [x1]
   567e8:	52800001 	mov	w1, #0x0                   	// #0
   567ec:	b94034c0 	ldr	w0, [x6, #52]
   567f0:	b9403cc5 	ldr	w5, [x6, #60]
   567f4:	52803286 	mov	w6, #0x194                 	// #404
   567f8:	71000c1f 	cmp	w0, #0x3
   567fc:	5280e000 	mov	w0, #0x700                 	// #1792
   56800:	72a00060 	movk	w0, #0x3, lsl #16
   56804:	1a800084 	csel	w4, w4, w0, eq  // eq = none
   56808:	72bff506 	movk	w6, #0xffa8, lsl #16
   5680c:	6b0100bf 	cmp	w5, w1
   56810:	54001321 	b.ne	56a74 <dram_dfs_init+0x4e0>  // b.any
   56814:	d2800180 	mov	x0, #0xc                   	// #12
   56818:	52800101 	mov	w1, #0x8                   	// #8
   5681c:	f2bfec40 	movk	x0, #0xff62, lsl #16
   56820:	72a00c81 	movk	w1, #0x64, lsl #16
   56824:	710008bf 	cmp	w5, #0x2
   56828:	b9000001 	str	w1, [x0]
   5682c:	52801a00 	mov	w0, #0xd0                  	// #208
   56830:	72a01e00 	movk	w0, #0xf0, lsl #16
   56834:	54000121 	b.ne	56858 <dram_dfs_init+0x2c4>  // b.any
   56838:	d29c7181 	mov	x1, #0xe38c                	// #58252
   5683c:	52800503 	mov	w3, #0x28                  	// #40
   56840:	f2bfeee1 	movk	x1, #0xff77, lsl #16
   56844:	72a00543 	movk	w3, #0x2a, lsl #16
   56848:	b9000020 	str	w0, [x1]
   5684c:	d2800081 	mov	x1, #0x4                   	// #4
   56850:	f2bfec41 	movk	x1, #0xff62, lsl #16
   56854:	b9000023 	str	w3, [x1]
   56858:	d29c7081 	mov	x1, #0xe384                	// #58244
   5685c:	d0000084 	adrp	x4, 68000 <dist_ctx+0x1e98>
   56860:	f2bfeee1 	movk	x1, #0xff77, lsl #16
   56864:	b9000020 	str	w0, [x1]
   56868:	d2800080 	mov	x0, #0x4                   	// #4
   5686c:	f2bfec40 	movk	x0, #0xff62, lsl #16
   56870:	52800281 	mov	w1, #0x14                  	// #20
   56874:	72a002a1 	movk	w1, #0x15, lsl #16
   56878:	b9000001 	str	w1, [x0]
   5687c:	d2842b00 	mov	x0, #0x2158                	// #8536
   56880:	f2bff500 	movk	x0, #0xffa8, lsl #16
   56884:	b9400000 	ldr	w0, [x0]
   56888:	d3482c00 	ubfx	x0, x0, #8, #4
   5688c:	7100301f 	cmp	w0, #0xc
   56890:	54001000 	b.eq	56a90 <dram_dfs_init+0x4fc>  // b.none
   56894:	d285c003 	mov	x3, #0x2e00                	// #11776
   56898:	b94cb100 	ldr	w0, [x8, #3248]
   5689c:	f2bff503 	movk	x3, #0xffa8, lsl #16
   568a0:	b9400061 	ldr	w1, [x3]
   568a4:	12167421 	and	w1, w1, #0xfffffcff
   568a8:	2a002020 	orr	w0, w1, w0, lsl #8
   568ac:	b9000060 	str	w0, [x3]
   568b0:	d2842680 	mov	x0, #0x2134                	// #8500
   568b4:	d2842701 	mov	x1, #0x2138                	// #8504
   568b8:	f2bff500 	movk	x0, #0xffa8, lsl #16
   568bc:	f2bff501 	movk	x1, #0xffa8, lsl #16
   568c0:	52884803 	mov	w3, #0x4240                	// #16960
   568c4:	b9400000 	ldr	w0, [x0]
   568c8:	72a001e3 	movk	w3, #0xf, lsl #16
   568cc:	b9400021 	ldr	w1, [x1]
   568d0:	d3506400 	ubfx	x0, x0, #16, #10
   568d4:	12000c21 	and	w1, w1, #0xf
   568d8:	1b037c00 	mul	w0, w0, w3
   568dc:	1b037c21 	mul	w1, w1, w3
   568e0:	52942403 	mov	w3, #0xa120                	// #41248
   568e4:	72a000e3 	movk	w3, #0x7, lsl #16
   568e8:	1ac20800 	udiv	w0, w0, w2
   568ec:	1ac20863 	udiv	w3, w3, w2
   568f0:	1ac20821 	udiv	w1, w1, w2
   568f4:	53097c00 	lsr	w0, w0, #9
   568f8:	4b030000 	sub	w0, w0, w3
   568fc:	0b010000 	add	w0, w0, w1
   56900:	a8c17bfd 	ldp	x29, x30, [sp], #16
   56904:	b90cac80 	str	w0, [x4, #3244]
   56908:	d65f03c0 	ret
   5690c:	52800780 	mov	w0, #0x3c                  	// #60
   56910:	b90080c0 	str	w0, [x6, #128]
   56914:	17ffff54 	b	56664 <dram_dfs_init+0xd0>
   56918:	b9400000 	ldr	w0, [x0]
   5691c:	b9400021 	ldr	w1, [x1]
   56920:	12000c00 	and	w0, w0, #0xf
   56924:	71002c1f 	cmp	w0, #0xb
   56928:	d3586421 	ubfx	x1, x1, #24, #2
   5692c:	54000121 	b.ne	56950 <dram_dfs_init+0x3bc>  // b.any
   56930:	5281af00 	mov	w0, #0xd78                 	// #3448
   56934:	b9007cc0 	str	w0, [x6, #124]
   56938:	7100043f 	cmp	w1, #0x1
   5693c:	54fffe80 	b.eq	5690c <dram_dfs_init+0x378>  // b.none
   56940:	7100083f 	cmp	w1, #0x2
   56944:	54000301 	b.ne	569a4 <dram_dfs_init+0x410>  // b.any
   56948:	52800f00 	mov	w0, #0x78                  	// #120
   5694c:	17fffff1 	b	56910 <dram_dfs_init+0x37c>
   56950:	7100281f 	cmp	w0, #0xa
   56954:	54000061 	b.ne	56960 <dram_dfs_init+0x3cc>  // b.any
   56958:	5281fa00 	mov	w0, #0xfd0                 	// #4048
   5695c:	17fffff6 	b	56934 <dram_dfs_init+0x3a0>
   56960:	7100241f 	cmp	w0, #0x9
   56964:	54000061 	b.ne	56970 <dram_dfs_init+0x3dc>  // b.any
   56968:	5281ae00 	mov	w0, #0xd70                 	// #3440
   5696c:	17fffff2 	b	56934 <dram_dfs_init+0x3a0>
   56970:	7100101f 	cmp	w0, #0x4
   56974:	54000061 	b.ne	56980 <dram_dfs_init+0x3ec>  // b.any
   56978:	52800780 	mov	w0, #0x3c                  	// #60
   5697c:	17ffffee 	b	56934 <dram_dfs_init+0x3a0>
   56980:	71000c1f 	cmp	w0, #0x3
   56984:	54000061 	b.ne	56990 <dram_dfs_init+0x3fc>  // b.any
   56988:	52800600 	mov	w0, #0x30                  	// #48
   5698c:	17ffffea 	b	56934 <dram_dfs_init+0x3a0>
   56990:	7100081f 	cmp	w0, #0x2
   56994:	52800444 	mov	w4, #0x22                  	// #34
   56998:	52800500 	mov	w0, #0x28                  	// #40
   5699c:	1a840000 	csel	w0, w0, w4, eq  // eq = none
   569a0:	17ffffe5 	b	56934 <dram_dfs_init+0x3a0>
   569a4:	34ffe5e1 	cbz	w1, 56660 <dram_dfs_init+0xcc>
   569a8:	52801e00 	mov	w0, #0xf0                  	// #240
   569ac:	17ffffd9 	b	56910 <dram_dfs_init+0x37c>
   569b0:	52800504 	mov	w4, #0x28                  	// #40
   569b4:	17ffff10 	b	565f4 <dram_dfs_init+0x60>
   569b8:	52800001 	mov	w1, #0x0                   	// #0
   569bc:	17ffff14 	b	5660c <dram_dfs_init+0x78>
   569c0:	52801e01 	mov	w1, #0xf0                  	// #240
   569c4:	1ac00820 	udiv	w0, w1, w0
   569c8:	b90084c0 	str	w0, [x6, #132]
   569cc:	17ffff26 	b	56664 <dram_dfs_init+0xd0>
   569d0:	3940004d 	ldrb	w13, [x2]
   569d4:	91007091 	add	x17, x4, #0x1c
   569d8:	d2800005 	mov	x5, #0x0                   	// #0
   569dc:	2902b48e 	stp	w14, w13, [x4, #20]
   569e0:	6b0501bf 	cmp	w13, w5
   569e4:	540000a8 	b.hi	569f8 <dram_dfs_init+0x464>  // b.pmore
   569e8:	11000529 	add	w9, w9, #0x1
   569ec:	91004084 	add	x4, x4, #0x10
   569f0:	91009042 	add	x2, x2, #0x24
   569f4:	17ffff24 	b	56684 <dram_dfs_init+0xf0>
   569f8:	35000325 	cbnz	w5, 56a5c <dram_dfs_init+0x4c8>
   569fc:	39401852 	ldrb	w18, [x2, #6]
   56a00:	39400c41 	ldrb	w1, [x2, #3]
   56a04:	39401040 	ldrb	w0, [x2, #4]
   56a08:	1ac12161 	lsl	w1, w11, w1
   56a0c:	1ac02160 	lsl	w0, w11, w0
   56a10:	1ac00827 	udiv	w7, w1, w0
   56a14:	39400840 	ldrb	w0, [x2, #2]
   56a18:	1ac02180 	lsl	w0, w12, w0
   56a1c:	1acf0c00 	sdiv	w0, w0, w15
   56a20:	0b411001 	add	w1, w0, w1, lsr #4
   56a24:	39400440 	ldrb	w0, [x2, #1]
   56a28:	11000400 	add	w0, w0, #0x1
   56a2c:	0b000020 	add	w0, w1, w0
   56a30:	0b120000 	add	w0, w0, w18
   56a34:	39401452 	ldrb	w18, [x2, #5]
   56a38:	1ac02181 	lsl	w1, w12, w0
   56a3c:	7100025f 	cmp	w18, #0x0
   56a40:	1ac02200 	lsl	w0, w16, w0
   56a44:	53027c00 	lsr	w0, w0, #2
   56a48:	1a811000 	csel	w0, w0, w1, ne  // ne = any
   56a4c:	1ac70800 	udiv	w0, w0, w7
   56a50:	b8257a20 	str	w0, [x17, x5, lsl #2]
   56a54:	910004a5 	add	x5, x5, #0x1
   56a58:	17ffffe2 	b	569e0 <dram_dfs_init+0x44c>
   56a5c:	39401c52 	ldrb	w18, [x2, #7]
   56a60:	17ffffe8 	b	56a00 <dram_dfs_init+0x46c>
   56a64:	52800200 	mov	w0, #0x10                  	// #16
   56a68:	29087cc0 	stp	w0, wzr, [x6, #64]
   56a6c:	290a7cdf 	stp	wzr, wzr, [x6, #80]
   56a70:	17ffff11 	b	566b4 <dram_dfs_init+0x120>
   56a74:	0b013cc3 	add	w3, w6, w1, lsl #15
   56a78:	11000421 	add	w1, w1, #0x1
   56a7c:	b9400060 	ldr	w0, [x3]
   56a80:	0a070000 	and	w0, w0, w7
   56a84:	2a040000 	orr	w0, w0, w4
   56a88:	b9000060 	str	w0, [x3]
   56a8c:	17ffff60 	b	5680c <dram_dfs_init+0x278>
   56a90:	5281b580 	mov	w0, #0xdac                 	// #3500
   56a94:	17ffff9b 	b	56900 <dram_dfs_init+0x36c>

0000000000056a98 <dram_set_odt_pd>:
   56a98:	a9bf7bfd 	stp	x29, x30, [sp, #-16]!
   56a9c:	d0000085 	adrp	x5, 68000 <dist_ctx+0x1e98>
   56aa0:	9132c0a5 	add	x5, x5, #0xcb0
   56aa4:	2a0003e6 	mov	w6, w0
   56aa8:	2a0103e7 	mov	w7, w1
   56aac:	910003fd 	mov	x29, sp
   56ab0:	12001c00 	and	w0, w0, #0xff
   56ab4:	12002c2a 	and	w10, w1, #0xfff
   56ab8:	b94034ab 	ldr	w11, [x5, #52]
   56abc:	12000042 	and	w2, w2, #0x1
   56ac0:	b9403ca9 	ldr	w9, [x5, #60]
   56ac4:	53107cc8 	lsr	w8, w6, #16
   56ac8:	290c80aa 	stp	w10, w0, [x5, #100]
   56acc:	d3483cc0 	ubfx	x0, x6, #8, #8
   56ad0:	b9006ca0 	str	w0, [x5, #108]
   56ad4:	d3506ce0 	ubfx	x0, x7, #16, #12
   56ad8:	b90070a0 	str	w0, [x5, #112]
   56adc:	b90074a8 	str	w8, [x5, #116]
   56ae0:	b9004ca2 	str	w2, [x5, #76]
   56ae4:	97fffe25 	bl	56378 <exit_low_power>
   56ae8:	b94064a0 	ldr	w0, [x5, #100]
   56aec:	b94070a1 	ldr	w1, [x5, #112]
   56af0:	52802022 	mov	w2, #0x101                 	// #257
   56af4:	7100001f 	cmp	w0, #0x0
   56af8:	b94068a0 	ldr	w0, [x5, #104]
   56afc:	1a9f1042 	csel	w2, w2, wzr, ne  // ne = any
   56b00:	52804043 	mov	w3, #0x202                 	// #514
   56b04:	2a010000 	orr	w0, w0, w1
   56b08:	2a0203e1 	mov	w1, w2
   56b0c:	7100001f 	cmp	w0, #0x0
   56b10:	b9406ca0 	ldr	w0, [x5, #108]
   56b14:	2a030042 	orr	w2, w2, w3
   56b18:	1a811042 	csel	w2, w2, w1, ne  // ne = any
   56b1c:	b90010a2 	str	w2, [x5, #16]
   56b20:	340000a0 	cbz	w0, 56b34 <dram_set_odt_pd+0x9c>
   56b24:	2a0203e0 	mov	w0, w2
   56b28:	52808081 	mov	w1, #0x404                 	// #1028
   56b2c:	2a010000 	orr	w0, w0, w1
   56b30:	b90010a0 	str	w0, [x5, #16]
   56b34:	b94074a0 	ldr	w0, [x5, #116]
   56b38:	34000120 	cbz	w0, 56b5c <dram_set_odt_pd+0xc4>
   56b3c:	b94010a0 	ldr	w0, [x5, #16]
   56b40:	52810103 	mov	w3, #0x808                 	// #2056
   56b44:	b9403ca2 	ldr	w2, [x5, #60]
   56b48:	321d0001 	orr	w1, w0, #0x8
   56b4c:	2a030000 	orr	w0, w0, w3
   56b50:	7100085f 	cmp	w2, #0x2
   56b54:	1a810000 	csel	w0, w0, w1, eq  // eq = none
   56b58:	b90010a0 	str	w0, [x5, #16]
   56b5c:	71001d7f 	cmp	w11, #0x7
   56b60:	52803303 	mov	w3, #0x198                 	// #408
   56b64:	52803384 	mov	w4, #0x19c                 	// #412
   56b68:	1a8a00e7 	csel	w7, w7, w10, eq  // eq = none
   56b6c:	12003cc6 	and	w6, w6, #0xffff
   56b70:	52800000 	mov	w0, #0x0                   	// #0
   56b74:	72bff503 	movk	w3, #0xffa8, lsl #16
   56b78:	72bff504 	movk	w4, #0xffa8, lsl #16
   56b7c:	6b09001f 	cmp	w0, w9
   56b80:	540000e1 	b.ne	56b9c <dram_set_odt_pd+0x104>  // b.any
   56b84:	d2800100 	mov	x0, #0x8                   	// #8
   56b88:	f2bfec40 	movk	x0, #0xff62, lsl #16
   56b8c:	b9000008 	str	w8, [x0]
   56b90:	52800000 	mov	w0, #0x0                   	// #0
   56b94:	a8c17bfd 	ldp	x29, x30, [sp], #16
   56b98:	d65f03c0 	ret
   56b9c:	0b003c61 	add	w1, w3, w0, lsl #15
   56ba0:	0b003c82 	add	w2, w4, w0, lsl #15
   56ba4:	11000400 	add	w0, w0, #0x1
   56ba8:	b9000027 	str	w7, [x1]
   56bac:	b9400041 	ldr	w1, [x2]
   56bb0:	12103c21 	and	w1, w1, #0xffff0000
   56bb4:	2a060021 	orr	w1, w1, w6
   56bb8:	b9000041 	str	w1, [x2]
   56bbc:	17fffff0 	b	56b7c <dram_set_odt_pd+0xe4>

0000000000056bc0 <ddr_set_rate>:
   56bc0:	a9bc7bfd 	stp	x29, x30, [sp, #-64]!
   56bc4:	52884801 	mov	w1, #0x4240                	// #16960
   56bc8:	72a001e1 	movk	w1, #0xf, lsl #16
   56bcc:	910003fd 	mov	x29, sp
   56bd0:	a9025bf5 	stp	x21, x22, [sp, #32]
   56bd4:	d0000096 	adrp	x22, 68000 <dist_ctx+0x1e98>
   56bd8:	9132c2d5 	add	x21, x22, #0xcb0
   56bdc:	a90153f3 	stp	x19, x20, [sp, #16]
   56be0:	1ac10813 	udiv	w19, w0, w1
   56be4:	b94cb2c0 	ldr	w0, [x22, #3248]
   56be8:	a90363f7 	stp	x23, x24, [sp, #48]
   56bec:	8b000aa0 	add	x0, x21, x0, lsl #2
   56bf0:	b9400400 	ldr	w0, [x0, #4]
   56bf4:	6b13001f 	cmp	w0, w19
   56bf8:	54000760 	b.eq	56ce4 <ddr_set_rate+0x124>  // b.none
   56bfc:	2a1303e0 	mov	w0, w19
   56c00:	97fff3c1 	bl	53b04 <to_get_clk_index>
   56c04:	2a0003f4 	mov	w20, w0
   56c08:	2a0003e0 	mov	w0, w0
   56c0c:	d2800381 	mov	x1, #0x1c                  	// #28
   56c10:	b0000042 	adrp	x2, 5f000 <fdt_ro_probe_+0x20>
   56c14:	91332058 	add	x24, x2, #0xcc8
   56c18:	9b017c00 	mul	x0, x0, x1
   56c1c:	b8606b13 	ldr	w19, [x24, x0]
   56c20:	2a1303e0 	mov	w0, w19
   56c24:	97fff436 	bl	53cfc <prepare_ddr_timing>
   56c28:	7104127f 	cmp	w19, #0x104
   56c2c:	b9403ea5 	ldr	w5, [x21, #60]
   56c30:	1a9f97e3 	cset	w3, hi  // hi = pmore
   56c34:	2a0003f7 	mov	w23, w0
   56c38:	52809880 	mov	w0, #0x4c4                 	// #1220
   56c3c:	52800002 	mov	w2, #0x0                   	// #0
   56c40:	53103c66 	lsl	w6, w3, #16
   56c44:	72bff500 	movk	w0, #0xffa8, lsl #16
   56c48:	6b0200bf 	cmp	w5, w2
   56c4c:	54000581 	b.ne	56cfc <ddr_set_rate+0x13c>  // b.any
   56c50:	710006ff 	cmp	w23, #0x1
   56c54:	540003c8 	b.hi	56ccc <ddr_set_rate+0x10c>  // b.pmore
   56c58:	52800382 	mov	w2, #0x1c                  	// #28
   56c5c:	52aee7e4 	mov	w4, #0x773f0000            	// #2000617472
   56c60:	9ba26282 	umaddl	x2, w20, w2, x24
   56c64:	b9400441 	ldr	w1, [x2, #4]
   56c68:	29418c45 	ldp	w5, w3, [x2, #12]
   56c6c:	2a040024 	orr	w4, w1, w4
   56c70:	d07fc341 	adrp	x1, ff8c0000 <rk3399m0_bin>
   56c74:	91000020 	add	x0, x1, #0x0
   56c78:	b9400841 	ldr	w1, [x2, #8]
   56c7c:	32102c21 	orr	w1, w1, #0xfff0000
   56c80:	b900c801 	str	w1, [x0, #200]
   56c84:	53185ca1 	lsl	w1, w5, #8
   56c88:	2a033021 	orr	w1, w1, w3, lsl #12
   56c8c:	2a040021 	orr	w1, w1, w4
   56c90:	b900cc01 	str	w1, [x0, #204]
   56c94:	b900c413 	str	w19, [x0, #196]
   56c98:	531c6ee1 	lsl	w1, w23, #4
   56c9c:	b900e001 	str	w1, [x0, #224]
   56ca0:	d5033ebf 	dmb	st
   56ca4:	94000888 	bl	58ec4 <m0_configure_execute_addr>
   56ca8:	94000892 	bl	58ef0 <m0_start>
   56cac:	940008b2 	bl	58f74 <m0_wait_done>
   56cb0:	940008a7 	bl	58f4c <m0_stop>
   56cb4:	b9404ea0 	ldr	w0, [x21, #76]
   56cb8:	35000040 	cbnz	w0, 56cc0 <ddr_set_rate+0x100>
   56cbc:	97fff35c 	bl	53a2c <gen_rk3399_set_odt>
   56cc0:	b94012a0 	ldr	w0, [x21, #16]
   56cc4:	b90cb2d7 	str	w23, [x22, #3248]
   56cc8:	97fffe08 	bl	564e8 <resume_low_power>
   56ccc:	b9403ea4 	ldr	w4, [x21, #60]
   56cd0:	52809880 	mov	w0, #0x4c4                 	// #1220
   56cd4:	72bff500 	movk	w0, #0xffa8, lsl #16
   56cd8:	52800001 	mov	w1, #0x0                   	// #0
   56cdc:	6b01009f 	cmp	w4, w1
   56ce0:	54000301 	b.ne	56d40 <ddr_set_rate+0x180>  // b.any
   56ce4:	2a1303e0 	mov	w0, w19
   56ce8:	a94153f3 	ldp	x19, x20, [sp, #16]
   56cec:	a9425bf5 	ldp	x21, x22, [sp, #32]
   56cf0:	a94363f7 	ldp	x23, x24, [sp, #48]
   56cf4:	a8c47bfd 	ldp	x29, x30, [sp], #64
   56cf8:	d65f03c0 	ret
   56cfc:	2a0003e4 	mov	w4, w0
   56d00:	11000442 	add	w2, w2, #0x1
   56d04:	b9400081 	ldr	w1, [x4]
   56d08:	120f7821 	and	w1, w1, #0xfffeffff
   56d0c:	2a060021 	orr	w1, w1, w6
   56d10:	b9000081 	str	w1, [x4]
   56d14:	510ea004 	sub	w4, w0, #0x3a8
   56d18:	b9400081 	ldr	w1, [x4]
   56d1c:	121f7821 	and	w1, w1, #0xfffffffe
   56d20:	2a030021 	orr	w1, w1, w3
   56d24:	b9000081 	str	w1, [x4]
   56d28:	510eb004 	sub	w4, w0, #0x3ac
   56d2c:	11402000 	add	w0, w0, #0x8, lsl #12
   56d30:	b9400081 	ldr	w1, [x4]
   56d34:	32180021 	orr	w1, w1, #0x100
   56d38:	b9000081 	str	w1, [x4]
   56d3c:	17ffffc3 	b	56c48 <ddr_set_rate+0x88>
   56d40:	2a0003e3 	mov	w3, w0
   56d44:	11000421 	add	w1, w1, #0x1
   56d48:	b9400062 	ldr	w2, [x3]
   56d4c:	120f7842 	and	w2, w2, #0xfffeffff
   56d50:	b9000062 	str	w2, [x3]
   56d54:	510ea003 	sub	w3, w0, #0x3a8
   56d58:	b9400062 	ldr	w2, [x3]
   56d5c:	121f7842 	and	w2, w2, #0xfffffffe
   56d60:	b9000062 	str	w2, [x3]
   56d64:	510eb003 	sub	w3, w0, #0x3ac
   56d68:	11402000 	add	w0, w0, #0x8, lsl #12
   56d6c:	b9400062 	ldr	w2, [x3]
   56d70:	12177842 	and	w2, w2, #0xfffffeff
   56d74:	b9000062 	str	w2, [x3]
   56d78:	17ffffd9 	b	56cdc <ddr_set_rate+0x11c>

0000000000056d7c <ddr_round_rate>:
   56d7c:	52884806 	mov	w6, #0x4240                	// #16960
   56d80:	a9bf7bfd 	stp	x29, x30, [sp, #-16]!
   56d84:	72a001e6 	movk	w6, #0xf, lsl #16
   56d88:	910003fd 	mov	x29, sp
   56d8c:	1ac60800 	udiv	w0, w0, w6
   56d90:	97fff35d 	bl	53b04 <to_get_clk_index>
   56d94:	93407c00 	sxtw	x0, w0
   56d98:	d2800381 	mov	x1, #0x1c                  	// #28
   56d9c:	a8c17bfd 	ldp	x29, x30, [sp], #16
   56da0:	9b017c00 	mul	x0, x0, x1
   56da4:	b0000041 	adrp	x1, 5f000 <fdt_ro_probe_+0x20>
   56da8:	91332021 	add	x1, x1, #0xcc8
   56dac:	b8606820 	ldr	w0, [x1, x0]
   56db0:	1b067c00 	mul	w0, w0, w6
   56db4:	d65f03c0 	ret

0000000000056db8 <ddr_prepare_for_sys_suspend>:
   56db8:	a9be7bfd 	stp	x29, x30, [sp, #-32]!
   56dbc:	d0000080 	adrp	x0, 68000 <dist_ctx+0x1e98>
   56dc0:	910003fd 	mov	x29, sp
   56dc4:	f9000bf3 	str	x19, [sp, #16]
   56dc8:	9132c013 	add	x19, x0, #0xcb0
   56dcc:	b94cb000 	ldr	w0, [x0, #3248]
   56dd0:	8b000a60 	add	x0, x19, x0, lsl #2
   56dd4:	b9400405 	ldr	w5, [x0, #4]
   56dd8:	d0000080 	adrp	x0, 68000 <dist_ctx+0x1e98>
   56ddc:	9134e006 	add	x6, x0, #0xd38
   56de0:	b90d3805 	str	w5, [x0, #3384]
   56de4:	97fffd65 	bl	56378 <exit_low_power>
   56de8:	b9401260 	ldr	w0, [x19, #16]
   56dec:	b90004c0 	str	w0, [x6, #4]
   56df0:	b9404e60 	ldr	w0, [x19, #76]
   56df4:	b90008c0 	str	w0, [x6, #8]
   56df8:	52800020 	mov	w0, #0x1                   	// #1
   56dfc:	b900127f 	str	wzr, [x19, #16]
   56e00:	b9004e60 	str	w0, [x19, #76]
   56e04:	b9400e60 	ldr	w0, [x19, #12]
   56e08:	6b05001f 	cmp	w0, w5
   56e0c:	540000a0 	b.eq	56e20 <ddr_prepare_for_sys_suspend+0x68>  // b.none
   56e10:	52884801 	mov	w1, #0x4240                	// #16960
   56e14:	72a001e1 	movk	w1, #0xf, lsl #16
   56e18:	1b017c00 	mul	w0, w0, w1
   56e1c:	97ffff69 	bl	56bc0 <ddr_set_rate>
   56e20:	b9400e60 	ldr	w0, [x19, #12]
   56e24:	f9400bf3 	ldr	x19, [sp, #16]
   56e28:	a8c27bfd 	ldp	x29, x30, [sp], #32
   56e2c:	17fff3b4 	b	53cfc <prepare_ddr_timing>

0000000000056e30 <ddr_prepare_for_sys_resume>:
   56e30:	d285c001 	mov	x1, #0x2e00                	// #11776
   56e34:	d0000082 	adrp	x2, 68000 <dist_ctx+0x1e98>
   56e38:	f2bff501 	movk	x1, #0xffa8, lsl #16
   56e3c:	b9400020 	ldr	w0, [x1]
   56e40:	121f7800 	and	w0, w0, #0xfffffffe
   56e44:	b9000020 	str	w0, [x1]
   56e48:	91402021 	add	x1, x1, #0x8, lsl #12
   56e4c:	b9400020 	ldr	w0, [x1]
   56e50:	121f7800 	and	w0, w0, #0xfffffffe
   56e54:	b9000020 	str	w0, [x1]
   56e58:	d2803780 	mov	x0, #0x1bc                 	// #444
   56e5c:	f2bff500 	movk	x0, #0xffa8, lsl #16
   56e60:	b9400001 	ldr	w1, [x0]
   56e64:	d0000080 	adrp	x0, 68000 <dist_ctx+0x1e98>
   56e68:	9132c007 	add	x7, x0, #0xcb0
   56e6c:	d3504421 	ubfx	x1, x1, #16, #2
   56e70:	b90cb001 	str	w1, [x0, #3248]
   56e74:	9134e040 	add	x0, x2, #0xd38
   56e78:	b94d3842 	ldr	w2, [x2, #3384]
   56e7c:	d37e0421 	ubfiz	x1, x1, #2, #2
   56e80:	8b0100e1 	add	x1, x7, x1
   56e84:	29408003 	ldp	w3, w0, [x0, #4]
   56e88:	b90010e3 	str	w3, [x7, #16]
   56e8c:	b9400421 	ldr	w1, [x1, #4]
   56e90:	b9004ce0 	str	w0, [x7, #76]
   56e94:	6b01005f 	cmp	w2, w1
   56e98:	540000a0 	b.eq	56eac <ddr_prepare_for_sys_resume+0x7c>  // b.none
   56e9c:	52884800 	mov	w0, #0x4240                	// #16960
   56ea0:	72a001e0 	movk	w0, #0xf, lsl #16
   56ea4:	1b007c40 	mul	w0, w2, w0
   56ea8:	17ffff46 	b	56bc0 <ddr_set_rate>
   56eac:	a9bf7bfd 	stp	x29, x30, [sp, #-16]!
   56eb0:	910003fd 	mov	x29, sp
   56eb4:	97fff2de 	bl	53a2c <gen_rk3399_set_odt>
   56eb8:	b94010e0 	ldr	w0, [x7, #16]
   56ebc:	a8c17bfd 	ldp	x29, x30, [sp], #16
   56ec0:	17fffd8a 	b	564e8 <resume_low_power>

0000000000056ec4 <dram_init>:
   56ec4:	d2806100 	mov	x0, #0x308                 	// #776
   56ec8:	f07f9ac3 	adrp	x3, ff3b1000 <rk3399m0pmu_bin>
   56ecc:	f2bfe640 	movk	x0, #0xff32, lsl #16
   56ed0:	b9400001 	ldr	w1, [x0]
   56ed4:	91090060 	add	x0, x3, #0x240
   56ed8:	d34d3c22 	ubfx	x2, x1, #13, #3
   56edc:	39013002 	strb	w2, [x0, #76]
   56ee0:	d34c3022 	ubfx	x2, x1, #12, #1
   56ee4:	11000442 	add	w2, w2, #0x1
   56ee8:	39013402 	strb	w2, [x0, #77]
   56eec:	d29c0202 	mov	x2, #0xe010                	// #57360
   56ef0:	f2bfe662 	movk	x2, #0xff33, lsl #16
   56ef4:	b9400042 	ldr	w2, [x2]
   56ef8:	d34a3842 	ubfx	x2, x2, #10, #5
   56efc:	39013802 	strb	w2, [x0, #78]
   56f00:	36e006c1 	tbz	w1, #28, 56fd8 <dram_init+0x114>
   56f04:	d34b2c22 	ubfx	x2, x1, #11, #1
   56f08:	11000442 	add	w2, w2, #0x1
   56f0c:	39090062 	strb	w2, [x3, #576]
   56f10:	d3492822 	ubfx	x2, x1, #9, #2
   56f14:	d3482023 	ubfx	x3, x1, #8, #1
   56f18:	11002442 	add	w2, w2, #0x9
   56f1c:	39000402 	strb	w2, [x0, #1]
   56f20:	52800062 	mov	w2, #0x3                   	// #3
   56f24:	4b030042 	sub	w2, w2, w3
   56f28:	d3420c23 	ubfx	x3, x1, #2, #2
   56f2c:	39000802 	strb	w2, [x0, #2]
   56f30:	52800042 	mov	w2, #0x2                   	// #2
   56f34:	1ac32843 	asr	w3, w2, w3
   56f38:	39000c03 	strb	w3, [x0, #3]
   56f3c:	12000423 	and	w3, w1, #0x3
   56f40:	1ac32842 	asr	w2, w2, w3
   56f44:	39001002 	strb	w2, [x0, #4]
   56f48:	d35e7822 	ubfx	x2, x1, #30, #1
   56f4c:	39001402 	strb	w2, [x0, #5]
   56f50:	d3461c22 	ubfx	x2, x1, #6, #2
   56f54:	11003442 	add	w2, w2, #0xd
   56f58:	39001802 	strb	w2, [x0, #6]
   56f5c:	d3441422 	ubfx	x2, x1, #4, #2
   56f60:	11003442 	add	w2, w2, #0xd
   56f64:	39001c02 	strb	w2, [x0, #7]
   56f68:	d2880102 	mov	x2, #0x4008                	// #16392
   56f6c:	f2bff502 	movk	x2, #0xffa8, lsl #16
   56f70:	b9400042 	ldr	w2, [x2]
   56f74:	b9000802 	str	w2, [x0, #8]
   56f78:	d2880202 	mov	x2, #0x4010                	// #16400
   56f7c:	f2bff502 	movk	x2, #0xffa8, lsl #16
   56f80:	b9400042 	ldr	w2, [x2]
   56f84:	b9000c02 	str	w2, [x0, #12]
   56f88:	d2880282 	mov	x2, #0x4014                	// #16404
   56f8c:	f2bff502 	movk	x2, #0xffa8, lsl #16
   56f90:	b9400042 	ldr	w2, [x2]
   56f94:	b9001002 	str	w2, [x0, #16]
   56f98:	d2880302 	mov	x2, #0x4018                	// #16408
   56f9c:	f2bff502 	movk	x2, #0xffa8, lsl #16
   56fa0:	b9400042 	ldr	w2, [x2]
   56fa4:	b9001402 	str	w2, [x0, #20]
   56fa8:	d2880382 	mov	x2, #0x401c                	// #16412
   56fac:	f2bff502 	movk	x2, #0xffa8, lsl #16
   56fb0:	b9400042 	ldr	w2, [x2]
   56fb4:	b9001802 	str	w2, [x0, #24]
   56fb8:	d2882202 	mov	x2, #0x4110                	// #16656
   56fbc:	f2bff502 	movk	x2, #0xffa8, lsl #16
   56fc0:	b9400042 	ldr	w2, [x2]
   56fc4:	b9001c02 	str	w2, [x0, #28]
   56fc8:	d28a0002 	mov	x2, #0x5000                	// #20480
   56fcc:	f2bff502 	movk	x2, #0xffa8, lsl #16
   56fd0:	b9400042 	ldr	w2, [x2]
   56fd4:	b9002002 	str	w2, [x0, #32]
   56fd8:	36e806c1 	tbz	w1, #29, 570b0 <dram_init+0x1ec>
   56fdc:	d35b6c22 	ubfx	x2, x1, #27, #1
   56fe0:	d3586023 	ubfx	x3, x1, #24, #1
   56fe4:	11000442 	add	w2, w2, #0x1
   56fe8:	39009002 	strb	w2, [x0, #36]
   56fec:	d3596822 	ubfx	x2, x1, #25, #2
   56ff0:	11002442 	add	w2, w2, #0x9
   56ff4:	39009402 	strb	w2, [x0, #37]
   56ff8:	52800062 	mov	w2, #0x3                   	// #3
   56ffc:	4b030042 	sub	w2, w2, w3
   57000:	d3524c23 	ubfx	x3, x1, #18, #2
   57004:	39009802 	strb	w2, [x0, #38]
   57008:	52800042 	mov	w2, #0x2                   	// #2
   5700c:	1ac32843 	asr	w3, w2, w3
   57010:	39009c03 	strb	w3, [x0, #39]
   57014:	d3504423 	ubfx	x3, x1, #16, #2
   57018:	1ac32842 	asr	w2, w2, w3
   5701c:	3900a002 	strb	w2, [x0, #40]
   57020:	531f7c22 	lsr	w2, w1, #31
   57024:	3900a402 	strb	w2, [x0, #41]
   57028:	d3565c22 	ubfx	x2, x1, #22, #2
   5702c:	d3545421 	ubfx	x1, x1, #20, #2
   57030:	11003421 	add	w1, w1, #0xd
   57034:	3900ac01 	strb	w1, [x0, #43]
   57038:	d2980101 	mov	x1, #0xc008                	// #49160
   5703c:	11003442 	add	w2, w2, #0xd
   57040:	f2bff501 	movk	x1, #0xffa8, lsl #16
   57044:	3900a802 	strb	w2, [x0, #42]
   57048:	b9400021 	ldr	w1, [x1]
   5704c:	b9002c01 	str	w1, [x0, #44]
   57050:	d2980201 	mov	x1, #0xc010                	// #49168
   57054:	f2bff501 	movk	x1, #0xffa8, lsl #16
   57058:	b9400021 	ldr	w1, [x1]
   5705c:	b9003001 	str	w1, [x0, #48]
   57060:	d2980281 	mov	x1, #0xc014                	// #49172
   57064:	f2bff501 	movk	x1, #0xffa8, lsl #16
   57068:	b9400021 	ldr	w1, [x1]
   5706c:	b9003401 	str	w1, [x0, #52]
   57070:	d2980301 	mov	x1, #0xc018                	// #49176
   57074:	f2bff501 	movk	x1, #0xffa8, lsl #16
   57078:	b9400021 	ldr	w1, [x1]
   5707c:	b9003801 	str	w1, [x0, #56]
   57080:	d2980381 	mov	x1, #0xc01c                	// #49180
   57084:	f2bff501 	movk	x1, #0xffa8, lsl #16
   57088:	b9400021 	ldr	w1, [x1]
   5708c:	b9003c01 	str	w1, [x0, #60]
   57090:	d2982201 	mov	x1, #0xc110                	// #49424
   57094:	f2bff501 	movk	x1, #0xffa8, lsl #16
   57098:	b9400021 	ldr	w1, [x1]
   5709c:	b9004001 	str	w1, [x0, #64]
   570a0:	d29a0001 	mov	x1, #0xd000                	// #53248
   570a4:	f2bff501 	movk	x1, #0xffa8, lsl #16
   570a8:	b9400021 	ldr	w1, [x1]
   570ac:	b9004401 	str	w1, [x0, #68]
   570b0:	d65f03c0 	ret

00000000000570b4 <get_max_die_capability>:
   570b4:	aa0003e1 	mov	x1, x0
   570b8:	52800000 	mov	w0, #0x0                   	// #0
   570bc:	b9402822 	ldr	w2, [x1, #40]
   570c0:	8b225022 	add	x2, x1, w2, uxtw #4
   570c4:	eb02003f 	cmp	x1, x2
   570c8:	540001a0 	b.eq	570fc <get_max_die_capability+0x48>  // b.none
   570cc:	b9400423 	ldr	w3, [x1, #4]
   570d0:	34000123 	cbz	w3, 570f4 <get_max_die_capability+0x40>
   570d4:	b9400824 	ldr	w4, [x1, #8]
   570d8:	6b04001f 	cmp	w0, w4
   570dc:	1a842000 	csel	w0, w0, w4, cs  // cs = hs, nlast
   570e0:	7100047f 	cmp	w3, #0x1
   570e4:	54000089 	b.ls	570f4 <get_max_die_capability+0x40>  // b.plast
   570e8:	b9400c23 	ldr	w3, [x1, #12]
   570ec:	6b03001f 	cmp	w0, w3
   570f0:	1a832000 	csel	w0, w0, w3, cs  // cs = hs, nlast
   570f4:	91004021 	add	x1, x1, #0x10
   570f8:	17fffff3 	b	570c4 <get_max_die_capability+0x10>
   570fc:	d65f03c0 	ret

0000000000057100 <dram_get_parameter>:
   57100:	a9bc7bfd 	stp	x29, x30, [sp, #-64]!
   57104:	910003fd 	mov	x29, sp
   57108:	a90363f7 	stp	x23, x24, [sp, #48]
   5710c:	b9402017 	ldr	w23, [x0, #32]
   57110:	a90153f3 	stp	x19, x20, [sp, #16]
   57114:	aa0103f3 	mov	x19, x1
   57118:	51000ee1 	sub	w1, w23, #0x3
   5711c:	a9025bf5 	stp	x21, x22, [sp, #32]
   57120:	7100103f 	cmp	w1, #0x4
   57124:	54002028 	b.hi	57528 <dram_get_parameter+0x428>  // b.pmore
   57128:	aa0003f5 	mov	x21, x0
   5712c:	90000040 	adrp	x0, 5f000 <fdt_ro_probe_+0x20>
   57130:	913b5000 	add	x0, x0, #0xed4
   57134:	78615800 	ldrh	w0, [x0, w1, uxtw #1]
   57138:	10000061 	adr	x1, 57144 <dram_get_parameter+0x44>
   5713c:	8b20a820 	add	x0, x1, w0, sxth #2
   57140:	d61f0000 	br	x0
   57144:	294482b4 	ldp	w20, w0, [x21, #36]
   57148:	b94002b8 	ldr	w24, [x21]
   5714c:	7100041f 	cmp	w0, #0x1
   57150:	54000089 	b.ls	57160 <dram_get_parameter+0x60>  // b.plast
   57154:	b94012a0 	ldr	w0, [x21, #16]
   57158:	6b00031f 	cmp	w24, w0
   5715c:	1a802318 	csel	w24, w24, w0, cs  // cs = hs, nlast
   57160:	aa1503e0 	mov	x0, x21
   57164:	97ffffd4 	bl	570b4 <get_max_die_capability>
   57168:	d2803001 	mov	x1, #0x180                 	// #384
   5716c:	2a0003f6 	mov	w22, w0
   57170:	aa1303e0 	mov	x0, x19
   57174:	94001c36 	bl	5e24c <zeromem>
   57178:	b9402ea4 	ldr	w4, [x21, #44]
   5717c:	71052a9f 	cmp	w20, #0x14a
   57180:	b9000274 	str	w20, [x19]
   57184:	2a1803e0 	mov	w0, w24
   57188:	b901727f 	str	wzr, [x19, #368]
   5718c:	b9017e64 	str	w4, [x19, #380]
   57190:	540002a9 	b.ls	571e4 <dram_get_parameter+0xe4>  // b.plast
   57194:	7106429f 	cmp	w20, #0x190
   57198:	54001d29 	b.ls	5753c <dram_get_parameter+0x43c>  // b.plast
   5719c:	7108569f 	cmp	w20, #0x215
   571a0:	54001d29 	b.ls	57544 <dram_get_parameter+0x444>  // b.plast
   571a4:	710a6a9f 	cmp	w20, #0x29a
   571a8:	540000c9 	b.ls	571c0 <dram_get_parameter+0xc0>  // b.plast
   571ac:	710c829f 	cmp	w20, #0x320
   571b0:	54001ce9 	b.ls	5754c <dram_get_parameter+0x44c>  // b.plast
   571b4:	710e969f 	cmp	w20, #0x3a5
   571b8:	1a9f97f7 	cset	w23, hi  // hi = pmore
   571bc:	110016f7 	add	w23, w23, #0x5
   571c0:	b0000041 	adrp	x1, 60000 <version_string+0x6c>
   571c4:	91063422 	add	x2, x1, #0x18d
   571c8:	d28000e1 	mov	x1, #0x7                   	// #7
   571cc:	9b010801 	madd	x1, x0, x1, x2
   571d0:	38774821 	ldrb	w1, [x1, w23, uxtw]
   571d4:	53047c22 	lsr	w2, w1, #4
   571d8:	12000c21 	and	w1, w1, #0xf
   571dc:	b9017662 	str	w2, [x19, #372]
   571e0:	14000005 	b	571f4 <dram_get_parameter+0xf4>
   571e4:	7104ae9f 	cmp	w20, #0x12b
   571e8:	54001b68 	b.hi	57554 <dram_get_parameter+0x454>  // b.pmore
   571ec:	528000c1 	mov	w1, #0x6                   	// #6
   571f0:	b9017661 	str	w1, [x19, #372]
   571f4:	b9403aa2 	ldr	w2, [x21, #56]
   571f8:	b9017a61 	str	w1, [x19, #376]
   571fc:	b94046a1 	ldr	w1, [x21, #68]
   57200:	7100a03f 	cmp	w1, #0x28
   57204:	1a9f07e1 	cset	w1, ne  // ne = any
   57208:	531f7821 	lsl	w1, w1, #1
   5720c:	34000142 	cbz	w2, 57234 <dram_get_parameter+0x134>
   57210:	b9404aa3 	ldr	w3, [x21, #72]
   57214:	7100f07f 	cmp	w3, #0x3c
   57218:	54001a20 	b.eq	5755c <dram_get_parameter+0x45c>  // b.none
   5721c:	7101e07f 	cmp	w3, #0x78
   57220:	54001a20 	b.eq	57564 <dram_get_parameter+0x464>  // b.none
   57224:	7100a07f 	cmp	w3, #0x28
   57228:	52800882 	mov	w2, #0x44                  	// #68
   5722c:	2a020022 	orr	w2, w1, w2
   57230:	1a821021 	csel	w1, w1, w2, ne  // ne = any
   57234:	b9417a67 	ldr	w7, [x19, #376]
   57238:	52807d05 	mov	w5, #0x3e8                 	// #1000
   5723c:	b900e661 	str	w1, [x19, #228]
   57240:	5283cf06 	mov	w6, #0x1e78                	// #7800
   57244:	510014e1 	sub	w1, w7, #0x5
   57248:	528001e8 	mov	w8, #0xf                   	// #15
   5724c:	1b067e86 	mul	w6, w20, w6
   57250:	528464e9 	mov	w9, #0x2327                	// #8999
   57254:	531d0821 	ubfiz	w1, w1, #3, #3
   57258:	b900ea61 	str	w1, [x19, #232]
   5725c:	52800c81 	mov	w1, #0x64                  	// #100
   57260:	1b087e88 	mul	w8, w20, w8
   57264:	110f9cc6 	add	w6, w6, #0x3e7
   57268:	b900ee7f 	str	wzr, [x19, #236]
   5726c:	1b017e81 	mul	w1, w20, w1
   57270:	110f9d08 	add	w8, w8, #0x3e7
   57274:	6b09011f 	cmp	w8, w9
   57278:	1ac508c6 	udiv	w6, w6, w5
   5727c:	110f9c21 	add	w1, w1, #0x3e7
   57280:	1ac50821 	udiv	w1, w1, w5
   57284:	b9002266 	str	w6, [x19, #32]
   57288:	b9001a61 	str	w1, [x19, #24]
   5728c:	52942401 	mov	w1, #0xa120                	// #41248
   57290:	72a000e1 	movk	w1, #0x7, lsl #16
   57294:	1b017e81 	mul	w1, w20, w1
   57298:	110f9c21 	add	w1, w1, #0x3e7
   5729c:	1ac50821 	udiv	w1, w1, w5
   572a0:	1ac50905 	udiv	w5, w8, w5
   572a4:	b9001e61 	str	w1, [x19, #28]
   572a8:	b9417661 	ldr	w1, [x19, #372]
   572ac:	29048661 	stp	w1, w1, [x19, #36]
   572b0:	510010a3 	sub	w3, w5, #0x4
   572b4:	0b050022 	add	w2, w1, w5
   572b8:	b9003662 	str	w2, [x19, #52]
   572bc:	110004a2 	add	w2, w5, #0x1
   572c0:	b9002e61 	str	w1, [x19, #44]
   572c4:	51001021 	sub	w1, w1, #0x4
   572c8:	b9003265 	str	w5, [x19, #48]
   572cc:	53017c42 	lsr	w2, w2, #1
   572d0:	1a838043 	csel	w3, w2, w3, hi  // hi = pmore
   572d4:	531c0822 	ubfiz	w2, w1, #4, #3
   572d8:	53017c21 	lsr	w1, w1, #1
   572dc:	7100109f 	cmp	w4, #0x4
   572e0:	121e0021 	and	w1, w1, #0x4
   572e4:	2a010041 	orr	w1, w2, w1
   572e8:	53170862 	ubfiz	w2, w3, #9, #3
   572ec:	2a020021 	orr	w1, w1, w2
   572f0:	54000041 	b.ne	572f8 <dram_get_parameter+0x1f8>  // b.any
   572f4:	321f0021 	orr	w1, w1, #0x2
   572f8:	90000042 	adrp	x2, 5f000 <fdt_ro_probe_+0x20>
   572fc:	913d2842 	add	x2, x2, #0xf4a
   57300:	53017e83 	lsr	w3, w20, #1
   57304:	b900e261 	str	w1, [x19, #224]
   57308:	528000e1 	mov	w1, #0x7                   	// #7
   5730c:	52807d09 	mov	w9, #0x3e8                 	// #1000
   57310:	78607844 	ldrh	w4, [x2, x0, lsl #1]
   57314:	52800142 	mov	w2, #0xa                   	// #10
   57318:	1b010e83 	madd	w3, w20, w1, w3
   5731c:	5280008a 	mov	w10, #0x4                   	// #4
   57320:	1b027e82 	mul	w2, w20, w2
   57324:	0b060cc6 	add	w6, w6, w6, lsl #3
   57328:	53087c80 	lsr	w0, w4, #8
   5732c:	110f9c61 	add	w1, w3, #0x3e7
   57330:	110f9c48 	add	w8, w2, #0x3e7
   57334:	12001c84 	and	w4, w4, #0xff
   57338:	b900466a 	str	w10, [x19, #68]
   5733c:	1b147c00 	mul	w0, w0, w20
   57340:	29099a7f 	stp	wzr, w6, [x19, #76]
   57344:	1ac90821 	udiv	w1, w1, w9
   57348:	1b147c84 	mul	w4, w4, w20
   5734c:	110f9c00 	add	w0, w0, #0x3e7
   57350:	1ac90908 	udiv	w8, w8, w9
   57354:	110f9c84 	add	w4, w4, #0x3e7
   57358:	1ac90800 	udiv	w0, w0, w9
   5735c:	6b0a003f 	cmp	w1, w10
   57360:	1a8a202b 	csel	w11, w1, w10, cs  // cs = hs, nlast
   57364:	b9003a6b 	str	w11, [x19, #56]
   57368:	6b0a011f 	cmp	w8, w10
   5736c:	b9004a6b 	str	w11, [x19, #72]
   57370:	1ac90884 	udiv	w4, w4, w9
   57374:	b9003e60 	str	w0, [x19, #60]
   57378:	1a8a2100 	csel	w0, w8, w10, cs  // cs = hs, nlast
   5737c:	b9004260 	str	w0, [x19, #64]
   57380:	528003c0 	mov	w0, #0x1e                  	// #30
   57384:	1b000e83 	madd	w3, w20, w0, w3
   57388:	b9005a64 	str	w4, [x19, #88]
   5738c:	110f9c60 	add	w0, w3, #0x3e7
   57390:	1ac90800 	udiv	w0, w0, w9
   57394:	b9005660 	str	w0, [x19, #84]
   57398:	52a08000 	mov	w0, #0x4000000             	// #67108864
   5739c:	6b0002df 	cmp	w22, w0
   573a0:	54000e69 	b.ls	5756c <dram_get_parameter+0x46c>  // b.plast
   573a4:	52a10000 	mov	w0, #0x8000000             	// #134217728
   573a8:	6b0002df 	cmp	w22, w0
   573ac:	54000e49 	b.ls	57574 <dram_get_parameter+0x474>  // b.plast
   573b0:	52a20000 	mov	w0, #0x10000000            	// #268435456
   573b4:	6b0002df 	cmp	w22, w0
   573b8:	54000e29 	b.ls	5757c <dram_get_parameter+0x47c>  // b.plast
   573bc:	52a40000 	mov	w0, #0x20000000            	// #536870912
   573c0:	6b0002df 	cmp	w22, w0
   573c4:	52802bc4 	mov	w4, #0x15e                 	// #350
   573c8:	52802580 	mov	w0, #0x12c                 	// #300
   573cc:	1a849000 	csel	w0, w0, w4, ls  // ls = plast
   573d0:	1b007e80 	mul	w0, w20, w0
   573d4:	52807d06 	mov	w6, #0x3e8                 	// #1000
   573d8:	110f9c04 	add	w4, w0, #0x3e7
   573dc:	0b000040 	add	w0, w2, w0
   573e0:	110f9c00 	add	w0, w0, #0x3e7
   573e4:	528270e2 	mov	w2, #0x1387                	// #4999
   573e8:	6b02001f 	cmp	w0, w2
   573ec:	1ac60884 	udiv	w4, w4, w6
   573f0:	b9005e64 	str	w4, [x19, #92]
   573f4:	54000c89 	b.ls	57584 <dram_get_parameter+0x484>  // b.plast
   573f8:	1ac60800 	udiv	w0, w0, w6
   573fc:	71000c3f 	cmp	w1, #0x3
   57400:	b9006e60 	str	w0, [x19, #108]
   57404:	52800060 	mov	w0, #0x3                   	// #3
   57408:	1a802020 	csel	w0, w1, w0, cs  // cs = hs, nlast
   5740c:	b9007260 	str	w0, [x19, #112]
   57410:	52800300 	mov	w0, #0x18                  	// #24
   57414:	52807d02 	mov	w2, #0x3e8                 	// #1000
   57418:	52804004 	mov	w4, #0x200                 	// #512
   5741c:	1b007e80 	mul	w0, w20, w0
   57420:	52800146 	mov	w6, #0xa                   	// #10
   57424:	290c927f 	stp	wzr, w4, [x19, #100]
   57428:	110f9c00 	add	w0, w0, #0x3e7
   5742c:	b9007a64 	str	w4, [x19, #120]
   57430:	1ac20800 	udiv	w0, w0, w2
   57434:	7100281f 	cmp	w0, #0xa
   57438:	1a862000 	csel	w0, w0, w6, cs  // cs = hs, nlast
   5743c:	b9007660 	str	w0, [x19, #116]
   57440:	7108529f 	cmp	w20, #0x214
   57444:	540000a9 	b.ls	57458 <dram_get_parameter+0x358>  // b.plast
   57448:	528000c1 	mov	w1, #0x6                   	// #6
   5744c:	1b017e81 	mul	w1, w20, w1
   57450:	110f9c21 	add	w1, w1, #0x3e7
   57454:	1ac20821 	udiv	w1, w1, w2
   57458:	71000c3f 	cmp	w1, #0x3
   5745c:	52800060 	mov	w0, #0x3                   	// #3
   57460:	1a802021 	csel	w1, w1, w0, cs  // cs = hs, nlast
   57464:	7100151f 	cmp	w8, #0x5
   57468:	528000a0 	mov	w0, #0x5                   	// #5
   5746c:	1a802108 	csel	w8, w8, w0, cs  // cs = hs, nlast
   57470:	710030bf 	cmp	w5, #0xc
   57474:	52800180 	mov	w0, #0xc                   	// #12
   57478:	1a8020a5 	csel	w5, w5, w0, cs  // cs = hs, nlast
   5747c:	52800080 	mov	w0, #0x4                   	// #4
   57480:	29120265 	stp	w5, w0, [x19, #144]
   57484:	52805000 	mov	w0, #0x280                 	// #640
   57488:	b9007e61 	str	w1, [x19, #124]
   5748c:	11000421 	add	w1, w1, #0x1
   57490:	1b007e80 	mul	w0, w20, w0
   57494:	b9008261 	str	w1, [x19, #128]
   57498:	52807d01 	mov	w1, #0x3e8                 	// #1000
   5749c:	52804002 	mov	w2, #0x200                 	// #512
   574a0:	110f9c00 	add	w0, w0, #0x3e7
   574a4:	510008e7 	sub	w7, w7, #0x2
   574a8:	2910a268 	stp	w8, w8, [x19, #132]
   574ac:	b9009a7f 	str	wzr, [x19, #152]
   574b0:	1ac10800 	udiv	w0, w0, w1
   574b4:	b900a267 	str	w7, [x19, #160]
   574b8:	7108001f 	cmp	w0, #0x200
   574bc:	1a822000 	csel	w0, w0, w2, cs  // cs = hs, nlast
   574c0:	b900a660 	str	w0, [x19, #164]
   574c4:	52800a00 	mov	w0, #0x50                  	// #80
   574c8:	52800802 	mov	w2, #0x40                  	// #64
   574cc:	1b007e80 	mul	w0, w20, w0
   574d0:	110f9c00 	add	w0, w0, #0x3e7
   574d4:	1ac10800 	udiv	w0, w0, w1
   574d8:	7101001f 	cmp	w0, #0x40
   574dc:	1a822000 	csel	w0, w0, w2, cs  // cs = hs, nlast
   574e0:	b900aa60 	str	w0, [x19, #168]
   574e4:	52802800 	mov	w0, #0x140                 	// #320
   574e8:	52802002 	mov	w2, #0x100                 	// #256
   574ec:	1b007e80 	mul	w0, w20, w0
   574f0:	110f9c00 	add	w0, w0, #0x3e7
   574f4:	1ac10800 	udiv	w0, w0, w1
   574f8:	7104001f 	cmp	w0, #0x100
   574fc:	1a822000 	csel	w0, w0, w2, cs  // cs = hs, nlast
   57500:	b900ae60 	str	w0, [x19, #172]
   57504:	52800500 	mov	w0, #0x28                  	// #40
   57508:	b900b660 	str	w0, [x19, #180]
   5750c:	52800320 	mov	w0, #0x19                  	// #25
   57510:	b900be60 	str	w0, [x19, #188]
   57514:	52800380 	mov	w0, #0x1c                  	// #28
   57518:	1b008e94 	msub	w20, w20, w0, w3
   5751c:	110f9e94 	add	w20, w20, #0x3e7
   57520:	1ac10a94 	udiv	w20, w20, w1
   57524:	b900ba74 	str	w20, [x19, #184]
   57528:	a94153f3 	ldp	x19, x20, [sp, #16]
   5752c:	a9425bf5 	ldp	x21, x22, [sp, #32]
   57530:	a94363f7 	ldp	x23, x24, [sp, #48]
   57534:	a8c47bfd 	ldp	x29, x30, [sp], #64
   57538:	d65f03c0 	ret
   5753c:	52800037 	mov	w23, #0x1                   	// #1
   57540:	17ffff20 	b	571c0 <dram_get_parameter+0xc0>
   57544:	52800057 	mov	w23, #0x2                   	// #2
   57548:	17ffff1e 	b	571c0 <dram_get_parameter+0xc0>
   5754c:	52800097 	mov	w23, #0x4                   	// #4
   57550:	17ffff1c 	b	571c0 <dram_get_parameter+0xc0>
   57554:	52800017 	mov	w23, #0x0                   	// #0
   57558:	17ffff1a 	b	571c0 <dram_get_parameter+0xc0>
   5755c:	321e0021 	orr	w1, w1, #0x4
   57560:	17ffff35 	b	57234 <dram_get_parameter+0x134>
   57564:	321a0021 	orr	w1, w1, #0x40
   57568:	17ffff33 	b	57234 <dram_get_parameter+0x134>
   5756c:	52800b40 	mov	w0, #0x5a                  	// #90
   57570:	17ffff98 	b	573d0 <dram_get_parameter+0x2d0>
   57574:	52800dc0 	mov	w0, #0x6e                  	// #110
   57578:	17ffff96 	b	573d0 <dram_get_parameter+0x2d0>
   5757c:	52801400 	mov	w0, #0xa0                  	// #160
   57580:	17ffff94 	b	573d0 <dram_get_parameter+0x2d0>
   57584:	528000a0 	mov	w0, #0x5                   	// #5
   57588:	17ffff9d 	b	573fc <dram_get_parameter+0x2fc>
   5758c:	aa1503e0 	mov	x0, x21
   57590:	97fffec9 	bl	570b4 <get_max_die_capability>
   57594:	d2803001 	mov	x1, #0x180                 	// #384
   57598:	b94026b4 	ldr	w20, [x21, #36]
   5759c:	2a0003f6 	mov	w22, w0
   575a0:	aa1303e0 	mov	x0, x19
   575a4:	94001b2a 	bl	5e24c <zeromem>
   575a8:	b9402ea2 	ldr	w2, [x21, #44]
   575ac:	71042a9f 	cmp	w20, #0x10a
   575b0:	b9000274 	str	w20, [x19]
   575b4:	b901727f 	str	wzr, [x19, #368]
   575b8:	b9017e62 	str	w2, [x19, #380]
   575bc:	54000208 	b.hi	575fc <dram_get_parameter+0x4fc>  // b.pmore
   575c0:	52800080 	mov	w0, #0x4                   	// #4
   575c4:	b9017660 	str	w0, [x19, #372]
   575c8:	52800040 	mov	w0, #0x2                   	// #2
   575cc:	b9017a60 	str	w0, [x19, #376]
   575d0:	b900ea60 	str	w0, [x19, #232]
   575d4:	b94046a0 	ldr	w0, [x21, #68]
   575d8:	7100f01f 	cmp	w0, #0x3c
   575dc:	54001c80 	b.eq	5796c <dram_get_parameter+0x86c>  // b.none
   575e0:	54000488 	b.hi	57670 <dram_get_parameter+0x570>  // b.pmore
   575e4:	7100a01f 	cmp	w0, #0x28
   575e8:	54001ca0 	b.eq	5797c <dram_get_parameter+0x87c>  // b.none
   575ec:	7100c01f 	cmp	w0, #0x30
   575f0:	54001c20 	b.eq	57974 <dram_get_parameter+0x874>  // b.none
   575f4:	52800020 	mov	w0, #0x1                   	// #1
   575f8:	14000023 	b	57684 <dram_get_parameter+0x584>
   575fc:	7105369f 	cmp	w20, #0x14d
   57600:	540000e8 	b.hi	5761c <dram_get_parameter+0x51c>  // b.pmore
   57604:	528000a0 	mov	w0, #0x5                   	// #5
   57608:	b9017660 	str	w0, [x19, #372]
   5760c:	52800040 	mov	w0, #0x2                   	// #2
   57610:	b9017a60 	str	w0, [x19, #376]
   57614:	52800060 	mov	w0, #0x3                   	// #3
   57618:	17ffffee 	b	575d0 <dram_get_parameter+0x4d0>
   5761c:	7106429f 	cmp	w20, #0x190
   57620:	540000e8 	b.hi	5763c <dram_get_parameter+0x53c>  // b.pmore
   57624:	528000c0 	mov	w0, #0x6                   	// #6
   57628:	b9017660 	str	w0, [x19, #372]
   5762c:	52800060 	mov	w0, #0x3                   	// #3
   57630:	b9017a60 	str	w0, [x19, #376]
   57634:	52800080 	mov	w0, #0x4                   	// #4
   57638:	17ffffe6 	b	575d0 <dram_get_parameter+0x4d0>
   5763c:	71074a9f 	cmp	w20, #0x1d2
   57640:	52800080 	mov	w0, #0x4                   	// #4
   57644:	540000c8 	b.hi	5765c <dram_get_parameter+0x55c>  // b.pmore
   57648:	528000e1 	mov	w1, #0x7                   	// #7
   5764c:	b9017661 	str	w1, [x19, #372]
   57650:	b9017a60 	str	w0, [x19, #376]
   57654:	528000a0 	mov	w0, #0x5                   	// #5
   57658:	17ffffde 	b	575d0 <dram_get_parameter+0x4d0>
   5765c:	52800101 	mov	w1, #0x8                   	// #8
   57660:	b9017661 	str	w1, [x19, #372]
   57664:	b9017a60 	str	w0, [x19, #376]
   57668:	528000c0 	mov	w0, #0x6                   	// #6
   5766c:	17ffffd9 	b	575d0 <dram_get_parameter+0x4d0>
   57670:	7101401f 	cmp	w0, #0x50
   57674:	54001780 	b.eq	57964 <dram_get_parameter+0x864>  // b.none
   57678:	7101e01f 	cmp	w0, #0x78
   5767c:	54fffbc1 	b.ne	575f4 <dram_get_parameter+0x4f4>  // b.any
   57680:	528000e0 	mov	w0, #0x7                   	// #7
   57684:	b900ee60 	str	w0, [x19, #236]
   57688:	52800c80 	mov	w0, #0x64                  	// #100
   5768c:	52807d01 	mov	w1, #0x3e8                 	// #1000
   57690:	b9001a7f 	str	wzr, [x19, #24]
   57694:	1b007e80 	mul	w0, w20, w0
   57698:	b900e27f 	str	wzr, [x19, #224]
   5769c:	1b017e84 	mul	w4, w20, w1
   576a0:	110f9c00 	add	w0, w0, #0x3e7
   576a4:	110f9c84 	add	w4, w4, #0x3e7
   576a8:	1ac10800 	udiv	w0, w0, w1
   576ac:	1ac10884 	udiv	w4, w4, w1
   576b0:	b9000660 	str	w0, [x19, #4]
   576b4:	528000a0 	mov	w0, #0x5                   	// #5
   576b8:	b9000a60 	str	w0, [x19, #8]
   576bc:	5281a800 	mov	w0, #0xd40                 	// #3392
   576c0:	72a00060 	movk	w0, #0x3, lsl #16
   576c4:	b9001264 	str	w4, [x19, #16]
   576c8:	1b007e80 	mul	w0, w20, w0
   576cc:	110f9c00 	add	w0, w0, #0x3e7
   576d0:	1ac10800 	udiv	w0, w0, w1
   576d4:	b9000e60 	str	w0, [x19, #12]
   576d8:	5284e200 	mov	w0, #0x2710                	// #10000
   576dc:	1b007e80 	mul	w0, w20, w0
   576e0:	110f9c00 	add	w0, w0, #0x3e7
   576e4:	1ac10800 	udiv	w0, w0, w1
   576e8:	b9001660 	str	w0, [x19, #20]
   576ec:	52942400 	mov	w0, #0xa120                	// #41248
   576f0:	72a000e0 	movk	w0, #0x7, lsl #16
   576f4:	1b007e80 	mul	w0, w20, w0
   576f8:	110f9c00 	add	w0, w0, #0x3e7
   576fc:	1ac10800 	udiv	w0, w0, w1
   57700:	b9001e60 	str	w0, [x19, #28]
   57704:	12be0000 	mov	w0, #0xfffffff             	// #268435455
   57708:	6b0002df 	cmp	w22, w0
   5770c:	540013c9 	b.ls	57984 <dram_get_parameter+0x884>  // b.plast
   57710:	5281e780 	mov	w0, #0xf3c                 	// #3900
   57714:	1b007e80 	mul	w0, w20, w0
   57718:	52807d03 	mov	w3, #0x3e8                 	// #1000
   5771c:	528001e5 	mov	w5, #0xf                   	// #15
   57720:	110f9c00 	add	w0, w0, #0x3e7
   57724:	1b057e85 	mul	w5, w20, w5
   57728:	1ac10801 	udiv	w1, w0, w1
   5772c:	52800060 	mov	w0, #0x3                   	// #3
   57730:	110f9ca5 	add	w5, w5, #0x3e7
   57734:	1ac308a5 	udiv	w5, w5, w3
   57738:	b9002261 	str	w1, [x19, #32]
   5773c:	52800301 	mov	w1, #0x18                  	// #24
   57740:	1b017e81 	mul	w1, w20, w1
   57744:	110f9c21 	add	w1, w1, #0x3e7
   57748:	1ac30821 	udiv	w1, w1, w3
   5774c:	6b00003f 	cmp	w1, w0
   57750:	1a802021 	csel	w1, w1, w0, cs  // cs = hs, nlast
   57754:	b9002661 	str	w1, [x19, #36]
   57758:	52800241 	mov	w1, #0x12                  	// #18
   5775c:	1b017e81 	mul	w1, w20, w1
   57760:	110f9c21 	add	w1, w1, #0x3e7
   57764:	1ac30821 	udiv	w1, w1, w3
   57768:	6b00003f 	cmp	w1, w0
   5776c:	1a802021 	csel	w1, w1, w0, cs  // cs = hs, nlast
   57770:	b9002a61 	str	w1, [x19, #40]
   57774:	528002a1 	mov	w1, #0x15                  	// #21
   57778:	1b017e81 	mul	w1, w20, w1
   5777c:	110f9c21 	add	w1, w1, #0x3e7
   57780:	1ac30821 	udiv	w1, w1, w3
   57784:	6b00003f 	cmp	w1, w0
   57788:	1a802021 	csel	w1, w1, w0, cs  // cs = hs, nlast
   5778c:	6b0000bf 	cmp	w5, w0
   57790:	1a8020a5 	csel	w5, w5, w0, cs  // cs = hs, nlast
   57794:	29059661 	stp	w1, w5, [x19, #44]
   57798:	7100405f 	cmp	w2, #0x10
   5779c:	54000f80 	b.eq	5798c <dram_get_parameter+0x88c>  // b.none
   577a0:	7100205f 	cmp	w2, #0x8
   577a4:	1a9f17e0 	cset	w0, eq  // eq = none
   577a8:	11000800 	add	w0, w0, #0x2
   577ac:	510008a2 	sub	w2, w5, #0x2
   577b0:	53017e86 	lsr	w6, w20, #1
   577b4:	52807d09 	mov	w9, #0x3e8                 	// #1000
   577b8:	5280004a 	mov	w10, #0x2                   	// #2
   577bc:	2a021400 	orr	w0, w0, w2, lsl #5
   577c0:	b900e660 	str	w0, [x19, #228]
   577c4:	528000e0 	mov	w0, #0x7                   	// #7
   577c8:	52800542 	mov	w2, #0x2a                  	// #42
   577cc:	52822e08 	mov	w8, #0x1170                	// #4464
   577d0:	b900466a 	str	w10, [x19, #68]
   577d4:	1b001a86 	madd	w6, w20, w0, w6
   577d8:	52800060 	mov	w0, #0x3                   	// #3
   577dc:	1b027e82 	mul	w2, w20, w2
   577e0:	72a00028 	movk	w8, #0x1, lsl #16
   577e4:	110f9cc3 	add	w3, w6, #0x3e7
   577e8:	110f9c42 	add	w2, w2, #0x3e7
   577ec:	1b087e88 	mul	w8, w20, w8
   577f0:	1ac90863 	udiv	w3, w3, w9
   577f4:	110f9d08 	add	w8, w8, #0x3e7
   577f8:	1ac90842 	udiv	w2, w2, w9
   577fc:	1ac90908 	udiv	w8, w8, w9
   57800:	6b0a007f 	cmp	w3, w10
   57804:	1a8a2067 	csel	w7, w3, w10, cs  // cs = hs, nlast
   57808:	71000c5f 	cmp	w2, #0x3
   5780c:	1a802042 	csel	w2, w2, w0, cs  // cs = hs, nlast
   57810:	52800140 	mov	w0, #0xa                   	// #10
   57814:	0b020021 	add	w1, w1, w2
   57818:	b9005662 	str	w2, [x19, #84]
   5781c:	1b007e80 	mul	w0, w20, w0
   57820:	52800642 	mov	w2, #0x32                  	// #50
   57824:	29070667 	stp	w7, w1, [x19, #56]
   57828:	110f9c00 	add	w0, w0, #0x3e7
   5782c:	1b027e82 	mul	w2, w20, w2
   57830:	2909a27f 	stp	wzr, w8, [x19, #76]
   57834:	110f9c42 	add	w2, w2, #0x3e7
   57838:	1ac90800 	udiv	w0, w0, w9
   5783c:	1ac90842 	udiv	w2, w2, w9
   57840:	6b0a001f 	cmp	w0, w10
   57844:	1a8a2001 	csel	w1, w0, w10, cs  // cs = hs, nlast
   57848:	7103229f 	cmp	w20, #0xc8
   5784c:	1a808063 	csel	w3, w3, w0, hi  // hi = pmore
   57850:	b9004261 	str	w1, [x19, #64]
   57854:	6b0a007f 	cmp	w3, w10
   57858:	1a8a2063 	csel	w3, w3, w10, cs  // cs = hs, nlast
   5785c:	b9004a63 	str	w3, [x19, #72]
   57860:	7103229f 	cmp	w20, #0xc8
   57864:	54000988 	b.hi	57994 <dram_get_parameter+0x894>  // b.pmore
   57868:	52800780 	mov	w0, #0x3c                  	// #60
   5786c:	1b007e80 	mul	w0, w20, w0
   57870:	110f9c00 	add	w0, w0, #0x3e7
   57874:	1ac90800 	udiv	w0, w0, w9
   57878:	b9005a60 	str	w0, [x19, #88]
   5787c:	52807d01 	mov	w1, #0x3e8                 	// #1000
   57880:	12b80000 	mov	w0, #0x3fffffff            	// #1073741823
   57884:	6b0002df 	cmp	w22, w0
   57888:	540008a9 	b.ls	5799c <dram_get_parameter+0x89c>  // b.plast
   5788c:	52801a40 	mov	w0, #0xd2                  	// #210
   57890:	52801b83 	mov	w3, #0xdc                  	// #220
   57894:	1b007e80 	mul	w0, w20, w0
   57898:	110f9c00 	add	w0, w0, #0x3e7
   5789c:	1ac10800 	udiv	w0, w0, w1
   578a0:	1b037e83 	mul	w3, w20, w3
   578a4:	b9005e60 	str	w0, [x19, #92]
   578a8:	0b140a80 	add	w0, w20, w20, lsl #2
   578ac:	290e7e67 	stp	w7, wzr, [x19, #112]
   578b0:	110f9c63 	add	w3, w3, #0x3e7
   578b4:	4b0000c0 	sub	w0, w6, w0
   578b8:	b9007a7f 	str	wzr, [x19, #120]
   578bc:	b9008265 	str	w5, [x19, #128]
   578c0:	1ac10861 	udiv	w1, w3, w1
   578c4:	52800043 	mov	w3, #0x2                   	// #2
   578c8:	b9008a63 	str	w3, [x19, #136]
   578cc:	b9009a63 	str	w3, [x19, #152]
   578d0:	b900927f 	str	wzr, [x19, #144]
   578d4:	6b03003f 	cmp	w1, w3
   578d8:	b900a664 	str	w4, [x19, #164]
   578dc:	1a832021 	csel	w1, w1, w3, cs  // cs = hs, nlast
   578e0:	290d0661 	stp	w1, w1, [x19, #104]
   578e4:	52807d01 	mov	w1, #0x3e8                 	// #1000
   578e8:	528000c3 	mov	w3, #0x6                   	// #6
   578ec:	1ac10806 	udiv	w6, w0, w1
   578f0:	b9006266 	str	w6, [x19, #96]
   578f4:	0b140686 	add	w6, w20, w20, lsl #1
   578f8:	0b0000c6 	add	w6, w6, w0
   578fc:	52800020 	mov	w0, #0x1                   	// #1
   57900:	b9008660 	str	w0, [x19, #132]
   57904:	528000a0 	mov	w0, #0x5                   	// #5
   57908:	b9009660 	str	w0, [x19, #148]
   5790c:	52800b40 	mov	w0, #0x5a                  	// #90
   57910:	110f9cc6 	add	w6, w6, #0x3e7
   57914:	1b007e80 	mul	w0, w20, w0
   57918:	1ac108c6 	udiv	w6, w6, w1
   5791c:	110f9c00 	add	w0, w0, #0x3e7
   57920:	1ac10800 	udiv	w0, w0, w1
   57924:	b9006666 	str	w6, [x19, #100]
   57928:	52800066 	mov	w6, #0x3                   	// #3
   5792c:	b9007e66 	str	w6, [x19, #124]
   57930:	6b03001f 	cmp	w0, w3
   57934:	1a832000 	csel	w0, w0, w3, cs  // cs = hs, nlast
   57938:	b900aa60 	str	w0, [x19, #168]
   5793c:	52802d00 	mov	w0, #0x168                 	// #360
   57940:	1b007e94 	mul	w20, w20, w0
   57944:	110f9e94 	add	w20, w20, #0x3e7
   57948:	1ac10a94 	udiv	w20, w20, w1
   5794c:	6b03029f 	cmp	w20, w3
   57950:	1a832294 	csel	w20, w20, w3, cs  // cs = hs, nlast
   57954:	6b06005f 	cmp	w2, w6
   57958:	1a862042 	csel	w2, w2, w6, cs  // cs = hs, nlast
   5795c:	29158a74 	stp	w20, w2, [x19, #172]
   57960:	17fffef2 	b	57528 <dram_get_parameter+0x428>
   57964:	528000c0 	mov	w0, #0x6                   	// #6
   57968:	17ffff47 	b	57684 <dram_get_parameter+0x584>
   5796c:	52800080 	mov	w0, #0x4                   	// #4
   57970:	17ffff45 	b	57684 <dram_get_parameter+0x584>
   57974:	52800060 	mov	w0, #0x3                   	// #3
   57978:	17ffff43 	b	57684 <dram_get_parameter+0x584>
   5797c:	52800040 	mov	w0, #0x2                   	// #2
   57980:	17ffff41 	b	57684 <dram_get_parameter+0x584>
   57984:	5283cf00 	mov	w0, #0x1e78                	// #7800
   57988:	17ffff63 	b	57714 <dram_get_parameter+0x614>
   5798c:	52800080 	mov	w0, #0x4                   	// #4
   57990:	17ffff87 	b	577ac <dram_get_parameter+0x6ac>
   57994:	2a0203e0 	mov	w0, w2
   57998:	17ffffb8 	b	57878 <dram_get_parameter+0x778>
   5799c:	52801040 	mov	w0, #0x82                  	// #130
   579a0:	52801183 	mov	w3, #0x8c                  	// #140
   579a4:	1b007e80 	mul	w0, w20, w0
   579a8:	110f9c00 	add	w0, w0, #0x3e7
   579ac:	1ac10800 	udiv	w0, w0, w1
   579b0:	17ffffbc 	b	578a0 <dram_get_parameter+0x7a0>
   579b4:	aa1503e0 	mov	x0, x21
   579b8:	97fffdbf 	bl	570b4 <get_max_die_capability>
   579bc:	d2803001 	mov	x1, #0x180                 	// #384
   579c0:	b94026b4 	ldr	w20, [x21, #36]
   579c4:	2a0003f6 	mov	w22, w0
   579c8:	aa1303e0 	mov	x0, x19
   579cc:	94001a20 	bl	5e24c <zeromem>
   579d0:	b9402ea0 	ldr	w0, [x21, #44]
   579d4:	7106429f 	cmp	w20, #0x190
   579d8:	b9000274 	str	w20, [x19]
   579dc:	b901727f 	str	wzr, [x19, #368]
   579e0:	b9017e60 	str	w0, [x19, #380]
   579e4:	54000268 	b.hi	57a30 <dram_get_parameter+0x930>  // b.pmore
   579e8:	528000c0 	mov	w0, #0x6                   	// #6
   579ec:	b9017660 	str	w0, [x19, #372]
   579f0:	52800060 	mov	w0, #0x3                   	// #3
   579f4:	b9017a60 	str	w0, [x19, #376]
   579f8:	52800080 	mov	w0, #0x4                   	// #4
   579fc:	b900ea60 	str	w0, [x19, #232]
   57a00:	b94046a0 	ldr	w0, [x21, #68]
   57a04:	7101401f 	cmp	w0, #0x50
   57a08:	540008e0 	b.eq	57b24 <dram_get_parameter+0xa24>  // b.none
   57a0c:	540007c8 	b.hi	57b04 <dram_get_parameter+0xa04>  // b.pmore
   57a10:	7100c01f 	cmp	w0, #0x30
   57a14:	54001300 	b.eq	57c74 <dram_get_parameter+0xb74>  // b.none
   57a18:	7100f01f 	cmp	w0, #0x3c
   57a1c:	54001280 	b.eq	57c6c <dram_get_parameter+0xb6c>  // b.none
   57a20:	7100a01f 	cmp	w0, #0x28
   57a24:	540012c0 	b.eq	57c7c <dram_get_parameter+0xb7c>  // b.none
   57a28:	52800020 	mov	w0, #0x1                   	// #1
   57a2c:	1400003f 	b	57b28 <dram_get_parameter+0xa28>
   57a30:	7108569f 	cmp	w20, #0x215
   57a34:	540000e8 	b.hi	57a50 <dram_get_parameter+0x950>  // b.pmore
   57a38:	52800100 	mov	w0, #0x8                   	// #8
   57a3c:	b9017660 	str	w0, [x19, #372]
   57a40:	52800080 	mov	w0, #0x4                   	// #4
   57a44:	b9017a60 	str	w0, [x19, #376]
   57a48:	528000c0 	mov	w0, #0x6                   	// #6
   57a4c:	17ffffec 	b	579fc <dram_get_parameter+0x8fc>
   57a50:	7109629f 	cmp	w20, #0x258
   57a54:	540000e8 	b.hi	57a70 <dram_get_parameter+0x970>  // b.pmore
   57a58:	52800120 	mov	w0, #0x9                   	// #9
   57a5c:	b9017660 	str	w0, [x19, #372]
   57a60:	528000a0 	mov	w0, #0x5                   	// #5
   57a64:	b9017a60 	str	w0, [x19, #376]
   57a68:	528000e0 	mov	w0, #0x7                   	// #7
   57a6c:	17ffffe4 	b	579fc <dram_get_parameter+0x8fc>
   57a70:	710a6e9f 	cmp	w20, #0x29b
   57a74:	540000e8 	b.hi	57a90 <dram_get_parameter+0x990>  // b.pmore
   57a78:	52800140 	mov	w0, #0xa                   	// #10
   57a7c:	b9017660 	str	w0, [x19, #372]
   57a80:	528000c0 	mov	w0, #0x6                   	// #6
   57a84:	b9017a60 	str	w0, [x19, #376]
   57a88:	52800100 	mov	w0, #0x8                   	// #8
   57a8c:	17ffffdc 	b	579fc <dram_get_parameter+0x8fc>
   57a90:	710b769f 	cmp	w20, #0x2dd
   57a94:	540000e8 	b.hi	57ab0 <dram_get_parameter+0x9b0>  // b.pmore
   57a98:	52800160 	mov	w0, #0xb                   	// #11
   57a9c:	b9017660 	str	w0, [x19, #372]
   57aa0:	528000c0 	mov	w0, #0x6                   	// #6
   57aa4:	b9017a60 	str	w0, [x19, #376]
   57aa8:	52800120 	mov	w0, #0x9                   	// #9
   57aac:	17ffffd4 	b	579fc <dram_get_parameter+0x8fc>
   57ab0:	710c829f 	cmp	w20, #0x320
   57ab4:	540000e8 	b.hi	57ad0 <dram_get_parameter+0x9d0>  // b.pmore
   57ab8:	52800180 	mov	w0, #0xc                   	// #12
   57abc:	b9017660 	str	w0, [x19, #372]
   57ac0:	528000c0 	mov	w0, #0x6                   	// #6
   57ac4:	b9017a60 	str	w0, [x19, #376]
   57ac8:	52800140 	mov	w0, #0xa                   	// #10
   57acc:	17ffffcc 	b	579fc <dram_get_parameter+0x8fc>
   57ad0:	710e969f 	cmp	w20, #0x3a5
   57ad4:	52800100 	mov	w0, #0x8                   	// #8
   57ad8:	540000c8 	b.hi	57af0 <dram_get_parameter+0x9f0>  // b.pmore
   57adc:	528001c1 	mov	w1, #0xe                   	// #14
   57ae0:	b9017661 	str	w1, [x19, #372]
   57ae4:	b9017a60 	str	w0, [x19, #376]
   57ae8:	52800180 	mov	w0, #0xc                   	// #12
   57aec:	17ffffc4 	b	579fc <dram_get_parameter+0x8fc>
   57af0:	52800201 	mov	w1, #0x10                  	// #16
   57af4:	b9017661 	str	w1, [x19, #372]
   57af8:	b9017a60 	str	w0, [x19, #376]
   57afc:	528001c0 	mov	w0, #0xe                   	// #14
   57b00:	17ffffbf 	b	579fc <dram_get_parameter+0x8fc>
   57b04:	7135e01f 	cmp	w0, #0xd78
   57b08:	54000c20 	b.eq	57c8c <dram_get_parameter+0xb8c>  // b.none
   57b0c:	713f401f 	cmp	w0, #0xfd0
   57b10:	54000ba0 	b.eq	57c84 <dram_get_parameter+0xb84>  // b.none
   57b14:	7135c01f 	cmp	w0, #0xd70
   57b18:	54fff881 	b.ne	57a28 <dram_get_parameter+0x928>  // b.any
   57b1c:	52800120 	mov	w0, #0x9                   	// #9
   57b20:	14000002 	b	57b28 <dram_get_parameter+0xa28>
   57b24:	528000c0 	mov	w0, #0x6                   	// #6
   57b28:	b900ee60 	str	w0, [x19, #236]
   57b2c:	b9403aa0 	ldr	w0, [x21, #56]
   57b30:	b900e27f 	str	wzr, [x19, #224]
   57b34:	34000b40 	cbz	w0, 57c9c <dram_get_parameter+0xb9c>
   57b38:	b9404aa0 	ldr	w0, [x21, #72]
   57b3c:	7100f01f 	cmp	w0, #0x3c
   57b40:	54000aa0 	b.eq	57c94 <dram_get_parameter+0xb94>  // b.none
   57b44:	7101e01f 	cmp	w0, #0x78
   57b48:	52800041 	mov	w1, #0x2                   	// #2
   57b4c:	52800060 	mov	w0, #0x3                   	// #3
   57b50:	1a811000 	csel	w0, w0, w1, ne  // ne = any
   57b54:	b900f260 	str	w0, [x19, #240]
   57b58:	52800c80 	mov	w0, #0x64                  	// #100
   57b5c:	52807d03 	mov	w3, #0x3e8                 	// #1000
   57b60:	52800246 	mov	w6, #0x12                  	// #18
   57b64:	528002a2 	mov	w2, #0x15                  	// #21
   57b68:	1b007e80 	mul	w0, w20, w0
   57b6c:	52800081 	mov	w1, #0x4                   	// #4
   57b70:	1b067e86 	mul	w6, w20, w6
   57b74:	29037e7f 	stp	wzr, wzr, [x19, #24]
   57b78:	110f9c00 	add	w0, w0, #0x3e7
   57b7c:	1b027e82 	mul	w2, w20, w2
   57b80:	110f9cc6 	add	w6, w6, #0x3e7
   57b84:	1b037e87 	mul	w7, w20, w3
   57b88:	110f9c42 	add	w2, w2, #0x3e7
   57b8c:	52836ae4 	mov	w4, #0x1b57                	// #6999
   57b90:	1ac30800 	udiv	w0, w0, w3
   57b94:	110f9ce7 	add	w7, w7, #0x3e7
   57b98:	1ac308c6 	udiv	w6, w6, w3
   57b9c:	1ac30842 	udiv	w2, w2, w3
   57ba0:	b9000660 	str	w0, [x19, #4]
   57ba4:	528000a0 	mov	w0, #0x5                   	// #5
   57ba8:	b9000a60 	str	w0, [x19, #8]
   57bac:	1ac308e7 	udiv	w7, w7, w3
   57bb0:	5281a800 	mov	w0, #0xd40                 	// #3392
   57bb4:	72a00060 	movk	w0, #0x3, lsl #16
   57bb8:	1b007e80 	mul	w0, w20, w0
   57bbc:	b9001267 	str	w7, [x19, #16]
   57bc0:	110f9c00 	add	w0, w0, #0x3e7
   57bc4:	1ac30800 	udiv	w0, w0, w3
   57bc8:	b9000e60 	str	w0, [x19, #12]
   57bcc:	5284e200 	mov	w0, #0x2710                	// #10000
   57bd0:	1b007e80 	mul	w0, w20, w0
   57bd4:	110f9c00 	add	w0, w0, #0x3e7
   57bd8:	1ac30800 	udiv	w0, w0, w3
   57bdc:	b9001660 	str	w0, [x19, #20]
   57be0:	5281e780 	mov	w0, #0xf3c                 	// #3900
   57be4:	1b007e80 	mul	w0, w20, w0
   57be8:	110f9c00 	add	w0, w0, #0x3e7
   57bec:	1ac30800 	udiv	w0, w0, w3
   57bf0:	b9002260 	str	w0, [x19, #32]
   57bf4:	52800060 	mov	w0, #0x3                   	// #3
   57bf8:	6b0000df 	cmp	w6, w0
   57bfc:	1a8020c6 	csel	w6, w6, w0, cs  // cs = hs, nlast
   57c00:	6b00005f 	cmp	w2, w0
   57c04:	1a802042 	csel	w2, w2, w0, cs  // cs = hs, nlast
   57c08:	528001e0 	mov	w0, #0xf                   	// #15
   57c0c:	29049a66 	stp	w6, w6, [x19, #36]
   57c10:	1b007e80 	mul	w0, w20, w0
   57c14:	110f9c00 	add	w0, w0, #0x3e7
   57c18:	1ac30803 	udiv	w3, w0, w3
   57c1c:	7100107f 	cmp	w3, #0x4
   57c20:	1a812061 	csel	w1, w3, w1, cs  // cs = hs, nlast
   57c24:	29058662 	stp	w2, w1, [x19, #44]
   57c28:	6b04001f 	cmp	w0, w4
   57c2c:	54001649 	b.ls	57ef4 <dram_get_parameter+0xdf4>  // b.plast
   57c30:	528464e4 	mov	w4, #0x2327                	// #8999
   57c34:	6b04001f 	cmp	w0, w4
   57c38:	54001649 	b.ls	57f00 <dram_get_parameter+0xe00>  // b.plast
   57c3c:	528658e4 	mov	w4, #0x32c7                	// #12999
   57c40:	6b04001f 	cmp	w0, w4
   57c44:	54000309 	b.ls	57ca4 <dram_get_parameter+0xba4>  // b.plast
   57c48:	528752e1 	mov	w1, #0x3a97                	// #14999
   57c4c:	6b01001f 	cmp	w0, w1
   57c50:	52800201 	mov	w1, #0x10                  	// #16
   57c54:	528001c0 	mov	w0, #0xe                   	// #14
   57c58:	1a808021 	csel	w1, w1, w0, hi  // hi = pmore
   57c5c:	b940ea60 	ldr	w0, [x19, #232]
   57c60:	321c0000 	orr	w0, w0, #0x10
   57c64:	b900ea60 	str	w0, [x19, #232]
   57c68:	14000012 	b	57cb0 <dram_get_parameter+0xbb0>
   57c6c:	52800080 	mov	w0, #0x4                   	// #4
   57c70:	17ffffae 	b	57b28 <dram_get_parameter+0xa28>
   57c74:	52800060 	mov	w0, #0x3                   	// #3
   57c78:	17ffffac 	b	57b28 <dram_get_parameter+0xa28>
   57c7c:	52800040 	mov	w0, #0x2                   	// #2
   57c80:	17ffffaa 	b	57b28 <dram_get_parameter+0xa28>
   57c84:	52800140 	mov	w0, #0xa                   	// #10
   57c88:	17ffffa8 	b	57b28 <dram_get_parameter+0xa28>
   57c8c:	52800160 	mov	w0, #0xb                   	// #11
   57c90:	17ffffa6 	b	57b28 <dram_get_parameter+0xa28>
   57c94:	52800020 	mov	w0, #0x1                   	// #1
   57c98:	17ffffaf 	b	57b54 <dram_get_parameter+0xa54>
   57c9c:	b900f27f 	str	wzr, [x19, #240]
   57ca0:	17ffffae 	b	57b58 <dram_get_parameter+0xa58>
   57ca4:	5284e1e4 	mov	w4, #0x270f                	// #9999
   57ca8:	6b04001f 	cmp	w0, w4
   57cac:	54fffd88 	b.hi	57c5c <dram_get_parameter+0xb5c>  // b.pmore
   57cb0:	7100243f 	cmp	w1, #0x9
   57cb4:	54001229 	b.ls	57ef8 <dram_get_parameter+0xdf8>  // b.plast
   57cb8:	51002821 	sub	w1, w1, #0xa
   57cbc:	528000e0 	mov	w0, #0x7                   	// #7
   57cc0:	52807d04 	mov	w4, #0x3e8                 	// #1000
   57cc4:	531b6821 	lsl	w1, w1, #5
   57cc8:	5280008a 	mov	w10, #0x4                   	// #4
   57ccc:	1b007e80 	mul	w0, w20, w0
   57cd0:	32000421 	orr	w1, w1, #0x3
   57cd4:	b900e661 	str	w1, [x19, #228]
   57cd8:	52800541 	mov	w1, #0x2a                  	// #42
   57cdc:	5280006b 	mov	w11, #0x3                   	// #3
   57ce0:	b9004e7f 	str	wzr, [x19, #76]
   57ce4:	0b540405 	add	w5, w0, w20, lsr #1
   57ce8:	1b017e81 	mul	w1, w20, w1
   57cec:	110f9ca9 	add	w9, w5, #0x3e7
   57cf0:	53017e88 	lsr	w8, w20, #1
   57cf4:	110f9c21 	add	w1, w1, #0x3e7
   57cf8:	1ac40929 	udiv	w9, w9, w4
   57cfc:	1ac40821 	udiv	w1, w1, w4
   57d00:	6b0a013f 	cmp	w9, w10
   57d04:	1a8a2120 	csel	w0, w9, w10, cs  // cs = hs, nlast
   57d08:	b9003a60 	str	w0, [x19, #56]
   57d0c:	2908826a 	stp	w10, w0, [x19, #68]
   57d10:	52822e00 	mov	w0, #0x1170                	// #4464
   57d14:	72a00020 	movk	w0, #0x1, lsl #16
   57d18:	71000c3f 	cmp	w1, #0x3
   57d1c:	1a8b2021 	csel	w1, w1, w11, cs  // cs = hs, nlast
   57d20:	1b007e80 	mul	w0, w20, w0
   57d24:	0b010042 	add	w2, w2, w1
   57d28:	b9003e62 	str	w2, [x19, #60]
   57d2c:	52800042 	mov	w2, #0x2                   	// #2
   57d30:	110f9c00 	add	w0, w0, #0x3e7
   57d34:	1ac40800 	udiv	w0, w0, w4
   57d38:	290a0660 	stp	w0, w1, [x19, #80]
   57d3c:	52800141 	mov	w1, #0xa                   	// #10
   57d40:	52800100 	mov	w0, #0x8                   	// #8
   57d44:	1b017e81 	mul	w1, w20, w1
   57d48:	110f9c21 	add	w1, w1, #0x3e7
   57d4c:	1ac40821 	udiv	w1, w1, w4
   57d50:	7100083f 	cmp	w1, #0x2
   57d54:	1a822021 	csel	w1, w1, w2, cs  // cs = hs, nlast
   57d58:	52800642 	mov	w2, #0x32                  	// #50
   57d5c:	b9004261 	str	w1, [x19, #64]
   57d60:	1b027e82 	mul	w2, w20, w2
   57d64:	110f9c42 	add	w2, w2, #0x3e7
   57d68:	1ac40842 	udiv	w2, w2, w4
   57d6c:	7100205f 	cmp	w2, #0x8
   57d70:	1a802040 	csel	w0, w2, w0, cs  // cs = hs, nlast
   57d74:	b9005a60 	str	w0, [x19, #88]
   57d78:	52a40000 	mov	w0, #0x20000000            	// #536870912
   57d7c:	6b0002df 	cmp	w22, w0
   57d80:	54000c49 	b.ls	57f08 <dram_get_parameter+0xe08>  // b.plast
   57d84:	52801a41 	mov	w1, #0xd2                  	// #210
   57d88:	52801b80 	mov	w0, #0xdc                  	// #220
   57d8c:	1b017e81 	mul	w1, w20, w1
   57d90:	110f9c21 	add	w1, w1, #0x3e7
   57d94:	1ac40821 	udiv	w1, w1, w4
   57d98:	1b007e80 	mul	w0, w20, w0
   57d9c:	5280004a 	mov	w10, #0x2                   	// #2
   57da0:	b9005e61 	str	w1, [x19, #92]
   57da4:	52807d01 	mov	w1, #0x3e8                 	// #1000
   57da8:	110f9c00 	add	w0, w0, #0x3e7
   57dac:	b900767f 	str	wzr, [x19, #116]
   57db0:	2910aa6a 	stp	w10, w10, [x19, #132]
   57db4:	b900927f 	str	wzr, [x19, #144]
   57db8:	1ac40800 	udiv	w0, w0, w4
   57dbc:	b9009e66 	str	w6, [x19, #156]
   57dc0:	b900a667 	str	w7, [x19, #164]
   57dc4:	6b0a001f 	cmp	w0, w10
   57dc8:	1a8a2000 	csel	w0, w0, w10, cs  // cs = hs, nlast
   57dcc:	290d0260 	stp	w0, w0, [x19, #104]
   57dd0:	0b140a80 	add	w0, w20, w20, lsl #2
   57dd4:	4b0000a0 	sub	w0, w5, w0
   57dd8:	52800065 	mov	w5, #0x3                   	// #3
   57ddc:	6b05013f 	cmp	w9, w5
   57de0:	1a852129 	csel	w9, w9, w5, cs  // cs = hs, nlast
   57de4:	6b05007f 	cmp	w3, w5
   57de8:	1ac10804 	udiv	w4, w0, w1
   57dec:	1a852063 	csel	w3, w3, w5, cs  // cs = hs, nlast
   57df0:	290f8e69 	stp	w9, w3, [x19, #124]
   57df4:	52800143 	mov	w3, #0xa                   	// #10
   57df8:	b9007269 	str	w9, [x19, #112]
   57dfc:	29180e63 	stp	w3, w3, [x19, #192]
   57e00:	b9006264 	str	w4, [x19, #96]
   57e04:	0b140684 	add	w4, w20, w20, lsl #1
   57e08:	0b040000 	add	w0, w0, w4
   57e0c:	0b040108 	add	w8, w8, w4
   57e10:	110f9c00 	add	w0, w0, #0x3e7
   57e14:	110f9d08 	add	w8, w8, #0x3e7
   57e18:	110f9c84 	add	w4, w4, #0x3e7
   57e1c:	29198e63 	stp	w3, w3, [x19, #204]
   57e20:	1ac10800 	udiv	w0, w0, w1
   57e24:	1ac10908 	udiv	w8, w8, w1
   57e28:	1ac10884 	udiv	w4, w4, w1
   57e2c:	b9006660 	str	w0, [x19, #100]
   57e30:	528001c0 	mov	w0, #0xe                   	// #14
   57e34:	b900a268 	str	w8, [x19, #160]
   57e38:	1b007e80 	mul	w0, w20, w0
   57e3c:	b900da64 	str	w4, [x19, #216]
   57e40:	110f9c00 	add	w0, w0, #0x3e7
   57e44:	1ac10800 	udiv	w0, w0, w1
   57e48:	6b03001f 	cmp	w0, w3
   57e4c:	1a832000 	csel	w0, w0, w3, cs  // cs = hs, nlast
   57e50:	b9009660 	str	w0, [x19, #148]
   57e54:	52800080 	mov	w0, #0x4                   	// #4
   57e58:	b9009a60 	str	w0, [x19, #152]
   57e5c:	52800b40 	mov	w0, #0x5a                  	// #90
   57e60:	6b05005f 	cmp	w2, w5
   57e64:	1a852042 	csel	w2, w2, w5, cs  // cs = hs, nlast
   57e68:	52800285 	mov	w5, #0x14                  	// #20
   57e6c:	1b007e80 	mul	w0, w20, w0
   57e70:	b900b262 	str	w2, [x19, #176]
   57e74:	52800322 	mov	w2, #0x19                  	// #25
   57e78:	b900ca65 	str	w5, [x19, #200]
   57e7c:	110f9c00 	add	w0, w0, #0x3e7
   57e80:	1b027e82 	mul	w2, w20, w2
   57e84:	1ac10800 	udiv	w0, w0, w1
   57e88:	110f9c42 	add	w2, w2, #0x3e7
   57e8c:	1ac10842 	udiv	w2, w2, w1
   57e90:	b900aa60 	str	w0, [x19, #168]
   57e94:	52802d00 	mov	w0, #0x168                 	// #360
   57e98:	1b007e80 	mul	w0, w20, w0
   57e9c:	b900be62 	str	w2, [x19, #188]
   57ea0:	110f9c00 	add	w0, w0, #0x3e7
   57ea4:	1ac10800 	udiv	w0, w0, w1
   57ea8:	b900ae60 	str	w0, [x19, #172]
   57eac:	52800500 	mov	w0, #0x28                  	// #40
   57eb0:	1b007e80 	mul	w0, w20, w0
   57eb4:	110f9c00 	add	w0, w0, #0x3e7
   57eb8:	1ac10800 	udiv	w0, w0, w1
   57ebc:	b900b660 	str	w0, [x19, #180]
   57ec0:	1b057e80 	mul	w0, w20, w5
   57ec4:	110f9c00 	add	w0, w0, #0x3e7
   57ec8:	1ac10800 	udiv	w0, w0, w1
   57ecc:	b900ba60 	str	w0, [x19, #184]
   57ed0:	b900d660 	str	w0, [x19, #212]
   57ed4:	0b0a0000 	add	w0, w0, w10
   57ed8:	b900de60 	str	w0, [x19, #220]
   57edc:	52801f40 	mov	w0, #0xfa                  	// #250
   57ee0:	1b007e94 	mul	w20, w20, w0
   57ee4:	110f9e94 	add	w20, w20, #0x3e7
   57ee8:	1ac10a94 	udiv	w20, w20, w1
   57eec:	b9015674 	str	w20, [x19, #340]
   57ef0:	17fffd8e 	b	57528 <dram_get_parameter+0x428>
   57ef4:	2a1703e1 	mov	w1, w23
   57ef8:	51000821 	sub	w1, w1, #0x2
   57efc:	17ffff70 	b	57cbc <dram_get_parameter+0xbbc>
   57f00:	52800101 	mov	w1, #0x8                   	// #8
   57f04:	17fffffd 	b	57ef8 <dram_get_parameter+0xdf8>
   57f08:	52801041 	mov	w1, #0x82                  	// #130
   57f0c:	52801180 	mov	w0, #0x8c                  	// #140
   57f10:	1b017e81 	mul	w1, w20, w1
   57f14:	110f9c21 	add	w1, w1, #0x3e7
   57f18:	1ac40821 	udiv	w1, w1, w4
   57f1c:	17ffff9f 	b	57d98 <dram_get_parameter+0xc98>
   57f20:	aa1503e0 	mov	x0, x21
   57f24:	97fffc64 	bl	570b4 <get_max_die_capability>
   57f28:	d2803001 	mov	x1, #0x180                 	// #384
   57f2c:	b94026b4 	ldr	w20, [x21, #36]
   57f30:	2a0003f6 	mov	w22, w0
   57f34:	aa1303e0 	mov	x0, x19
   57f38:	940018c5 	bl	5e24c <zeromem>
   57f3c:	b9402ea0 	ldr	w0, [x21, #44]
   57f40:	b9403ea2 	ldr	w2, [x21, #60]
   57f44:	b9000274 	str	w20, [x19]
   57f48:	7100801f 	cmp	w0, #0x20
   57f4c:	b901727f 	str	wzr, [x19, #368]
   57f50:	1a9f17e1 	cset	w1, eq  // eq = none
   57f54:	b9017e60 	str	w0, [x19, #380]
   57f58:	71042a9f 	cmp	w20, #0x10a
   57f5c:	54000388 	b.hi	57fcc <dram_get_parameter+0xecc>  // b.pmore
   57f60:	528000c3 	mov	w3, #0x6                   	// #6
   57f64:	321e0021 	orr	w1, w1, #0x4
   57f68:	52800084 	mov	w4, #0x4                   	// #4
   57f6c:	b9003263 	str	w3, [x19, #48]
   57f70:	b900ea7f 	str	wzr, [x19, #232]
   57f74:	b9017663 	str	w3, [x19, #372]
   57f78:	52800103 	mov	w3, #0x8                   	// #8
   57f7c:	b9003a63 	str	w3, [x19, #56]
   57f80:	b9017a64 	str	w4, [x19, #376]
   57f84:	7100005f 	cmp	w2, #0x0
   57f88:	b94042a2 	ldr	w2, [x21, #64]
   57f8c:	b900e661 	str	w1, [x19, #228]
   57f90:	1a9f07e1 	cset	w1, ne  // ne = any
   57f94:	7100005f 	cmp	w2, #0x0
   57f98:	1a9f07e2 	cset	w2, ne  // ne = any
   57f9c:	53196042 	lsl	w2, w2, #7
   57fa0:	2a011841 	orr	w1, w2, w1, lsl #6
   57fa4:	b94046a2 	ldr	w2, [x21, #68]
   57fa8:	7101405f 	cmp	w2, #0x50
   57fac:	54001380 	b.eq	5821c <dram_get_parameter+0x111c>  // b.none
   57fb0:	54000f88 	b.hi	581a0 <dram_get_parameter+0x10a0>  // b.pmore
   57fb4:	7100c05f 	cmp	w2, #0x30
   57fb8:	540013a0 	b.eq	5822c <dram_get_parameter+0x112c>  // b.none
   57fbc:	7100f05f 	cmp	w2, #0x3c
   57fc0:	54001320 	b.eq	58224 <dram_get_parameter+0x1124>  // b.none
   57fc4:	321c0422 	orr	w2, w1, #0x30
   57fc8:	1400007b 	b	581b4 <dram_get_parameter+0x10b4>
   57fcc:	7108569f 	cmp	w20, #0x215
   57fd0:	54000228 	b.hi	58014 <dram_get_parameter+0xf14>  // b.pmore
   57fd4:	52800023 	mov	w3, #0x1                   	// #1
   57fd8:	340001a2 	cbz	w2, 5800c <dram_get_parameter+0xf0c>
   57fdc:	52800184 	mov	w4, #0xc                   	// #12
   57fe0:	b900ea63 	str	w3, [x19, #232]
   57fe4:	528000c3 	mov	w3, #0x6                   	// #6
   57fe8:	b9017a63 	str	w3, [x19, #376]
   57fec:	52800143 	mov	w3, #0xa                   	// #10
   57ff0:	b9003263 	str	w3, [x19, #48]
   57ff4:	52800103 	mov	w3, #0x8                   	// #8
   57ff8:	b9003a63 	str	w3, [x19, #56]
   57ffc:	52800283 	mov	w3, #0x14                  	// #20
   58000:	b9017664 	str	w4, [x19, #372]
   58004:	2a030021 	orr	w1, w1, w3
   58008:	17ffffdf 	b	57f84 <dram_get_parameter+0xe84>
   5800c:	52800144 	mov	w4, #0xa                   	// #10
   58010:	17fffff4 	b	57fe0 <dram_get_parameter+0xee0>
   58014:	710c829f 	cmp	w20, #0x320
   58018:	540001e8 	b.hi	58054 <dram_get_parameter+0xf54>  // b.pmore
   5801c:	52800043 	mov	w3, #0x2                   	// #2
   58020:	34000162 	cbz	w2, 5804c <dram_get_parameter+0xf4c>
   58024:	52800204 	mov	w4, #0x10                  	// #16
   58028:	b900ea63 	str	w3, [x19, #232]
   5802c:	52800103 	mov	w3, #0x8                   	// #8
   58030:	b9003a63 	str	w3, [x19, #56]
   58034:	b9017664 	str	w4, [x19, #372]
   58038:	52800204 	mov	w4, #0x10                  	// #16
   5803c:	b9003264 	str	w4, [x19, #48]
   58040:	b9017a63 	str	w3, [x19, #376]
   58044:	52800483 	mov	w3, #0x24                  	// #36
   58048:	17ffffef 	b	58004 <dram_get_parameter+0xf04>
   5804c:	528001c4 	mov	w4, #0xe                   	// #14
   58050:	17fffff6 	b	58028 <dram_get_parameter+0xf28>
   58054:	7110aa9f 	cmp	w20, #0x42a
   58058:	54000208 	b.hi	58098 <dram_get_parameter+0xf98>  // b.pmore
   5805c:	52800063 	mov	w3, #0x3                   	// #3
   58060:	34000182 	cbz	w2, 58090 <dram_get_parameter+0xf90>
   58064:	528002c4 	mov	w4, #0x16                  	// #22
   58068:	b900ea63 	str	w3, [x19, #232]
   5806c:	52800143 	mov	w3, #0xa                   	// #10
   58070:	b9017a63 	str	w3, [x19, #376]
   58074:	52800283 	mov	w3, #0x14                  	// #20
   58078:	b9003263 	str	w3, [x19, #48]
   5807c:	52800103 	mov	w3, #0x8                   	// #8
   58080:	b9003a63 	str	w3, [x19, #56]
   58084:	52800683 	mov	w3, #0x34                  	// #52
   58088:	b9017664 	str	w4, [x19, #372]
   5808c:	17ffffde 	b	58004 <dram_get_parameter+0xf04>
   58090:	52800284 	mov	w4, #0x14                  	// #20
   58094:	17fffff5 	b	58068 <dram_get_parameter+0xf68>
   58098:	7114d69f 	cmp	w20, #0x535
   5809c:	54000208 	b.hi	580dc <dram_get_parameter+0xfdc>  // b.pmore
   580a0:	52800083 	mov	w3, #0x4                   	// #4
   580a4:	34000182 	cbz	w2, 580d4 <dram_get_parameter+0xfd4>
   580a8:	52800384 	mov	w4, #0x1c                  	// #28
   580ac:	b900ea63 	str	w3, [x19, #232]
   580b0:	52800183 	mov	w3, #0xc                   	// #12
   580b4:	b9017a63 	str	w3, [x19, #376]
   580b8:	52800303 	mov	w3, #0x18                  	// #24
   580bc:	b9003263 	str	w3, [x19, #48]
   580c0:	52800143 	mov	w3, #0xa                   	// #10
   580c4:	b9003a63 	str	w3, [x19, #56]
   580c8:	52800883 	mov	w3, #0x44                  	// #68
   580cc:	b9017664 	str	w4, [x19, #372]
   580d0:	17ffffcd 	b	58004 <dram_get_parameter+0xf04>
   580d4:	52800304 	mov	w4, #0x18                  	// #24
   580d8:	17fffff5 	b	580ac <dram_get_parameter+0xfac>
   580dc:	7119029f 	cmp	w20, #0x640
   580e0:	54000208 	b.hi	58120 <dram_get_parameter+0x1020>  // b.pmore
   580e4:	528000a3 	mov	w3, #0x5                   	// #5
   580e8:	34000182 	cbz	w2, 58118 <dram_get_parameter+0x1018>
   580ec:	52800404 	mov	w4, #0x20                  	// #32
   580f0:	b900ea63 	str	w3, [x19, #232]
   580f4:	528001c3 	mov	w3, #0xe                   	// #14
   580f8:	b9017a63 	str	w3, [x19, #376]
   580fc:	528003c3 	mov	w3, #0x1e                  	// #30
   58100:	b9003263 	str	w3, [x19, #48]
   58104:	52800183 	mov	w3, #0xc                   	// #12
   58108:	b9003a63 	str	w3, [x19, #56]
   5810c:	52800a83 	mov	w3, #0x54                  	// #84
   58110:	b9017664 	str	w4, [x19, #372]
   58114:	17ffffbc 	b	58004 <dram_get_parameter+0xf04>
   58118:	52800384 	mov	w4, #0x1c                  	// #28
   5811c:	17fffff5 	b	580f0 <dram_get_parameter+0xff0>
   58120:	711d2a9f 	cmp	w20, #0x74a
   58124:	54000208 	b.hi	58164 <dram_get_parameter+0x1064>  // b.pmore
   58128:	528000c3 	mov	w3, #0x6                   	// #6
   5812c:	34000182 	cbz	w2, 5815c <dram_get_parameter+0x105c>
   58130:	52800484 	mov	w4, #0x24                  	// #36
   58134:	b900ea63 	str	w3, [x19, #232]
   58138:	52800203 	mov	w3, #0x10                  	// #16
   5813c:	b9017a63 	str	w3, [x19, #376]
   58140:	52800443 	mov	w3, #0x22                  	// #34
   58144:	b9003263 	str	w3, [x19, #48]
   58148:	528001c3 	mov	w3, #0xe                   	// #14
   5814c:	b9003a63 	str	w3, [x19, #56]
   58150:	52800c83 	mov	w3, #0x64                  	// #100
   58154:	b9017664 	str	w4, [x19, #372]
   58158:	17ffffab 	b	58004 <dram_get_parameter+0xf04>
   5815c:	52800404 	mov	w4, #0x20                  	// #32
   58160:	17fffff5 	b	58134 <dram_get_parameter+0x1034>
   58164:	528000e3 	mov	w3, #0x7                   	// #7
   58168:	34000182 	cbz	w2, 58198 <dram_get_parameter+0x1098>
   5816c:	52800504 	mov	w4, #0x28                  	// #40
   58170:	b900ea63 	str	w3, [x19, #232]
   58174:	52800243 	mov	w3, #0x12                  	// #18
   58178:	b9017a63 	str	w3, [x19, #376]
   5817c:	52800503 	mov	w3, #0x28                  	// #40
   58180:	b9003263 	str	w3, [x19, #48]
   58184:	52800203 	mov	w3, #0x10                  	// #16
   58188:	b9003a63 	str	w3, [x19, #56]
   5818c:	52800e83 	mov	w3, #0x74                  	// #116
   58190:	b9017664 	str	w4, [x19, #372]
   58194:	17ffff9c 	b	58004 <dram_get_parameter+0xf04>
   58198:	52800484 	mov	w4, #0x24                  	// #36
   5819c:	17fffff5 	b	58170 <dram_get_parameter+0x1070>
   581a0:	7101e05f 	cmp	w2, #0x78
   581a4:	54000380 	b.eq	58214 <dram_get_parameter+0x1114>  // b.none
   581a8:	7103c05f 	cmp	w2, #0xf0
   581ac:	54fff0c1 	b.ne	57fc4 <dram_get_parameter+0xec4>  // b.any
   581b0:	321d0022 	orr	w2, w1, #0x8
   581b4:	b900ee62 	str	w2, [x19, #236]
   581b8:	b9403aa2 	ldr	w2, [x21, #56]
   581bc:	b900e27f 	str	wzr, [x19, #224]
   581c0:	340005e2 	cbz	w2, 5827c <dram_get_parameter+0x117c>
   581c4:	b9404aa1 	ldr	w1, [x21, #72]
   581c8:	7101403f 	cmp	w1, #0x50
   581cc:	54000420 	b.eq	58250 <dram_get_parameter+0x1150>  // b.none
   581d0:	54000348 	b.hi	58238 <dram_get_parameter+0x1138>  // b.pmore
   581d4:	7100c03f 	cmp	w1, #0x30
   581d8:	54000400 	b.eq	58258 <dram_get_parameter+0x1158>  // b.none
   581dc:	7100f03f 	cmp	w1, #0x3c
   581e0:	52800082 	mov	w2, #0x4                   	// #4
   581e4:	528000c1 	mov	w1, #0x6                   	// #6
   581e8:	1a821021 	csel	w1, w1, w2, ne  // ne = any
   581ec:	b9404ea2 	ldr	w2, [x21, #76]
   581f0:	7101405f 	cmp	w2, #0x50
   581f4:	54001e60 	b.eq	585c0 <dram_get_parameter+0x14c0>  // b.none
   581f8:	54000388 	b.hi	58268 <dram_get_parameter+0x1168>  // b.pmore
   581fc:	7100c05f 	cmp	w2, #0x30
   58200:	54001e80 	b.eq	585d0 <dram_get_parameter+0x14d0>  // b.none
   58204:	7100f05f 	cmp	w2, #0x3c
   58208:	54001e00 	b.eq	585c8 <dram_get_parameter+0x14c8>  // b.none
   5820c:	321b0421 	orr	w1, w1, #0x60
   58210:	1400001b 	b	5827c <dram_get_parameter+0x117c>
   58214:	321c0022 	orr	w2, w1, #0x10
   58218:	17ffffe7 	b	581b4 <dram_get_parameter+0x10b4>
   5821c:	321d0422 	orr	w2, w1, #0x18
   58220:	17ffffe5 	b	581b4 <dram_get_parameter+0x10b4>
   58224:	321b0022 	orr	w2, w1, #0x20
   58228:	17ffffe3 	b	581b4 <dram_get_parameter+0x10b4>
   5822c:	52800502 	mov	w2, #0x28                  	// #40
   58230:	2a020022 	orr	w2, w1, w2
   58234:	17ffffe0 	b	581b4 <dram_get_parameter+0x10b4>
   58238:	7101e03f 	cmp	w1, #0x78
   5823c:	54000120 	b.eq	58260 <dram_get_parameter+0x1160>  // b.none
   58240:	7103c03f 	cmp	w1, #0xf0
   58244:	528000c1 	mov	w1, #0x6                   	// #6
   58248:	1a9f1421 	csinc	w1, w1, wzr, ne  // ne = any
   5824c:	17ffffe8 	b	581ec <dram_get_parameter+0x10ec>
   58250:	52800061 	mov	w1, #0x3                   	// #3
   58254:	17ffffe6 	b	581ec <dram_get_parameter+0x10ec>
   58258:	528000a1 	mov	w1, #0x5                   	// #5
   5825c:	17ffffe4 	b	581ec <dram_get_parameter+0x10ec>
   58260:	52800041 	mov	w1, #0x2                   	// #2
   58264:	17ffffe2 	b	581ec <dram_get_parameter+0x10ec>
   58268:	7101e05f 	cmp	w2, #0x78
   5826c:	54001a60 	b.eq	585b8 <dram_get_parameter+0x14b8>  // b.none
   58270:	7103c05f 	cmp	w2, #0xf0
   58274:	54fffcc1 	b.ne	5820c <dram_get_parameter+0x110c>  // b.any
   58278:	321c0021 	orr	w1, w1, #0x10
   5827c:	5281a805 	mov	w5, #0xd40                 	// #3392
   58280:	52909002 	mov	w2, #0x8480                	// #33920
   58284:	72a00065 	movk	w5, #0x3, lsl #16
   58288:	5280fa06 	mov	w6, #0x7d0                 	// #2000
   5828c:	72a003c2 	movk	w2, #0x1e, lsl #16
   58290:	0b140a87 	add	w7, w20, w20, lsl #2
   58294:	1b057e85 	mul	w5, w20, w5
   58298:	110f9ce7 	add	w7, w7, #0x3e7
   5829c:	1b067e86 	mul	w6, w20, w6
   582a0:	b900f261 	str	w1, [x19, #240]
   582a4:	1b027e82 	mul	w2, w20, w2
   582a8:	110f9ca5 	add	w5, w5, #0x3e7
   582ac:	110f9cc6 	add	w6, w6, #0x3e7
   582b0:	52807d01 	mov	w1, #0x3e8                 	// #1000
   582b4:	110f9c42 	add	w2, w2, #0x3e7
   582b8:	52800144 	mov	w4, #0xa                   	// #10
   582bc:	1ac108a5 	udiv	w5, w5, w1
   582c0:	52800088 	mov	w8, #0x4                   	// #4
   582c4:	1b047e84 	mul	w4, w20, w4
   582c8:	52800069 	mov	w9, #0x3                   	// #3
   582cc:	1ac108c6 	udiv	w6, w6, w1
   582d0:	b9004e7f 	str	wzr, [x19, #76]
   582d4:	110f9c84 	add	w4, w4, #0x3e7
   582d8:	531e7683 	lsl	w3, w20, #2
   582dc:	1ac10842 	udiv	w2, w2, w1
   582e0:	1ac108e7 	udiv	w7, w7, w1
   582e4:	29029666 	stp	w6, w5, [x19, #20]
   582e8:	52800246 	mov	w6, #0x12                  	// #18
   582ec:	1ac10884 	udiv	w4, w4, w1
   582f0:	b9001e62 	str	w2, [x19, #28]
   582f4:	1b067e86 	mul	w6, w20, w6
   582f8:	29019e62 	stp	w2, w7, [x19, #12]
   582fc:	5281e782 	mov	w2, #0xf3c                 	// #3900
   58300:	110f9cc6 	add	w6, w6, #0x3e7
   58304:	1b027e82 	mul	w2, w20, w2
   58308:	29009265 	stp	w5, w4, [x19, #4]
   5830c:	52800545 	mov	w5, #0x2a                  	// #42
   58310:	1ac108c6 	udiv	w6, w6, w1
   58314:	110f9c42 	add	w2, w2, #0x3e7
   58318:	1b057e85 	mul	w5, w20, w5
   5831c:	1ac10842 	udiv	w2, w2, w1
   58320:	110f9ca5 	add	w5, w5, #0x3e7
   58324:	6b0800df 	cmp	w6, w8
   58328:	1a8820c6 	csel	w6, w6, w8, cs  // cs = hs, nlast
   5832c:	b9002a66 	str	w6, [x19, #40]
   58330:	1ac108a5 	udiv	w5, w5, w1
   58334:	29041a62 	stp	w2, w6, [x19, #32]
   58338:	528002a2 	mov	w2, #0x15                  	// #21
   5833c:	1b027e82 	mul	w2, w20, w2
   58340:	110f9c42 	add	w2, w2, #0x3e7
   58344:	1ac10842 	udiv	w2, w2, w1
   58348:	6b08005f 	cmp	w2, w8
   5834c:	1a882042 	csel	w2, w2, w8, cs  // cs = hs, nlast
   58350:	71000cbf 	cmp	w5, #0x3
   58354:	1a8920a5 	csel	w5, w5, w9, cs  // cs = hs, nlast
   58358:	6b08009f 	cmp	w4, w8
   5835c:	1a882088 	csel	w8, w4, w8, cs  // cs = hs, nlast
   58360:	7100801f 	cmp	w0, #0x20
   58364:	b9002e62 	str	w2, [x19, #44]
   58368:	0b050042 	add	w2, w2, w5
   5836c:	52800200 	mov	w0, #0x10                  	// #16
   58370:	b9003e62 	str	w2, [x19, #60]
   58374:	52800102 	mov	w2, #0x8                   	// #8
   58378:	1a800040 	csel	w0, w2, w0, eq  // eq = none
   5837c:	6b02009f 	cmp	w4, w2
   58380:	b9004268 	str	w8, [x19, #64]
   58384:	1a822084 	csel	w4, w4, w2, cs  // cs = hs, nlast
   58388:	29089260 	stp	w0, w4, [x19, #68]
   5838c:	531e7400 	lsl	w0, w0, #2
   58390:	b9011260 	str	w0, [x19, #272]
   58394:	52822e00 	mov	w0, #0x1170                	// #4464
   58398:	b9005665 	str	w5, [x19, #84]
   5839c:	72a00020 	movk	w0, #0x1, lsl #16
   583a0:	52ac0002 	mov	w2, #0x60000000            	// #1610612736
   583a4:	6b0202df 	cmp	w22, w2
   583a8:	1b007e80 	mul	w0, w20, w0
   583ac:	110f9c00 	add	w0, w0, #0x3e7
   583b0:	1ac10800 	udiv	w0, w0, w1
   583b4:	b9005260 	str	w0, [x19, #80]
   583b8:	52800500 	mov	w0, #0x28                  	// #40
   583bc:	1b007e80 	mul	w0, w20, w0
   583c0:	110f9c00 	add	w0, w0, #0x3e7
   583c4:	1ac10800 	udiv	w0, w0, w1
   583c8:	b9005a60 	str	w0, [x19, #88]
   583cc:	53017e80 	lsr	w0, w20, #1
   583d0:	54001069 	b.ls	585dc <dram_get_parameter+0x14dc>  // b.plast
   583d4:	52802302 	mov	w2, #0x118                 	// #280
   583d8:	1b027e82 	mul	w2, w20, w2
   583dc:	110f9c42 	add	w2, w2, #0x3e7
   583e0:	1ac10842 	udiv	w2, w2, w1
   583e4:	b9005e62 	str	w2, [x19, #92]
   583e8:	528023e2 	mov	w2, #0x11f                 	// #287
   583ec:	1b020282 	madd	w2, w20, w2, w0
   583f0:	0b140685 	add	w5, w20, w20, lsl #1
   583f4:	0b000284 	add	w4, w20, w0
   583f8:	0b0000a0 	add	w0, w5, w0
   583fc:	110f9c42 	add	w2, w2, #0x3e7
   58400:	110f9c0a 	add	w10, w0, #0x3e7
   58404:	0b000060 	add	w0, w3, w0
   58408:	528000ac 	mov	w12, #0x5                   	// #5
   5840c:	110f9c00 	add	w0, w0, #0x3e7
   58410:	52800069 	mov	w9, #0x3                   	// #3
   58414:	1ac10841 	udiv	w1, w2, w1
   58418:	52800042 	mov	w2, #0x2                   	// #2
   5841c:	0b0900c6 	add	w6, w6, w9
   58420:	b9009e66 	str	w6, [x19, #156]
   58424:	91048266 	add	x6, x19, #0x120
   58428:	7100083f 	cmp	w1, #0x2
   5842c:	1a822021 	csel	w1, w1, w2, cs  // cs = hs, nlast
   58430:	290d0661 	stp	w1, w1, [x19, #104]
   58434:	52807d01 	mov	w1, #0x3e8                 	// #1000
   58438:	1ac10800 	udiv	w0, w0, w1
   5843c:	1ac10882 	udiv	w2, w4, w1
   58440:	110f9c84 	add	w4, w4, #0x3e7
   58444:	1ac1094a 	udiv	w10, w10, w1
   58448:	6b0c001f 	cmp	w0, w12
   5844c:	1a8c200b 	csel	w11, w0, w12, cs  // cs = hs, nlast
   58450:	b900726b 	str	w11, [x19, #112]
   58454:	1ac10884 	udiv	w4, w4, w1
   58458:	b901326b 	str	w11, [x19, #304]
   5845c:	290c2a62 	stp	w2, w10, [x19, #96]
   58460:	52800082 	mov	w2, #0x4                   	// #4
   58464:	6b02001f 	cmp	w0, w2
   58468:	b9011662 	str	w2, [x19, #276]
   5846c:	1a822003 	csel	w3, w0, w2, cs  // cs = hs, nlast
   58470:	110f9e82 	add	w2, w20, #0x3e7
   58474:	0b450845 	add	w5, w2, w5, lsr #2
   58478:	528001e2 	mov	w2, #0xf                   	// #15
   5847c:	b9007e63 	str	w3, [x19, #124]
   58480:	1b027e82 	mul	w2, w20, w2
   58484:	b900a26a 	str	w10, [x19, #160]
   58488:	1ac108a5 	udiv	w5, w5, w1
   5848c:	110f9c42 	add	w2, w2, #0x3e7
   58490:	1ac10842 	udiv	w2, w2, w1
   58494:	6b0900bf 	cmp	w5, w9
   58498:	1a8920a8 	csel	w8, w5, w9, cs  // cs = hs, nlast
   5849c:	290014c8 	stp	w8, w5, [x6]
   584a0:	6b09005f 	cmp	w2, w9
   584a4:	1a892042 	csel	w2, w2, w9, cs  // cs = hs, nlast
   584a8:	293f08c8 	stp	w8, w2, [x6, #-8]
   584ac:	528001c2 	mov	w2, #0xe                   	// #14
   584b0:	6b0c00ff 	cmp	w7, w12
   584b4:	1a8c20e7 	csel	w7, w7, w12, cs  // cs = hs, nlast
   584b8:	b9012a67 	str	w7, [x19, #296]
   584bc:	1b027e82 	mul	w2, w20, w2
   584c0:	9105a267 	add	x7, x19, #0x168
   584c4:	b9012e65 	str	w5, [x19, #300]
   584c8:	52800145 	mov	w5, #0xa                   	// #10
   584cc:	110f9c42 	add	w2, w2, #0x3e7
   584d0:	b9014268 	str	w8, [x19, #320]
   584d4:	91053268 	add	x8, x19, #0x14c
   584d8:	1ac10842 	udiv	w2, w2, w1
   584dc:	7100285f 	cmp	w2, #0xa
   584e0:	1a852042 	csel	w2, w2, w5, cs  // cs = hs, nlast
   584e4:	6b09001f 	cmp	w0, w9
   584e8:	1a892000 	csel	w0, w0, w9, cs  // cs = hs, nlast
   584ec:	52800105 	mov	w5, #0x8                   	// #8
   584f0:	29129662 	stp	w2, w5, [x19, #148]
   584f4:	b9013662 	str	w2, [x19, #308]
   584f8:	528003c2 	mov	w2, #0x1e                  	// #30
   584fc:	293f00e0 	stp	w0, w0, [x7, #-8]
   58500:	290000e0 	stp	w0, w0, [x7]
   58504:	1b017e80 	mul	w0, w20, w1
   58508:	1b027e82 	mul	w2, w20, w2
   5850c:	110f9c00 	add	w0, w0, #0x3e7
   58510:	110f9c42 	add	w2, w2, #0x3e7
   58514:	1ac10800 	udiv	w0, w0, w1
   58518:	1ac10842 	udiv	w2, w2, w1
   5851c:	b9013a60 	str	w0, [x19, #312]
   58520:	52800640 	mov	w0, #0x32                  	// #50
   58524:	1b007e80 	mul	w0, w20, w0
   58528:	6b05005f 	cmp	w2, w5
   5852c:	1a852042 	csel	w2, w2, w5, cs  // cs = hs, nlast
   58530:	b9013e62 	str	w2, [x19, #316]
   58534:	110f9c00 	add	w0, w0, #0x3e7
   58538:	1ac10800 	udiv	w0, w0, w1
   5853c:	6b09001f 	cmp	w0, w9
   58540:	1a892000 	csel	w0, w0, w9, cs  // cs = hs, nlast
   58544:	b900b260 	str	w0, [x19, #176]
   58548:	52800500 	mov	w0, #0x28                  	// #40
   5854c:	b900b660 	str	w0, [x19, #180]
   58550:	52800280 	mov	w0, #0x14                  	// #20
   58554:	1b007e82 	mul	w2, w20, w0
   58558:	110f9c42 	add	w2, w2, #0x3e7
   5855c:	1ac10842 	udiv	w2, w2, w1
   58560:	29170262 	stp	w2, w0, [x19, #184]
   58564:	52801f40 	mov	w0, #0xfa                  	// #250
   58568:	b900d662 	str	w2, [x19, #212]
   5856c:	52800c82 	mov	w2, #0x64                  	// #100
   58570:	1b007e80 	mul	w0, w20, w0
   58574:	1b027e82 	mul	w2, w20, w2
   58578:	110f9c00 	add	w0, w0, #0x3e7
   5857c:	110f9c42 	add	w2, w2, #0x3e7
   58580:	1ac10800 	udiv	w0, w0, w1
   58584:	1ac10842 	udiv	w2, w2, w1
   58588:	b900c660 	str	w0, [x19, #196]
   5858c:	b900da64 	str	w4, [x19, #216]
   58590:	52801904 	mov	w4, #0xc8                  	// #200
   58594:	293f0900 	stp	w0, w2, [x8, #-8]
   58598:	1b047e94 	mul	w20, w20, w4
   5859c:	29008102 	stp	w2, w0, [x8, #4]
   585a0:	b9015a63 	str	w3, [x19, #344]
   585a4:	110f9e94 	add	w20, w20, #0x3e7
   585a8:	b9015e63 	str	w3, [x19, #348]
   585ac:	1ac10a94 	udiv	w20, w20, w1
   585b0:	b9014e74 	str	w20, [x19, #332]
   585b4:	17fffbdd 	b	57528 <dram_get_parameter+0x428>
   585b8:	321b0021 	orr	w1, w1, #0x20
   585bc:	17ffff30 	b	5827c <dram_get_parameter+0x117c>
   585c0:	321c0421 	orr	w1, w1, #0x30
   585c4:	17ffff2e 	b	5827c <dram_get_parameter+0x117c>
   585c8:	321a0021 	orr	w1, w1, #0x40
   585cc:	17ffff2c 	b	5827c <dram_get_parameter+0x117c>
   585d0:	52800a02 	mov	w2, #0x50                  	// #80
   585d4:	2a020021 	orr	w1, w1, w2
   585d8:	17ffff29 	b	5827c <dram_get_parameter+0x117c>
   585dc:	52a60002 	mov	w2, #0x30000000            	// #805306368
   585e0:	6b0202df 	cmp	w22, w2
   585e4:	54000109 	b.ls	58604 <dram_get_parameter+0x1504>  // b.plast
   585e8:	52801682 	mov	w2, #0xb4                  	// #180
   585ec:	1b027e82 	mul	w2, w20, w2
   585f0:	110f9c42 	add	w2, w2, #0x3e7
   585f4:	1ac10842 	udiv	w2, w2, w1
   585f8:	b9005e62 	str	w2, [x19, #92]
   585fc:	52801762 	mov	w2, #0xbb                  	// #187
   58600:	17ffff7b 	b	583ec <dram_get_parameter+0x12ec>
   58604:	52801042 	mov	w2, #0x82                  	// #130
   58608:	1b027e82 	mul	w2, w20, w2
   5860c:	110f9c42 	add	w2, w2, #0x3e7
   58610:	1ac10842 	udiv	w2, w2, w1
   58614:	b9005e62 	str	w2, [x19, #92]
   58618:	52801122 	mov	w2, #0x89                  	// #137
   5861c:	17ffff74 	b	583ec <dram_get_parameter+0x12ec>

0000000000058620 <dram_regcpy>:
   58620:	cb010000 	sub	x0, x0, x1
   58624:	51000442 	sub	w2, w2, #0x1
   58628:	3100045f 	cmn	w2, #0x1
   5862c:	54000041 	b.ne	58634 <dram_regcpy+0x14>  // b.any
   58630:	d65f03c0 	ret
   58634:	b9400023 	ldr	w3, [x1]
   58638:	b8216803 	str	w3, [x0, x1]
   5863c:	91001021 	add	x1, x1, #0x4
   58640:	17fffff9 	b	58624 <dram_regcpy+0x4>

0000000000058644 <dmc_suspend>:
   58644:	d2802300 	mov	x0, #0x118                 	// #280
   58648:	a9bf7bfd 	stp	x29, x30, [sp, #-16]!
   5864c:	f2bfeec0 	movk	x0, #0xff76, lsl #16
   58650:	910003fd 	mov	x29, sp
   58654:	b9400002 	ldr	w2, [x0]
   58658:	b07f9ac0 	adrp	x0, ff3b1000 <rk3399m0pmu_bin>
   5865c:	913cc001 	add	x1, x0, #0xf30
   58660:	d2800903 	mov	x3, #0x48                  	// #72
   58664:	b90f3002 	str	w2, [x0, #3888]
   58668:	d2800800 	mov	x0, #0x40                  	// #64
   5866c:	f2bfeec0 	movk	x0, #0xff76, lsl #16
   58670:	91001022 	add	x2, x1, #0x4
   58674:	f2bfeec3 	movk	x3, #0xff76, lsl #16
   58678:	b07f9ac4 	adrp	x4, ff3b1000 <rk3399m0pmu_bin>
   5867c:	b9400000 	ldr	w0, [x0]
   58680:	91090084 	add	x4, x4, #0x240
   58684:	b9000420 	str	w0, [x1, #4]
   58688:	d2800881 	mov	x1, #0x44                  	// #68
   5868c:	f2bfeec1 	movk	x1, #0xff76, lsl #16
   58690:	12002c00 	and	w0, w0, #0xfff
   58694:	b9400021 	ldr	w1, [x1]
   58698:	b9000441 	str	w1, [x2, #4]
   5869c:	b9400063 	ldr	w3, [x3]
   586a0:	b9000843 	str	w3, [x2, #8]
   586a4:	d2800983 	mov	x3, #0x4c                  	// #76
   586a8:	f2bfeec3 	movk	x3, #0xff76, lsl #16
   586ac:	b9400063 	ldr	w3, [x3]
   586b0:	b9000c43 	str	w3, [x2, #12]
   586b4:	d2800a03 	mov	x3, #0x50                  	// #80
   586b8:	f2bfeec3 	movk	x3, #0xff76, lsl #16
   586bc:	b9400063 	ldr	w3, [x3]
   586c0:	b9001043 	str	w3, [x2, #16]
   586c4:	d2800a83 	mov	x3, #0x54                  	// #84
   586c8:	f2bfeec3 	movk	x3, #0xff76, lsl #16
   586cc:	b9400063 	ldr	w3, [x3]
   586d0:	b9001443 	str	w3, [x2, #20]
   586d4:	52800302 	mov	w2, #0x18                  	// #24
   586d8:	d3482823 	ubfx	x3, x1, #8, #3
   586dc:	1b027c00 	mul	w0, w0, w2
   586e0:	d34c3822 	ubfx	x2, x1, #12, #3
   586e4:	12001421 	and	w1, w1, #0x3f
   586e8:	1b037c42 	mul	w2, w2, w3
   586ec:	1b017c41 	mul	w1, w2, w1
   586f0:	52802982 	mov	w2, #0x14c                 	// #332
   586f4:	1ac10800 	udiv	w0, w0, w1
   586f8:	52884801 	mov	w1, #0x4240                	// #16960
   586fc:	72a001e1 	movk	w1, #0xf, lsl #16
   58700:	1b017c00 	mul	w0, w0, w1
   58704:	d2bff501 	mov	x1, #0xffa80000            	// #4289200128
   58708:	b9004880 	str	w0, [x4, #72]
   5870c:	d2840280 	mov	x0, #0x2014                	// #8212
   58710:	f2bff500 	movk	x0, #0xffa8, lsl #16
   58714:	b9400000 	ldr	w0, [x0]
   58718:	f270081f 	tst	x0, #0x70000
   5871c:	1a9f07e0 	cset	w0, ne  // ne = any
   58720:	39013c80 	strb	w0, [x4, #79]
   58724:	b07f9ac0 	adrp	x0, ff3b1000 <rk3399m0pmu_bin>
   58728:	910a4000 	add	x0, x0, #0x290
   5872c:	97ffffbd 	bl	58620 <dram_regcpy>
   58730:	b9405080 	ldr	w0, [x4, #80]
   58734:	d2810001 	mov	x1, #0x800                 	// #2048
   58738:	52801902 	mov	w2, #0xc8                  	// #200
   5873c:	121f7800 	and	w0, w0, #0xfffffffe
   58740:	b9005080 	str	w0, [x4, #80]
   58744:	b07f9ac0 	adrp	x0, ff3b1000 <rk3399m0pmu_bin>
   58748:	911f0000 	add	x0, x0, #0x7c0
   5874c:	f2bff501 	movk	x1, #0xffa8, lsl #16
   58750:	97ffffb4 	bl	58620 <dram_regcpy>
   58754:	b9458080 	ldr	w0, [x4, #1408]
   58758:	d2840001 	mov	x1, #0x2000                	// #8192
   5875c:	52800b62 	mov	w2, #0x5b                  	// #91
   58760:	f2bff501 	movk	x1, #0xffa8, lsl #16
   58764:	121f7800 	and	w0, w0, #0xfffffffe
   58768:	b9058080 	str	w0, [x4, #1408]
   5876c:	b07f9ac0 	adrp	x0, ff3b1000 <rk3399m0pmu_bin>
   58770:	912b8000 	add	x0, x0, #0xae0
   58774:	97ffffab 	bl	58620 <dram_regcpy>
   58778:	d2850001 	mov	x1, #0x2800                	// #10240
   5877c:	528004c2 	mov	w2, #0x26                  	// #38
   58780:	f2bff501 	movk	x1, #0xffa8, lsl #16
   58784:	b07f9ac0 	adrp	x0, ff3b1000 <rk3399m0pmu_bin>
   58788:	91313000 	add	x0, x0, #0xc4c
   5878c:	97ffffa5 	bl	58620 <dram_regcpy>
   58790:	d2854001 	mov	x1, #0x2a00                	// #10752
   58794:	528004c2 	mov	w2, #0x26                  	// #38
   58798:	f2bff501 	movk	x1, #0xffa8, lsl #16
   5879c:	b07f9ac0 	adrp	x0, ff3b1000 <rk3399m0pmu_bin>
   587a0:	91339000 	add	x0, x0, #0xce4
   587a4:	97ffff9f 	bl	58620 <dram_regcpy>
   587a8:	d2858001 	mov	x1, #0x2c00                	// #11264
   587ac:	528004c2 	mov	w2, #0x26                  	// #38
   587b0:	f2bff501 	movk	x1, #0xffa8, lsl #16
   587b4:	b07f9ac0 	adrp	x0, ff3b1000 <rk3399m0pmu_bin>
   587b8:	9135f000 	add	x0, x0, #0xd7c
   587bc:	97ffff99 	bl	58620 <dram_regcpy>
   587c0:	d285c001 	mov	x1, #0x2e00                	// #11776
   587c4:	528007e2 	mov	w2, #0x3f                  	// #63
   587c8:	f2bff501 	movk	x1, #0xffa8, lsl #16
   587cc:	b07f9ac0 	adrp	x0, ff3b1000 <rk3399m0pmu_bin>
   587d0:	91385000 	add	x0, x0, #0xe14
   587d4:	97ffff93 	bl	58620 <dram_regcpy>
   587d8:	39413486 	ldrb	w6, [x4, #77]
   587dc:	52851c81 	mov	w1, #0x28e4                	// #10468
   587e0:	72bff501 	movk	w1, #0xffa8, lsl #16
   587e4:	d2800000 	mov	x0, #0x0                   	// #0
   587e8:	6b0000df 	cmp	w6, w0
   587ec:	54000168 	b.hi	58818 <dmc_suspend+0x1d4>  // b.pmore
   587f0:	b94cc880 	ldr	w0, [x4, #3272]
   587f4:	12067400 	and	w0, w0, #0xfcffffff
   587f8:	32080000 	orr	w0, w0, #0x1000000
   587fc:	b90cc880 	str	w0, [x4, #3272]
   58800:	b94bd480 	ldr	w0, [x4, #3028]
   58804:	12167400 	and	w0, w0, #0xfffffcff
   58808:	32000000 	orr	w0, w0, #0x1
   5880c:	b90bd480 	str	w0, [x4, #3028]
   58810:	a8c17bfd 	ldp	x29, x30, [sp], #16
   58814:	d65f03c0 	ret
   58818:	51200022 	sub	w2, w1, #0x800
   5881c:	8b001083 	add	x3, x4, x0, lsl #4
   58820:	2a0203e5 	mov	w5, w2
   58824:	11080042 	add	w2, w2, #0x200
   58828:	6b02003f 	cmp	w1, w2
   5882c:	91001063 	add	x3, x3, #0x4
   58830:	b94000a5 	ldr	w5, [x5]
   58834:	12102ca5 	and	w5, w5, #0xfff0000
   58838:	b90ccc65 	str	w5, [x3, #3276]
   5883c:	54ffff21 	b.ne	58820 <dmc_suspend+0x1dc>  // b.any
   58840:	91000400 	add	x0, x0, #0x1
   58844:	11402021 	add	w1, w1, #0x8, lsl #12
   58848:	17ffffe8 	b	587e8 <dmc_suspend+0x1a4>

000000000005884c <gpio_get_clock>:
   5884c:	53057c01 	lsr	w1, w0, #5
   58850:	71027c1f 	cmp	w0, #0x9f
   58854:	54000408 	b.hi	588d4 <gpio_get_clock+0x88>  // b.pmore
   58858:	f0000020 	adrp	x0, 5f000 <fdt_ro_probe_+0x20>
   5885c:	913b8000 	add	x0, x0, #0xee0
   58860:	38614800 	ldrb	w0, [x0, w1, uxtw]
   58864:	10000061 	adr	x1, 58870 <gpio_get_clock+0x24>
   58868:	8b208820 	add	x0, x1, w0, sxtb #2
   5886c:	d61f0000 	br	x0
   58870:	d2802081 	mov	x1, #0x104                 	// #260
   58874:	f2bfeea1 	movk	x1, #0xff75, lsl #16
   58878:	b9400020 	ldr	w0, [x1]
   5887c:	52a00102 	mov	w2, #0x80000               	// #524288
   58880:	d3430c00 	ubfx	x0, x0, #3, #1
   58884:	b9000022 	str	w2, [x1]
   58888:	d65f03c0 	ret
   5888c:	d2802081 	mov	x1, #0x104                 	// #260
   58890:	f2bfeea1 	movk	x1, #0xff75, lsl #16
   58894:	b9400020 	ldr	w0, [x1]
   58898:	52a00202 	mov	w2, #0x100000              	// #1048576
   5889c:	d3441000 	ubfx	x0, x0, #4, #1
   588a0:	17fffff9 	b	58884 <gpio_get_clock+0x38>
   588a4:	d2806f81 	mov	x1, #0x37c                 	// #892
   588a8:	f2bfeec1 	movk	x1, #0xff76, lsl #16
   588ac:	17fffff3 	b	58878 <gpio_get_clock+0x2c>
   588b0:	d2806f81 	mov	x1, #0x37c                 	// #892
   588b4:	f2bfeec1 	movk	x1, #0xff76, lsl #16
   588b8:	17fffff7 	b	58894 <gpio_get_clock+0x48>
   588bc:	d2806f81 	mov	x1, #0x37c                 	// #892
   588c0:	52a00402 	mov	w2, #0x200000              	// #2097152
   588c4:	f2bfeec1 	movk	x1, #0xff76, lsl #16
   588c8:	b9400020 	ldr	w0, [x1]
   588cc:	d3451400 	ubfx	x0, x0, #5, #1
   588d0:	17ffffed 	b	58884 <gpio_get_clock+0x38>
   588d4:	52800000 	mov	w0, #0x0                   	// #0
   588d8:	17ffffec 	b	58888 <gpio_get_clock+0x3c>

00000000000588dc <gpio_put_clock>:
   588dc:	53057c02 	lsr	w2, w0, #5
   588e0:	71027c1f 	cmp	w0, #0x9f
   588e4:	54000188 	b.hi	58914 <gpio_put_clock+0x38>  // b.pmore
   588e8:	f0000020 	adrp	x0, 5f000 <fdt_ro_probe_+0x20>
   588ec:	913ba000 	add	x0, x0, #0xee8
   588f0:	38624800 	ldrb	w0, [x0, w2, uxtw]
   588f4:	10000062 	adr	x2, 58900 <gpio_put_clock+0x24>
   588f8:	8b208840 	add	x0, x2, w0, sxtb #2
   588fc:	d61f0000 	br	x0
   58900:	531d7021 	lsl	w1, w1, #3
   58904:	320d0021 	orr	w1, w1, #0x80000
   58908:	d2802080 	mov	x0, #0x104                 	// #260
   5890c:	f2bfeea0 	movk	x0, #0xff75, lsl #16
   58910:	b9000001 	str	w1, [x0]
   58914:	d65f03c0 	ret
   58918:	531c6c21 	lsl	w1, w1, #4
   5891c:	320c0021 	orr	w1, w1, #0x100000
   58920:	17fffffa 	b	58908 <gpio_put_clock+0x2c>
   58924:	531d7021 	lsl	w1, w1, #3
   58928:	320d0021 	orr	w1, w1, #0x80000
   5892c:	d2806f80 	mov	x0, #0x37c                 	// #892
   58930:	f2bfeec0 	movk	x0, #0xff76, lsl #16
   58934:	17fffff7 	b	58910 <gpio_put_clock+0x34>
   58938:	531c6c21 	lsl	w1, w1, #4
   5893c:	320c0021 	orr	w1, w1, #0x100000
   58940:	17fffffb 	b	5892c <gpio_put_clock+0x50>
   58944:	531b6821 	lsl	w1, w1, #5
   58948:	320b0021 	orr	w1, w1, #0x200000
   5894c:	17fffff8 	b	5892c <gpio_put_clock+0x50>

0000000000058950 <get_pull>:
   58950:	6b0003e3 	negs	w3, w0
   58954:	12001001 	and	w1, w0, #0x1f
   58958:	12001063 	and	w3, w3, #0x1f
   5895c:	52800404 	mov	w4, #0x20                  	// #32
   58960:	5a834423 	csneg	w3, w1, w3, mi  // mi = first
   58964:	52800106 	mov	w6, #0x8                   	// #8
   58968:	1ac40c04 	sdiv	w4, w0, w4
   5896c:	2a0003e5 	mov	w5, w0
   58970:	a9bf7bfd 	stp	x29, x30, [sp, #-16]!
   58974:	1ac60c66 	sdiv	w6, w3, w6
   58978:	910003fd 	mov	x29, sp
   5897c:	97ffffb4 	bl	5884c <gpio_get_clock>
   58980:	6b0303e2 	negs	w2, w3
   58984:	12000842 	and	w2, w2, #0x7
   58988:	12000863 	and	w3, w3, #0x7
   5898c:	5a824463 	csneg	w3, w3, w2, mi  // mi = first
   58990:	2a0003e1 	mov	w1, w0
   58994:	7100049f 	cmp	w4, #0x1
   58998:	531f7862 	lsl	w2, w3, #1
   5899c:	54000328 	b.hi	58a00 <get_pull+0xb0>  // b.pmore
   589a0:	52840083 	mov	w3, #0x2004                	// #8196
   589a4:	72a1fe63 	movk	w3, #0xff3, lsl #16
   589a8:	0b030083 	add	w3, w4, w3
   589ac:	2a0503e0 	mov	w0, w5
   589b0:	0b0308c3 	add	w3, w6, w3, lsl #2
   589b4:	531e7463 	lsl	w3, w3, #2
   589b8:	b9400063 	ldr	w3, [x3]
   589bc:	1ac22463 	lsr	w3, w3, w2
   589c0:	12000463 	and	w3, w3, #0x3
   589c4:	97ffffc6 	bl	588dc <gpio_put_clock>
   589c8:	7100009f 	cmp	w4, #0x0
   589cc:	7a4108c2 	ccmp	w6, #0x1, #0x2, eq  // eq = none
   589d0:	54000089 	b.ls	589e0 <get_pull+0x90>  // b.plast
   589d4:	7100089f 	cmp	w4, #0x2
   589d8:	7a4108c0 	ccmp	w6, #0x1, #0x0, eq  // eq = none
   589dc:	540000c9 	b.ls	589f4 <get_pull+0xa4>  // b.plast
   589e0:	71000c7f 	cmp	w3, #0x3
   589e4:	54000140 	b.eq	58a0c <get_pull+0xbc>  // b.none
   589e8:	7100047f 	cmp	w3, #0x1
   589ec:	1a9f17e3 	cset	w3, eq  // eq = none
   589f0:	531f7863 	lsl	w3, w3, #1
   589f4:	2a0303e0 	mov	w0, w3
   589f8:	a8c17bfd 	ldp	x29, x30, [sp], #16
   589fc:	d65f03c0 	ret
   58a00:	528fc043 	mov	w3, #0x7e02                	// #32258
   58a04:	72a1fee3 	movk	w3, #0xff7, lsl #16
   58a08:	17ffffe8 	b	589a8 <get_pull+0x58>
   58a0c:	52800023 	mov	w3, #0x1                   	// #1
   58a10:	17fffff9 	b	589f4 <get_pull+0xa4>

0000000000058a14 <set_pull>:
   58a14:	2a0103e3 	mov	w3, w1
   58a18:	6b0003e1 	negs	w1, w0
   58a1c:	12001004 	and	w4, w0, #0x1f
   58a20:	12001021 	and	w1, w1, #0x1f
   58a24:	5a814481 	csneg	w1, w4, w1, mi  // mi = first
   58a28:	52800405 	mov	w5, #0x20                  	// #32
   58a2c:	52800107 	mov	w7, #0x8                   	// #8
   58a30:	6b0103e4 	negs	w4, w1
   58a34:	1ac50c05 	sdiv	w5, w0, w5
   58a38:	12000884 	and	w4, w4, #0x7
   58a3c:	2a0003e6 	mov	w6, w0
   58a40:	a9bf7bfd 	stp	x29, x30, [sp, #-16]!
   58a44:	1ac70c27 	sdiv	w7, w1, w7
   58a48:	12000821 	and	w1, w1, #0x7
   58a4c:	5a844424 	csneg	w4, w1, w4, mi  // mi = first
   58a50:	910003fd 	mov	x29, sp
   58a54:	97ffff7e 	bl	5884c <gpio_get_clock>
   58a58:	710000bf 	cmp	w5, #0x0
   58a5c:	2a0003e1 	mov	w1, w0
   58a60:	7a4108e2 	ccmp	w7, #0x1, #0x2, eq  // eq = none
   58a64:	54000309 	b.ls	58ac4 <set_pull+0xb0>  // b.plast
   58a68:	710008bf 	cmp	w5, #0x2
   58a6c:	7a4108e0 	ccmp	w7, #0x1, #0x0, eq  // eq = none
   58a70:	54000328 	b.hi	58ad4 <set_pull+0xc0>  // b.pmore
   58a74:	710004bf 	cmp	w5, #0x1
   58a78:	54000348 	b.hi	58ae0 <set_pull+0xcc>  // b.pmore
   58a7c:	531f7884 	lsl	w4, w4, #1
   58a80:	52800062 	mov	w2, #0x3                   	// #3
   58a84:	11004080 	add	w0, w4, #0x10
   58a88:	1ac42063 	lsl	w3, w3, w4
   58a8c:	1ac02042 	lsl	w2, w2, w0
   58a90:	2a030043 	orr	w3, w2, w3
   58a94:	52840082 	mov	w2, #0x2004                	// #8196
   58a98:	72a1fe62 	movk	w2, #0xff3, lsl #16
   58a9c:	0b0200a5 	add	w5, w5, w2
   58aa0:	2a0603e0 	mov	w0, w6
   58aa4:	0b0508e5 	add	w5, w7, w5, lsl #2
   58aa8:	531e74a5 	lsl	w5, w5, #2
   58aac:	b90000a3 	str	w3, [x5]
   58ab0:	a8c17bfd 	ldp	x29, x30, [sp], #16
   58ab4:	17ffff8a 	b	588dc <gpio_put_clock>
   58ab8:	7100087f 	cmp	w3, #0x2
   58abc:	1a9f17e3 	cset	w3, eq  // eq = none
   58ac0:	17ffffed 	b	58a74 <set_pull+0x60>
   58ac4:	7100047f 	cmp	w3, #0x1
   58ac8:	54ffff81 	b.ne	58ab8 <set_pull+0xa4>  // b.any
   58acc:	52800063 	mov	w3, #0x3                   	// #3
   58ad0:	17ffffeb 	b	58a7c <set_pull+0x68>
   58ad4:	7100047f 	cmp	w3, #0x1
   58ad8:	54ffff01 	b.ne	58ab8 <set_pull+0xa4>  // b.any
   58adc:	52800063 	mov	w3, #0x3                   	// #3
   58ae0:	531f7884 	lsl	w4, w4, #1
   58ae4:	52800062 	mov	w2, #0x3                   	// #3
   58ae8:	11004080 	add	w0, w4, #0x10
   58aec:	1ac42063 	lsl	w3, w3, w4
   58af0:	1ac02042 	lsl	w2, w2, w0
   58af4:	2a030043 	orr	w3, w2, w3
   58af8:	528fc042 	mov	w2, #0x7e02                	// #32258
   58afc:	72a1fee2 	movk	w2, #0xff7, lsl #16
   58b00:	17ffffe7 	b	58a9c <set_pull+0x88>

0000000000058b04 <set_value>:
   58b04:	6b0003e4 	negs	w4, w0
   58b08:	12001002 	and	w2, w0, #0x1f
   58b0c:	12001084 	and	w4, w4, #0x1f
   58b10:	2a0003e3 	mov	w3, w0
   58b14:	5a844444 	csneg	w4, w2, w4, mi  // mi = first
   58b18:	2a0103e5 	mov	w5, w1
   58b1c:	a9bf7bfd 	stp	x29, x30, [sp, #-16]!
   58b20:	910003fd 	mov	x29, sp
   58b24:	97ffff4a 	bl	5884c <gpio_get_clock>
   58b28:	710000bf 	cmp	w5, #0x0
   58b2c:	52800406 	mov	w6, #0x20                  	// #32
   58b30:	d0000042 	adrp	x2, 62000 <__RO_END__>
   58b34:	91011042 	add	x2, x2, #0x44
   58b38:	1a9f07e5 	cset	w5, ne  // ne = any
   58b3c:	1ac60c66 	sdiv	w6, w3, w6
   58b40:	b8667846 	ldr	w6, [x2, x6, lsl #2]
   58b44:	52800022 	mov	w2, #0x1                   	// #1
   58b48:	1ac42042 	lsl	w2, w2, w4
   58b4c:	1ac420a4 	lsl	w4, w5, w4
   58b50:	b94000c1 	ldr	w1, [x6]
   58b54:	0a220022 	bic	w2, w1, w2
   58b58:	2a0003e1 	mov	w1, w0
   58b5c:	2a040042 	orr	w2, w2, w4
   58b60:	b90000c2 	str	w2, [x6]
   58b64:	2a0303e0 	mov	w0, w3
   58b68:	a8c17bfd 	ldp	x29, x30, [sp], #16
   58b6c:	17ffff5c 	b	588dc <gpio_put_clock>

0000000000058b70 <get_value>:
   58b70:	2a0003e3 	mov	w3, w0
   58b74:	a9bf7bfd 	stp	x29, x30, [sp, #-16]!
   58b78:	910003fd 	mov	x29, sp
   58b7c:	97ffff34 	bl	5884c <gpio_get_clock>
   58b80:	2a0003e1 	mov	w1, w0
   58b84:	52800404 	mov	w4, #0x20                  	// #32
   58b88:	d0000042 	adrp	x2, 62000 <__RO_END__>
   58b8c:	91011042 	add	x2, x2, #0x44
   58b90:	2a0303e0 	mov	w0, w3
   58b94:	1ac40c64 	sdiv	w4, w3, w4
   58b98:	b8647842 	ldr	w2, [x2, x4, lsl #2]
   58b9c:	11014042 	add	w2, w2, #0x50
   58ba0:	b9400044 	ldr	w4, [x2]
   58ba4:	97ffff4e 	bl	588dc <gpio_put_clock>
   58ba8:	6b0303e0 	negs	w0, w3
   58bac:	12001000 	and	w0, w0, #0x1f
   58bb0:	12001063 	and	w3, w3, #0x1f
   58bb4:	5a804463 	csneg	w3, w3, w0, mi  // mi = first
   58bb8:	a8c17bfd 	ldp	x29, x30, [sp], #16
   58bbc:	1ac32483 	lsr	w3, w4, w3
   58bc0:	12000060 	and	w0, w3, #0x1
   58bc4:	d65f03c0 	ret

0000000000058bc8 <set_direction>:
   58bc8:	2a0003e3 	mov	w3, w0
   58bcc:	2a0103e4 	mov	w4, w1
   58bd0:	a9bf7bfd 	stp	x29, x30, [sp, #-16]!
   58bd4:	910003fd 	mov	x29, sp
   58bd8:	97ffff1d 	bl	5884c <gpio_get_clock>
   58bdc:	7100009f 	cmp	w4, #0x0
   58be0:	52800405 	mov	w5, #0x20                  	// #32
   58be4:	d0000042 	adrp	x2, 62000 <__RO_END__>
   58be8:	91011042 	add	x2, x2, #0x44
   58bec:	12001066 	and	w6, w3, #0x1f
   58bf0:	1ac50c65 	sdiv	w5, w3, w5
   58bf4:	b8657845 	ldr	w5, [x2, x5, lsl #2]
   58bf8:	1a9f17e2 	cset	w2, eq  // eq = none
   58bfc:	6b0303e4 	negs	w4, w3
   58c00:	110010a5 	add	w5, w5, #0x4
   58c04:	12001084 	and	w4, w4, #0x1f
   58c08:	5a8444c4 	csneg	w4, w6, w4, mi  // mi = first
   58c0c:	b94000a1 	ldr	w1, [x5]
   58c10:	1ac42042 	lsl	w2, w2, w4
   58c14:	2a010042 	orr	w2, w2, w1
   58c18:	b90000a2 	str	w2, [x5]
   58c1c:	2a0003e1 	mov	w1, w0
   58c20:	2a0303e0 	mov	w0, w3
   58c24:	a8c17bfd 	ldp	x29, x30, [sp], #16
   58c28:	17ffff2d 	b	588dc <gpio_put_clock>

0000000000058c2c <get_direction>:
   58c2c:	2a0003e3 	mov	w3, w0
   58c30:	a9bf7bfd 	stp	x29, x30, [sp, #-16]!
   58c34:	910003fd 	mov	x29, sp
   58c38:	97ffff05 	bl	5884c <gpio_get_clock>
   58c3c:	2a0003e1 	mov	w1, w0
   58c40:	52800404 	mov	w4, #0x20                  	// #32
   58c44:	d0000042 	adrp	x2, 62000 <__RO_END__>
   58c48:	91011042 	add	x2, x2, #0x44
   58c4c:	2a0303e0 	mov	w0, w3
   58c50:	1ac40c64 	sdiv	w4, w3, w4
   58c54:	b8647842 	ldr	w2, [x2, x4, lsl #2]
   58c58:	11001042 	add	w2, w2, #0x4
   58c5c:	b9400044 	ldr	w4, [x2]
   58c60:	97ffff1f 	bl	588dc <gpio_put_clock>
   58c64:	6b0303e0 	negs	w0, w3
   58c68:	12001000 	and	w0, w0, #0x1f
   58c6c:	12001063 	and	w3, w3, #0x1f
   58c70:	5a804460 	csneg	w0, w3, w0, mi  // mi = first
   58c74:	a8c17bfd 	ldp	x29, x30, [sp], #16
   58c78:	1ac02480 	lsr	w0, w4, w0
   58c7c:	2a2003e0 	mvn	w0, w0
   58c80:	12000000 	and	w0, w0, #0x1
   58c84:	d65f03c0 	ret

0000000000058c88 <plat_rockchip_save_gpio>:
   58c88:	d2806f80 	mov	x0, #0x37c                 	// #892
   58c8c:	52a00701 	mov	w1, #0x380000              	// #3670016
   58c90:	f2bfeec0 	movk	x0, #0xff76, lsl #16
   58c94:	d0000044 	adrp	x4, 62000 <__RO_END__>
   58c98:	91011084 	add	x4, x4, #0x44
   58c9c:	d2800042 	mov	x2, #0x2                   	// #2
   58ca0:	b9400003 	ldr	w3, [x0]
   58ca4:	b9000001 	str	w1, [x0]
   58ca8:	90000080 	adrp	x0, 68000 <dist_ctx+0x1e98>
   58cac:	91361000 	add	x0, x0, #0xd84
   58cb0:	b8627881 	ldr	w1, [x4, x2, lsl #2]
   58cb4:	91000442 	add	x2, x2, #0x1
   58cb8:	f100145f 	cmp	x2, #0x5
   58cbc:	91008000 	add	x0, x0, #0x20
   58cc0:	2a0103e5 	mov	w5, w1
   58cc4:	b94000a5 	ldr	w5, [x5]
   58cc8:	b81e0005 	stur	w5, [x0, #-32]
   58ccc:	11001025 	add	w5, w1, #0x4
   58cd0:	b94000a5 	ldr	w5, [x5]
   58cd4:	b81e4005 	stur	w5, [x0, #-28]
   58cd8:	1100c025 	add	w5, w1, #0x30
   58cdc:	b94000a5 	ldr	w5, [x5]
   58ce0:	b81e8005 	stur	w5, [x0, #-24]
   58ce4:	1100d025 	add	w5, w1, #0x34
   58ce8:	b94000a5 	ldr	w5, [x5]
   58cec:	b81ec005 	stur	w5, [x0, #-20]
   58cf0:	1100e025 	add	w5, w1, #0x38
   58cf4:	b94000a5 	ldr	w5, [x5]
   58cf8:	b81f0005 	stur	w5, [x0, #-16]
   58cfc:	1100f025 	add	w5, w1, #0x3c
   58d00:	b94000a5 	ldr	w5, [x5]
   58d04:	b81f4005 	stur	w5, [x0, #-12]
   58d08:	11012025 	add	w5, w1, #0x48
   58d0c:	11018021 	add	w1, w1, #0x60
   58d10:	b94000a5 	ldr	w5, [x5]
   58d14:	b81f8005 	stur	w5, [x0, #-8]
   58d18:	b9400021 	ldr	w1, [x1]
   58d1c:	b81fc001 	stur	w1, [x0, #-4]
   58d20:	54fffc81 	b.ne	58cb0 <plat_rockchip_save_gpio+0x28>  // b.any
   58d24:	d2806f81 	mov	x1, #0x37c                 	// #892
   58d28:	32103c60 	orr	w0, w3, #0xffff0000
   58d2c:	f2bfeec1 	movk	x1, #0xff76, lsl #16
   58d30:	d29c3202 	mov	x2, #0xe190                	// #57744
   58d34:	f2bfeee2 	movk	x2, #0xff77, lsl #16
   58d38:	b9000020 	str	w0, [x1]
   58d3c:	d29c0000 	mov	x0, #0xe000                	// #57344
   58d40:	90000081 	adrp	x1, 68000 <dist_ctx+0x1e98>
   58d44:	91379021 	add	x1, x1, #0xde4
   58d48:	f2bfeee0 	movk	x0, #0xff77, lsl #16
   58d4c:	cb000021 	sub	x1, x1, x0
   58d50:	b9400003 	ldr	w3, [x0]
   58d54:	b8216803 	str	w3, [x0, x1]
   58d58:	91001000 	add	x0, x0, #0x4
   58d5c:	eb02001f 	cmp	x0, x2
   58d60:	54ffff81 	b.ne	58d50 <plat_rockchip_save_gpio+0xc8>  // b.any
   58d64:	d65f03c0 	ret

0000000000058d68 <plat_rockchip_restore_gpio>:
   58d68:	d29c0000 	mov	x0, #0xe000                	// #57344
   58d6c:	90000081 	adrp	x1, 68000 <dist_ctx+0x1e98>
   58d70:	91379021 	add	x1, x1, #0xde4
   58d74:	f2bfeee0 	movk	x0, #0xff77, lsl #16
   58d78:	d29c3203 	mov	x3, #0xe190                	// #57744
   58d7c:	cb000021 	sub	x1, x1, x0
   58d80:	f2bfeee3 	movk	x3, #0xff77, lsl #16
   58d84:	b8616802 	ldr	w2, [x0, x1]
   58d88:	32103c42 	orr	w2, w2, #0xffff0000
   58d8c:	b8004402 	str	w2, [x0], #4
   58d90:	eb03001f 	cmp	x0, x3
   58d94:	54ffff81 	b.ne	58d84 <plat_rockchip_restore_gpio+0x1c>  // b.any
   58d98:	d2806f80 	mov	x0, #0x37c                 	// #892
   58d9c:	52a00701 	mov	w1, #0x380000              	// #3670016
   58da0:	f2bfeec0 	movk	x0, #0xff76, lsl #16
   58da4:	52800043 	mov	w3, #0x2                   	// #2
   58da8:	b9400002 	ldr	w2, [x0]
   58dac:	b9000001 	str	w1, [x0]
   58db0:	d0000041 	adrp	x1, 62000 <__RO_END__>
   58db4:	90000080 	adrp	x0, 68000 <dist_ctx+0x1e98>
   58db8:	91011021 	add	x1, x1, #0x44
   58dbc:	91361000 	add	x0, x0, #0xd84
   58dc0:	b9400824 	ldr	w4, [x1, #8]
   58dc4:	11000463 	add	w3, w3, #0x1
   58dc8:	b9400005 	ldr	w5, [x0]
   58dcc:	7100147f 	cmp	w3, #0x5
   58dd0:	91008000 	add	x0, x0, #0x20
   58dd4:	91001021 	add	x1, x1, #0x4
   58dd8:	b9000085 	str	w5, [x4]
   58ddc:	b9400424 	ldr	w4, [x1, #4]
   58de0:	b85e4005 	ldur	w5, [x0, #-28]
   58de4:	11001084 	add	w4, w4, #0x4
   58de8:	b9000085 	str	w5, [x4]
   58dec:	b9400424 	ldr	w4, [x1, #4]
   58df0:	b85e8005 	ldur	w5, [x0, #-24]
   58df4:	1100c084 	add	w4, w4, #0x30
   58df8:	b9000085 	str	w5, [x4]
   58dfc:	b9400424 	ldr	w4, [x1, #4]
   58e00:	b85ec005 	ldur	w5, [x0, #-20]
   58e04:	1100d084 	add	w4, w4, #0x34
   58e08:	b9000085 	str	w5, [x4]
   58e0c:	b9400424 	ldr	w4, [x1, #4]
   58e10:	b85f0005 	ldur	w5, [x0, #-16]
   58e14:	1100e084 	add	w4, w4, #0x38
   58e18:	b9000085 	str	w5, [x4]
   58e1c:	b9400424 	ldr	w4, [x1, #4]
   58e20:	b85f4005 	ldur	w5, [x0, #-12]
   58e24:	1100f084 	add	w4, w4, #0x3c
   58e28:	b9000085 	str	w5, [x4]
   58e2c:	b9400424 	ldr	w4, [x1, #4]
   58e30:	b85f8005 	ldur	w5, [x0, #-8]
   58e34:	11012084 	add	w4, w4, #0x48
   58e38:	b9000085 	str	w5, [x4]
   58e3c:	b9400424 	ldr	w4, [x1, #4]
   58e40:	b85fc005 	ldur	w5, [x0, #-4]
   58e44:	11018084 	add	w4, w4, #0x60
   58e48:	b9000085 	str	w5, [x4]
   58e4c:	54fffba1 	b.ne	58dc0 <plat_rockchip_restore_gpio+0x58>  // b.any
   58e50:	d2806f81 	mov	x1, #0x37c                 	// #892
   58e54:	32103c40 	orr	w0, w2, #0xffff0000
   58e58:	f2bfeec1 	movk	x1, #0xff76, lsl #16
   58e5c:	b9000020 	str	w0, [x1]
   58e60:	d65f03c0 	ret

0000000000058e64 <plat_rockchip_gpio_init>:
   58e64:	f0000020 	adrp	x0, 5f000 <fdt_ro_probe_+0x20>
   58e68:	912dc000 	add	x0, x0, #0xb70
   58e6c:	17ffe17f 	b	51468 <gpio_init>

0000000000058e70 <m0_init>:
   58e70:	d2982000 	mov	x0, #0xc100                	// #49408
   58e74:	52a01001 	mov	w1, #0x800000              	// #8388608
   58e78:	f2bfe660 	movk	x0, #0xff33, lsl #16
   58e7c:	b9000001 	str	w1, [x0]
   58e80:	d29c0300 	mov	x0, #0xe018                	// #57368
   58e84:	f2bfe660 	movk	x0, #0xff33, lsl #16
   58e88:	52a20001 	mov	w1, #0x10000000            	// #268435456
   58e8c:	b9000001 	str	w1, [x0]
   58e90:	d2802601 	mov	x1, #0x130                 	// #304
   58e94:	f2bfeea1 	movk	x1, #0xff75, lsl #16
   58e98:	b9400020 	ldr	w0, [x1]
   58e9c:	321f0000 	orr	w0, w0, #0x2
   58ea0:	b9000020 	str	w0, [x1]
   58ea4:	d2801000 	mov	x0, #0x80                  	// #128
   58ea8:	52900001 	mov	w1, #0x8000                	// #32768
   58eac:	f2bfeea0 	movk	x0, #0xff75, lsl #16
   58eb0:	72b3e001 	movk	w1, #0x9f00, lsl #16
   58eb4:	b9000001 	str	w1, [x0]
   58eb8:	52a00401 	mov	w1, #0x200000              	// #2097152
   58ebc:	b9008801 	str	w1, [x0, #136]
   58ec0:	d65f03c0 	ret

0000000000058ec4 <m0_configure_execute_addr>:
   58ec4:	d2982182 	mov	x2, #0xc10c                	// #49420
   58ec8:	d34cfc01 	lsr	x1, x0, #12
   58ecc:	f2bfe662 	movk	x2, #0xff33, lsl #16
   58ed0:	32103c21 	orr	w1, w1, #0xffff0000
   58ed4:	531c7c00 	lsr	w0, w0, #28
   58ed8:	b9000041 	str	w1, [x2]
   58edc:	d2982381 	mov	x1, #0xc11c                	// #49436
   58ee0:	f2bfe661 	movk	x1, #0xff33, lsl #16
   58ee4:	32100c00 	orr	w0, w0, #0xf0000
   58ee8:	b9000020 	str	w0, [x1]
   58eec:	d65f03c0 	ret

0000000000058ef0 <m0_start>:
   58ef0:	a9be7bfd 	stp	x29, x30, [sp, #-32]!
   58ef4:	d2802100 	mov	x0, #0x108                 	// #264
   58ef8:	f2bfeea0 	movk	x0, #0xff75, lsl #16
   58efc:	910003fd 	mov	x29, sp
   58f00:	f9000bf3 	str	x19, [sp, #16]
   58f04:	52a001e1 	mov	w1, #0xf0000               	// #983040
   58f08:	b9000001 	str	w1, [x0]
   58f0c:	907fc340 	adrp	x0, ff8c0000 <rk3399m0_bin>
   58f10:	91000000 	add	x0, x0, #0x0
   58f14:	b900e41f 	str	wzr, [x0, #228]
   58f18:	d5033ebf 	dmb	st
   58f1c:	d2802213 	mov	x19, #0x110                 	// #272
   58f20:	52a00080 	mov	w0, #0x40000               	// #262144
   58f24:	f2bfeeb3 	movk	x19, #0xff75, lsl #16
   58f28:	b9000260 	str	w0, [x19]
   58f2c:	528000a0 	mov	w0, #0x5                   	// #5
   58f30:	97ffe10b 	bl	5135c <udelay>
   58f34:	52a00400 	mov	w0, #0x200000              	// #2097152
   58f38:	b9000260 	str	w0, [x19]
   58f3c:	d5033ebf 	dmb	st
   58f40:	f9400bf3 	ldr	x19, [sp, #16]
   58f44:	a8c27bfd 	ldp	x29, x30, [sp], #32
   58f48:	d65f03c0 	ret

0000000000058f4c <m0_stop>:
   58f4c:	d2802200 	mov	x0, #0x110                 	// #272
   58f50:	52800481 	mov	w1, #0x24                  	// #36
   58f54:	f2bfeea0 	movk	x0, #0xff75, lsl #16
   58f58:	72a00481 	movk	w1, #0x24, lsl #16
   58f5c:	b9000001 	str	w1, [x0]
   58f60:	d2802100 	mov	x0, #0x108                 	// #264
   58f64:	f2bfeea0 	movk	x0, #0xff75, lsl #16
   58f68:	32008fe1 	mov	w1, #0xf000f               	// #983055
   58f6c:	b9000001 	str	w1, [x0]
   58f70:	d65f03c0 	ret

0000000000058f74 <m0_wait_done>:
   58f74:	a9be7bfd 	stp	x29, x30, [sp, #-32]!
   58f78:	910003fd 	mov	x29, sp
   58f7c:	a90153f3 	stp	x19, x20, [sp, #16]
   58f80:	907fc353 	adrp	x19, ff8c0000 <rk3399m0_bin>
   58f84:	52987354 	mov	w20, #0xc39a                	// #50074
   58f88:	91000273 	add	x19, x19, #0x0
   58f8c:	72beb3d4 	movk	w20, #0xf59e, lsl #16
   58f90:	528000a0 	mov	w0, #0x5                   	// #5
   58f94:	97ffe0f2 	bl	5135c <udelay>
   58f98:	d5033f9f 	dsb	sy
   58f9c:	b940e660 	ldr	w0, [x19, #228]
   58fa0:	6b14001f 	cmp	w0, w20
   58fa4:	54ffff61 	b.ne	58f90 <m0_wait_done+0x1c>  // b.any
   58fa8:	52800140 	mov	w0, #0xa                   	// #10
   58fac:	97ffe0ec 	bl	5135c <udelay>
   58fb0:	d5033f9f 	dsb	sy
   58fb4:	a94153f3 	ldp	x19, x20, [sp, #16]
   58fb8:	a8c27bfd 	ldp	x29, x30, [sp], #32
   58fbc:	d65f03c0 	ret

0000000000058fc0 <pmu_power_domain_st>:
   58fc0:	d2800301 	mov	x1, #0x18                  	// #24
   58fc4:	f2bfe621 	movk	x1, #0xff31, lsl #16
   58fc8:	b9400022 	ldr	w2, [x1]
   58fcc:	d2800021 	mov	x1, #0x1                   	// #1
   58fd0:	9ac02021 	lsl	x1, x1, x0
   58fd4:	6a01005f 	tst	w2, w1
   58fd8:	1a9f07e0 	cset	w0, ne  // ne = any
   58fdc:	d65f03c0 	ret

0000000000058fe0 <pmu_power_domain_ctr>:
   58fe0:	a9bd7bfd 	stp	x29, x30, [sp, #-48]!
   58fe4:	910003fd 	mov	x29, sp
   58fe8:	a9025bf5 	stp	x21, x22, [sp, #32]
   58fec:	b0000255 	adrp	x21, a1000 <psci_locks>
   58ff0:	910122b5 	add	x21, x21, #0x48
   58ff4:	a90153f3 	stp	x19, x20, [sp, #16]
   58ff8:	2a0103f3 	mov	w19, w1
   58ffc:	2a0003f4 	mov	w20, w0
   59000:	aa1503e0 	mov	x0, x21
   59004:	97ffe21f 	bl	51880 <bakery_lock_get>
   59008:	d2800280 	mov	x0, #0x14                  	// #20
   5900c:	d2800022 	mov	x2, #0x1                   	// #1
   59010:	f2bfe620 	movk	x0, #0xff31, lsl #16
   59014:	9ad42042 	lsl	x2, x2, x20
   59018:	7100067f 	cmp	w19, #0x1
   5901c:	b9400001 	ldr	w1, [x0]
   59020:	2a020023 	orr	w3, w1, w2
   59024:	0a220022 	bic	w2, w1, w2
   59028:	1a831042 	csel	w2, w2, w3, ne  // ne = any
   5902c:	b9000002 	str	w2, [x0]
   59030:	d5033f9f 	dsb	sy
   59034:	5284e236 	mov	w22, #0x2711                	// #10001
   59038:	2a1403e0 	mov	w0, w20
   5903c:	97ffffe1 	bl	58fc0 <pmu_power_domain_st>
   59040:	6b13001f 	cmp	w0, w19
   59044:	54000060 	b.eq	59050 <pmu_power_domain_ctr+0x70>  // b.none
   59048:	710006d6 	subs	w22, w22, #0x1
   5904c:	540001a1 	b.ne	59080 <pmu_power_domain_ctr+0xa0>  // b.any
   59050:	2a1403e0 	mov	w0, w20
   59054:	97ffffdb 	bl	58fc0 <pmu_power_domain_st>
   59058:	6b13001f 	cmp	w0, w19
   5905c:	aa1503e0 	mov	x0, x21
   59060:	128002b3 	mov	w19, #0xffffffea            	// #-22
   59064:	1a9303f3 	csel	w19, wzr, w19, eq  // eq = none
   59068:	97ffe236 	bl	51940 <bakery_lock_release>
   5906c:	2a1303e0 	mov	w0, w19
   59070:	a94153f3 	ldp	x19, x20, [sp, #16]
   59074:	a9425bf5 	ldp	x21, x22, [sp, #32]
   59078:	a8c37bfd 	ldp	x29, x30, [sp], #48
   5907c:	d65f03c0 	ret
   59080:	52800020 	mov	w0, #0x1                   	// #1
   59084:	97ffe0b6 	bl	5135c <udelay>
   59088:	17ffffec 	b	59038 <pmu_power_domain_ctr+0x58>

000000000005908c <clst_pwr_domain_suspend>:
   5908c:	a9be7bfd 	stp	x29, x30, [sp, #-32]!
   59090:	910003fd 	mov	x29, sp
   59094:	f9000bf3 	str	x19, [sp, #16]
   59098:	12001c13 	and	w19, w0, #0xff
   5909c:	940013db 	bl	5e008 <plat_my_core_pos>
   590a0:	71000a7f 	cmp	w19, #0x2
   590a4:	54000401 	b.ne	59124 <clst_pwr_domain_suspend+0x98>  // b.any
   590a8:	d2800305 	mov	x5, #0x18                  	// #24
   590ac:	7100101f 	cmp	w0, #0x4
   590b0:	52800602 	mov	w2, #0x30                  	// #48
   590b4:	f2bfe625 	movk	x5, #0xff31, lsl #16
   590b8:	528001e1 	mov	w1, #0xf                   	// #15
   590bc:	1a823021 	csel	w1, w1, w2, cc  // cc = lo, ul, last
   590c0:	d2800022 	mov	x2, #0x1                   	// #1
   590c4:	1a9f37e3 	cset	w3, cs  // cs = hs, nlast
   590c8:	9ac02042 	lsl	x2, x2, x0
   590cc:	b94000a0 	ldr	w0, [x5]
   590d0:	0a220022 	bic	w2, w1, w2
   590d4:	0a000020 	and	w0, w1, w0
   590d8:	6b00005f 	cmp	w2, w0
   590dc:	54000241 	b.ne	59124 <clst_pwr_domain_suspend+0x98>  // b.any
   590e0:	52800180 	mov	w0, #0xc                   	// #12
   590e4:	52a06004 	mov	w4, #0x3000000             	// #50331648
   590e8:	72bfeec0 	movk	w0, #0xff76, lsl #16
   590ec:	528014a6 	mov	w6, #0xa5                  	// #165
   590f0:	0b031400 	add	w0, w0, w3, lsl #5
   590f4:	b9000004 	str	w4, [x0]
   590f8:	90000244 	adrp	x4, a1000 <psci_locks>
   590fc:	91046084 	add	x4, x4, #0x118
   59100:	b8237886 	str	w6, [x4, x3, lsl #2]
   59104:	b94000a5 	ldr	w5, [x5]
   59108:	0a050021 	and	w1, w1, w5
   5910c:	6b01005f 	cmp	w2, w1
   59110:	540000a0 	b.eq	59124 <clst_pwr_domain_suspend+0x98>  // b.none
   59114:	52802001 	mov	w1, #0x100                 	// #256
   59118:	72a06001 	movk	w1, #0x300, lsl #16
   5911c:	b9000001 	str	w1, [x0]
   59120:	b823789f 	str	wzr, [x4, x3, lsl #2]
   59124:	f9400bf3 	ldr	x19, [sp, #16]
   59128:	a8c27bfd 	ldp	x29, x30, [sp], #32
   5912c:	d65f03c0 	ret

0000000000059130 <clst_pwr_domain_resume>:
   59130:	a9be7bfd 	stp	x29, x30, [sp, #-32]!
   59134:	910003fd 	mov	x29, sp
   59138:	f9000bf3 	str	x19, [sp, #16]
   5913c:	12001c13 	and	w19, w0, #0xff
   59140:	940013b2 	bl	5e008 <plat_my_core_pos>
   59144:	71000a7f 	cmp	w19, #0x2
   59148:	540001a1 	b.ne	5917c <clst_pwr_domain_resume+0x4c>  // b.any
   5914c:	71000c1f 	cmp	w0, #0x3
   59150:	52800400 	mov	w0, #0x20                  	// #32
   59154:	1a9f8000 	csel	w0, w0, wzr, hi  // hi = pmore
   59158:	51627c00 	sub	w0, w0, #0x89f, lsl #12
   5915c:	513fd000 	sub	w0, w0, #0xff4
   59160:	b9400000 	ldr	w0, [x0]
   59164:	53087c00 	lsr	w0, w0, #8
   59168:	7100041f 	cmp	w0, #0x1
   5916c:	5a9f03e0 	csetm	w0, ne  // ne = any
   59170:	f9400bf3 	ldr	x19, [sp, #16]
   59174:	a8c27bfd 	ldp	x29, x30, [sp], #32
   59178:	d65f03c0 	ret
   5917c:	52800000 	mov	w0, #0x0                   	// #0
   59180:	17fffffc 	b	59170 <clst_pwr_domain_resume+0x40>

0000000000059184 <pmu_bus_idle_req>:
   59184:	a9bc7bfd 	stp	x29, x30, [sp, #-64]!
   59188:	7100003f 	cmp	w1, #0x0
   5918c:	d2800022 	mov	x2, #0x1                   	// #1
   59190:	910003fd 	mov	x29, sp
   59194:	9ac02040 	lsl	x0, x2, x0
   59198:	a90153f3 	stp	x19, x20, [sp, #16]
   5919c:	1a800033 	csel	w19, w1, w0, eq  // eq = none
   591a0:	d2800c01 	mov	x1, #0x60                  	// #96
   591a4:	a9025bf5 	stp	x21, x22, [sp, #32]
   591a8:	f2bfe621 	movk	x1, #0xff31, lsl #16
   591ac:	2a0003f5 	mov	w21, w0
   591b0:	d2800c96 	mov	x22, #0x64                  	// #100
   591b4:	b9400022 	ldr	w2, [x1]
   591b8:	52807d14 	mov	w20, #0x3e8                 	// #1000
   591bc:	f9001bf7 	str	x23, [sp, #48]
   591c0:	d2800d17 	mov	x23, #0x68                  	// #104
   591c4:	0a200040 	bic	w0, w2, w0
   591c8:	f2bfe636 	movk	x22, #0xff31, lsl #16
   591cc:	2a130000 	orr	w0, w0, w19
   591d0:	f2bfe637 	movk	x23, #0xff31, lsl #16
   591d4:	b9000020 	str	w0, [x1]
   591d8:	b94002c1 	ldr	w1, [x22]
   591dc:	b94002e0 	ldr	w0, [x23]
   591e0:	0a0102a1 	and	w1, w21, w1
   591e4:	6b13003f 	cmp	w1, w19
   591e8:	0a0002a0 	and	w0, w21, w0
   591ec:	7a530000 	ccmp	w0, w19, #0x0, eq  // eq = none
   591f0:	540000a0 	b.eq	59204 <pmu_bus_idle_req+0x80>  // b.none
   591f4:	52800020 	mov	w0, #0x1                   	// #1
   591f8:	97ffe059 	bl	5135c <udelay>
   591fc:	71000694 	subs	w20, w20, #0x1
   59200:	54fffec1 	b.ne	591d8 <pmu_bus_idle_req+0x54>  // b.any
   59204:	a94153f3 	ldp	x19, x20, [sp, #16]
   59208:	a9425bf5 	ldp	x21, x22, [sp, #32]
   5920c:	f9401bf7 	ldr	x23, [sp, #48]
   59210:	a8c47bfd 	ldp	x29, x30, [sp], #64
   59214:	d65f03c0 	ret

0000000000059218 <pmu_set_power_domain>:
   59218:	a9bd7bfd 	stp	x29, x30, [sp, #-48]!
   5921c:	910003fd 	mov	x29, sp
   59220:	a90153f3 	stp	x19, x20, [sp, #16]
   59224:	2a0103f3 	mov	w19, w1
   59228:	2a0003f4 	mov	w20, w0
   5922c:	97ffff65 	bl	58fc0 <pmu_power_domain_st>
   59230:	6b13001f 	cmp	w0, w19
   59234:	540002e0 	b.eq	59290 <pmu_set_power_domain+0x78>  // b.none
   59238:	35000093 	cbnz	w19, 59248 <pmu_set_power_domain+0x30>
   5923c:	2a1403e0 	mov	w0, w20
   59240:	52800001 	mov	w1, #0x0                   	// #0
   59244:	97ffff67 	bl	58fe0 <pmu_power_domain_ctr>
   59248:	7100067f 	cmp	w19, #0x1
   5924c:	51002a82 	sub	w2, w20, #0xa
   59250:	1a9f17e1 	cset	w1, eq  // eq = none
   59254:	7100545f 	cmp	w2, #0x15
   59258:	54000128 	b.hi	5927c <pmu_set_power_domain+0x64>  // b.pmore
   5925c:	d0000020 	adrp	x0, 5f000 <fdt_ro_probe_+0x20>
   59260:	913bc000 	add	x0, x0, #0xef0
   59264:	38624800 	ldrb	w0, [x0, w2, uxtw]
   59268:	10000062 	adr	x2, 59274 <pmu_set_power_domain+0x5c>
   5926c:	8b208840 	add	x0, x2, w0, sxtb #2
   59270:	d61f0000 	br	x0
   59274:	52800000 	mov	w0, #0x0                   	// #0
   59278:	97ffffc3 	bl	59184 <pmu_bus_idle_req>
   5927c:	7100067f 	cmp	w19, #0x1
   59280:	54000081 	b.ne	59290 <pmu_set_power_domain+0x78>  // b.any
   59284:	2a1303e1 	mov	w1, w19
   59288:	2a1403e0 	mov	w0, w20
   5928c:	97ffff55 	bl	58fe0 <pmu_power_domain_ctr>
   59290:	52800000 	mov	w0, #0x0                   	// #0
   59294:	a94153f3 	ldp	x19, x20, [sp, #16]
   59298:	a8c37bfd 	ldp	x29, x30, [sp], #48
   5929c:	d65f03c0 	ret
   592a0:	52800220 	mov	w0, #0x11                  	// #17
   592a4:	17fffff5 	b	59278 <pmu_set_power_domain+0x60>
   592a8:	52800120 	mov	w0, #0x9                   	// #9
   592ac:	17fffff3 	b	59278 <pmu_set_power_domain+0x60>
   592b0:	52800140 	mov	w0, #0xa                   	// #10
   592b4:	17fffff1 	b	59278 <pmu_set_power_domain+0x60>
   592b8:	528000e0 	mov	w0, #0x7                   	// #7
   592bc:	b9002fe1 	str	w1, [sp, #44]
   592c0:	97ffffb1 	bl	59184 <pmu_bus_idle_req>
   592c4:	b9402fe1 	ldr	w1, [sp, #44]
   592c8:	52800100 	mov	w0, #0x8                   	// #8
   592cc:	17ffffeb 	b	59278 <pmu_set_power_domain+0x60>
   592d0:	52800160 	mov	w0, #0xb                   	// #11
   592d4:	17ffffe9 	b	59278 <pmu_set_power_domain+0x60>
   592d8:	528002e0 	mov	w0, #0x17                  	// #23
   592dc:	17ffffe7 	b	59278 <pmu_set_power_domain+0x60>
   592e0:	528001e0 	mov	w0, #0xf                   	// #15
   592e4:	b9002fe1 	str	w1, [sp, #44]
   592e8:	97ffffa7 	bl	59184 <pmu_bus_idle_req>
   592ec:	b9402fe1 	ldr	w1, [sp, #44]
   592f0:	52800200 	mov	w0, #0x10                  	// #16
   592f4:	17ffffe1 	b	59278 <pmu_set_power_domain+0x60>
   592f8:	52800380 	mov	w0, #0x1c                  	// #28
   592fc:	17ffffdf 	b	59278 <pmu_set_power_domain+0x60>
   59300:	52800300 	mov	w0, #0x18                  	// #24
   59304:	17ffffdd 	b	59278 <pmu_set_power_domain+0x60>
   59308:	528002c0 	mov	w0, #0x16                  	// #22
   5930c:	17ffffdb 	b	59278 <pmu_set_power_domain+0x60>
   59310:	528003a0 	mov	w0, #0x1d                  	// #29
   59314:	17ffffd9 	b	59278 <pmu_set_power_domain+0x60>
   59318:	52800360 	mov	w0, #0x1b                  	// #27
   5931c:	17ffffd7 	b	59278 <pmu_set_power_domain+0x60>
   59320:	528000a0 	mov	w0, #0x5                   	// #5
   59324:	17ffffd5 	b	59278 <pmu_set_power_domain+0x60>
   59328:	52800060 	mov	w0, #0x3                   	// #3
   5932c:	17ffffd3 	b	59278 <pmu_set_power_domain+0x60>
   59330:	52800080 	mov	w0, #0x4                   	// #4
   59334:	17ffffd1 	b	59278 <pmu_set_power_domain+0x60>
   59338:	528000c0 	mov	w0, #0x6                   	// #6
   5933c:	17ffffcf 	b	59278 <pmu_set_power_domain+0x60>
   59340:	52800180 	mov	w0, #0xc                   	// #12
   59344:	17ffffcd 	b	59278 <pmu_set_power_domain+0x60>
   59348:	52800040 	mov	w0, #0x2                   	// #2
   5934c:	17ffffcb 	b	59278 <pmu_set_power_domain+0x60>

0000000000059350 <pmu_power_domains_on>:
   59350:	a9bf7bfd 	stp	x29, x30, [sp, #-16]!
   59354:	910003fd 	mov	x29, sp
   59358:	94000d93 	bl	5c9a4 <clk_gate_con_disable>
   5935c:	52800001 	mov	w1, #0x0                   	// #0
   59360:	52800220 	mov	w0, #0x11                  	// #17
   59364:	97ffffad 	bl	59218 <pmu_set_power_domain>
   59368:	52800001 	mov	w1, #0x0                   	// #0
   5936c:	52800200 	mov	w0, #0x10                  	// #16
   59370:	97ffffaa 	bl	59218 <pmu_set_power_domain>
   59374:	52800001 	mov	w1, #0x0                   	// #0
   59378:	52800240 	mov	w0, #0x12                  	// #18
   5937c:	97ffffa7 	bl	59218 <pmu_set_power_domain>
   59380:	52800001 	mov	w1, #0x0                   	// #0
   59384:	52800260 	mov	w0, #0x13                  	// #19
   59388:	97ffffa4 	bl	59218 <pmu_set_power_domain>
   5938c:	52800001 	mov	w1, #0x0                   	// #0
   59390:	52800380 	mov	w0, #0x1c                  	// #28
   59394:	97ffffa1 	bl	59218 <pmu_set_power_domain>
   59398:	52800001 	mov	w1, #0x0                   	// #0
   5939c:	52800320 	mov	w0, #0x19                  	// #25
   593a0:	97ffff9e 	bl	59218 <pmu_set_power_domain>
   593a4:	52800001 	mov	w1, #0x0                   	// #0
   593a8:	528003e0 	mov	w0, #0x1f                  	// #31
   593ac:	97ffff9b 	bl	59218 <pmu_set_power_domain>
   593b0:	52800001 	mov	w1, #0x0                   	// #0
   593b4:	52800300 	mov	w0, #0x18                  	// #24
   593b8:	97ffff98 	bl	59218 <pmu_set_power_domain>
   593bc:	52800001 	mov	w1, #0x0                   	// #0
   593c0:	528002e0 	mov	w0, #0x17                  	// #23
   593c4:	97ffff95 	bl	59218 <pmu_set_power_domain>
   593c8:	52800001 	mov	w1, #0x0                   	// #0
   593cc:	528002c0 	mov	w0, #0x16                  	// #22
   593d0:	97ffff92 	bl	59218 <pmu_set_power_domain>
   593d4:	52800001 	mov	w1, #0x0                   	// #0
   593d8:	52800280 	mov	w0, #0x14                  	// #20
   593dc:	97ffff8f 	bl	59218 <pmu_set_power_domain>
   593e0:	52800001 	mov	w1, #0x0                   	// #0
   593e4:	52800120 	mov	w0, #0x9                   	// #9
   593e8:	97ffff8c 	bl	59218 <pmu_set_power_domain>
   593ec:	52800001 	mov	w1, #0x0                   	// #0
   593f0:	52800100 	mov	w0, #0x8                   	// #8
   593f4:	97ffff89 	bl	59218 <pmu_set_power_domain>
   593f8:	a8c17bfd 	ldp	x29, x30, [sp], #16
   593fc:	52800001 	mov	w1, #0x0                   	// #0
   59400:	528001e0 	mov	w0, #0xf                   	// #15
   59404:	17ffff85 	b	59218 <pmu_set_power_domain>

0000000000059408 <rk3399_flush_l2_b>:
   59408:	d2800480 	mov	x0, #0x24                  	// #36
   5940c:	a9be7bfd 	stp	x29, x30, [sp, #-32]!
   59410:	f2bfe620 	movk	x0, #0xff31, lsl #16
   59414:	910003fd 	mov	x29, sp
   59418:	b9400001 	ldr	w1, [x0]
   5941c:	a90153f3 	stp	x19, x20, [sp, #16]
   59420:	32020021 	orr	w1, w1, #0x40000000
   59424:	b9000001 	str	w1, [x0]
   59428:	d5033f9f 	dsb	sy
   5942c:	d2800f94 	mov	x20, #0x7c                  	// #124
   59430:	aa0003f3 	mov	x19, x0
   59434:	f2bfe634 	movk	x20, #0xff31, lsl #16
   59438:	b9400280 	ldr	w0, [x20]
   5943c:	365000e0 	tbz	w0, #10, 59458 <rk3399_flush_l2_b+0x50>
   59440:	b9400260 	ldr	w0, [x19]
   59444:	12017800 	and	w0, w0, #0xbfffffff
   59448:	b9000260 	str	w0, [x19]
   5944c:	a94153f3 	ldp	x19, x20, [sp, #16]
   59450:	a8c27bfd 	ldp	x29, x30, [sp], #32
   59454:	d65f03c0 	ret
   59458:	52800140 	mov	w0, #0xa                   	// #10
   5945c:	97ffdfc0 	bl	5135c <udelay>
   59460:	17fffff6 	b	59438 <rk3399_flush_l2_b+0x30>

0000000000059464 <rockchip_soc_cores_pwr_dm_on>:
   59464:	a9be7bfd 	stp	x29, x30, [sp, #-32]!
   59468:	910003fd 	mov	x29, sp
   5946c:	a90153f3 	stp	x19, x20, [sp, #16]
   59470:	aa0103f4 	mov	x20, x1
   59474:	97ffe8d9 	bl	537d8 <plat_core_pos_by_mpidr>
   59478:	90000241 	adrp	x1, a1000 <psci_locks>
   5947c:	2a0003e2 	mov	w2, w0
   59480:	91040021 	add	x1, x1, #0x100
   59484:	5281e003 	mov	w3, #0xf00                 	// #3840
   59488:	aa0203f3 	mov	x19, x2
   5948c:	b8227823 	str	w3, [x1, x2, lsl #2]
   59490:	90000243 	adrp	x3, a1000 <psci_locks>
   59494:	91034063 	add	x3, x3, #0xd0
   59498:	f8227874 	str	x20, [x3, x2, lsl #3]
   5949c:	d5033f9f 	dsb	sy
   594a0:	90000241 	adrp	x1, a1000 <psci_locks>
   594a4:	9102d021 	add	x1, x1, #0xb4
   594a8:	b8627821 	ldr	w1, [x1, x2, lsl #2]
   594ac:	35000241 	cbnz	w1, 594f4 <rockchip_soc_cores_pwr_dm_on+0x90>
   594b0:	531e7443 	lsl	w3, w2, #2
   594b4:	5173bc63 	sub	w3, w3, #0xcef, lsl #12
   594b8:	513d0063 	sub	w3, w3, #0xf40
   594bc:	b900007f 	str	wzr, [x3]
   594c0:	97fffec0 	bl	58fc0 <pmu_power_domain_st>
   594c4:	350000a0 	cbnz	w0, 594d8 <rockchip_soc_cores_pwr_dm_on+0x74>
   594c8:	b900007f 	str	wzr, [x3]
   594cc:	2a1303e0 	mov	w0, w19
   594d0:	52800021 	mov	w1, #0x1                   	// #1
   594d4:	97fffec3 	bl	58fe0 <pmu_power_domain_ctr>
   594d8:	2a1303e0 	mov	w0, w19
   594dc:	52800001 	mov	w1, #0x0                   	// #0
   594e0:	97fffec0 	bl	58fe0 <pmu_power_domain_ctr>
   594e4:	52800000 	mov	w0, #0x0                   	// #0
   594e8:	a94153f3 	ldp	x19, x20, [sp, #16]
   594ec:	a8c27bfd 	ldp	x29, x30, [sp], #32
   594f0:	d65f03c0 	ret
   594f4:	97fffeb3 	bl	58fc0 <pmu_power_domain_st>
   594f8:	34ffff60 	cbz	w0, 594e4 <rockchip_soc_cores_pwr_dm_on+0x80>
   594fc:	531e7673 	lsl	w19, w19, #2
   59500:	52800100 	mov	w0, #0x8                   	// #8
   59504:	5173be73 	sub	w19, w19, #0xcef, lsl #12
   59508:	513d0273 	sub	w19, w19, #0xf40
   5950c:	b9000260 	str	w0, [x19]
   59510:	d5033f9f 	dsb	sy
   59514:	17fffff4 	b	594e4 <rockchip_soc_cores_pwr_dm_on+0x80>

0000000000059518 <rockchip_soc_cores_pwr_dm_off>:
   59518:	a9bf7bfd 	stp	x29, x30, [sp, #-16]!
   5951c:	910003fd 	mov	x29, sp
   59520:	940012ba 	bl	5e008 <plat_my_core_pos>
   59524:	2a0003e3 	mov	w3, w0
   59528:	97fffea6 	bl	58fc0 <pmu_power_domain_st>
   5952c:	7100041f 	cmp	w0, #0x1
   59530:	54000140 	b.eq	59558 <rockchip_soc_cores_pwr_dm_off+0x40>  // b.none
   59534:	90000240 	adrp	x0, a1000 <psci_locks>
   59538:	9102d000 	add	x0, x0, #0xb4
   5953c:	52800021 	mov	w1, #0x1                   	// #1
   59540:	b8235801 	str	w1, [x0, w3, uxtw #2]
   59544:	531e7463 	lsl	w3, w3, #2
   59548:	5173bc63 	sub	w3, w3, #0xcef, lsl #12
   5954c:	513d0063 	sub	w3, w3, #0xf40
   59550:	b9000061 	str	w1, [x3]
   59554:	d5033f9f 	dsb	sy
   59558:	52800000 	mov	w0, #0x0                   	// #0
   5955c:	a8c17bfd 	ldp	x29, x30, [sp], #16
   59560:	d65f03c0 	ret

0000000000059564 <rockchip_soc_hlvl_pwr_dm_off>:
   59564:	7100041f 	cmp	w0, #0x1
   59568:	54000121 	b.ne	5958c <rockchip_soc_hlvl_pwr_dm_off+0x28>  // b.any
   5956c:	12001c21 	and	w1, w1, #0xff
   59570:	a9bf7bfd 	stp	x29, x30, [sp, #-16]!
   59574:	2a0103e0 	mov	w0, w1
   59578:	910003fd 	mov	x29, sp
   5957c:	97fffec4 	bl	5908c <clst_pwr_domain_suspend>
   59580:	52800000 	mov	w0, #0x0                   	// #0
   59584:	a8c17bfd 	ldp	x29, x30, [sp], #16
   59588:	d65f03c0 	ret
   5958c:	52800000 	mov	w0, #0x0                   	// #0
   59590:	d65f03c0 	ret

0000000000059594 <rockchip_soc_cores_pwr_dm_suspend>:
   59594:	a9be7bfd 	stp	x29, x30, [sp, #-32]!
   59598:	910003fd 	mov	x29, sp
   5959c:	a90153f3 	stp	x19, x20, [sp, #16]
   595a0:	9400129a 	bl	5e008 <plat_my_core_pos>
   595a4:	2a0003f4 	mov	w20, w0
   595a8:	90000240 	adrp	x0, a1000 <psci_locks>
   595ac:	91040000 	add	x0, x0, #0x100
   595b0:	52801e01 	mov	w1, #0xf0                  	// #240
   595b4:	b8347801 	str	w1, [x0, x20, lsl #2]
   595b8:	97ffe882 	bl	537c0 <plat_get_sec_entrypoint>
   595bc:	90000241 	adrp	x1, a1000 <psci_locks>
   595c0:	91034021 	add	x1, x1, #0xd0
   595c4:	f8347820 	str	x0, [x1, x20, lsl #3]
   595c8:	d5033f9f 	dsb	sy
   595cc:	2a1403e0 	mov	w0, w20
   595d0:	97fffe7c 	bl	58fc0 <pmu_power_domain_st>
   595d4:	7100041f 	cmp	w0, #0x1
   595d8:	54000160 	b.eq	59604 <rockchip_soc_cores_pwr_dm_suspend+0x70>  // b.none
   595dc:	531e7693 	lsl	w19, w20, #2
   595e0:	90000240 	adrp	x0, a1000 <psci_locks>
   595e4:	5173be73 	sub	w19, w19, #0xcef, lsl #12
   595e8:	9102d000 	add	x0, x0, #0xb4
   595ec:	513d0273 	sub	w19, w19, #0xf40
   595f0:	52800041 	mov	w1, #0x2                   	// #2
   595f4:	b8347801 	str	w1, [x0, x20, lsl #2]
   595f8:	52800060 	mov	w0, #0x3                   	// #3
   595fc:	b9000260 	str	w0, [x19]
   59600:	d5033f9f 	dsb	sy
   59604:	52800000 	mov	w0, #0x0                   	// #0
   59608:	a94153f3 	ldp	x19, x20, [sp, #16]
   5960c:	a8c27bfd 	ldp	x29, x30, [sp], #32
   59610:	d65f03c0 	ret

0000000000059614 <rockchip_soc_hlvl_pwr_dm_suspend>:
   59614:	7100041f 	cmp	w0, #0x1
   59618:	54000121 	b.ne	5963c <rockchip_soc_hlvl_pwr_dm_suspend+0x28>  // b.any
   5961c:	12001c21 	and	w1, w1, #0xff
   59620:	a9bf7bfd 	stp	x29, x30, [sp, #-16]!
   59624:	2a0103e0 	mov	w0, w1
   59628:	910003fd 	mov	x29, sp
   5962c:	97fffe98 	bl	5908c <clst_pwr_domain_suspend>
   59630:	52800000 	mov	w0, #0x0                   	// #0
   59634:	a8c17bfd 	ldp	x29, x30, [sp], #16
   59638:	d65f03c0 	ret
   5963c:	52800000 	mov	w0, #0x0                   	// #0
   59640:	d65f03c0 	ret

0000000000059644 <rockchip_soc_cores_pwr_dm_on_finish>:
   59644:	a9bf7bfd 	stp	x29, x30, [sp, #-16]!
   59648:	910003fd 	mov	x29, sp
   5964c:	9400126f 	bl	5e008 <plat_my_core_pos>
   59650:	531e7400 	lsl	w0, w0, #2
   59654:	5173bc00 	sub	w0, w0, #0xcef, lsl #12
   59658:	513d0000 	sub	w0, w0, #0xf40
   5965c:	b900001f 	str	wzr, [x0]
   59660:	52800000 	mov	w0, #0x0                   	// #0
   59664:	a8c17bfd 	ldp	x29, x30, [sp], #16
   59668:	d65f03c0 	ret

000000000005966c <rockchip_soc_hlvl_pwr_dm_on_finish>:
   5966c:	7100041f 	cmp	w0, #0x1
   59670:	54000121 	b.ne	59694 <rockchip_soc_hlvl_pwr_dm_on_finish+0x28>  // b.any
   59674:	12001c21 	and	w1, w1, #0xff
   59678:	a9bf7bfd 	stp	x29, x30, [sp, #-16]!
   5967c:	2a0103e0 	mov	w0, w1
   59680:	910003fd 	mov	x29, sp
   59684:	97fffeab 	bl	59130 <clst_pwr_domain_resume>
   59688:	52800000 	mov	w0, #0x0                   	// #0
   5968c:	a8c17bfd 	ldp	x29, x30, [sp], #16
   59690:	d65f03c0 	ret
   59694:	52800000 	mov	w0, #0x0                   	// #0
   59698:	d65f03c0 	ret

000000000005969c <rockchip_soc_cores_pwr_dm_resume>:
   5969c:	17ffffea 	b	59644 <rockchip_soc_cores_pwr_dm_on_finish>

00000000000596a0 <rockchip_soc_hlvl_pwr_dm_resume>:
   596a0:	7100041f 	cmp	w0, #0x1
   596a4:	54000121 	b.ne	596c8 <rockchip_soc_hlvl_pwr_dm_resume+0x28>  // b.any
   596a8:	12001c21 	and	w1, w1, #0xff
   596ac:	a9bf7bfd 	stp	x29, x30, [sp, #-16]!
   596b0:	2a0103e0 	mov	w0, w1
   596b4:	910003fd 	mov	x29, sp
   596b8:	97fffe9e 	bl	59130 <clst_pwr_domain_resume>
   596bc:	52800000 	mov	w0, #0x0                   	// #0
   596c0:	a8c17bfd 	ldp	x29, x30, [sp], #16
   596c4:	d65f03c0 	ret
   596c8:	52800000 	mov	w0, #0x0                   	// #0
   596cc:	d65f03c0 	ret

00000000000596d0 <sram_save>:
   596d0:	a9bd7bfd 	stp	x29, x30, [sp, #-48]!
   596d4:	907fc341 	adrp	x1, ff8c1000 <sram_func_set_ddrctl_pll>
   596d8:	91000021 	add	x1, x1, #0x0
   596dc:	910003fd 	mov	x29, sp
   596e0:	a90153f3 	stp	x19, x20, [sp, #16]
   596e4:	907fc353 	adrp	x19, ff8c1000 <sram_func_set_ddrctl_pll>
   596e8:	91024273 	add	x19, x19, #0x90
   596ec:	cb010273 	sub	x19, x19, x1
   596f0:	b07fc340 	adrp	x0, ff8c2000 <__bl31_sram_data_end>
   596f4:	91000000 	add	x0, x0, #0x0
   596f8:	a9025bf5 	stp	x21, x22, [sp, #32]
   596fc:	b07fc356 	adrp	x22, ff8c2000 <__bl31_sram_data_end>
   59700:	90000195 	adrp	x21, 89000 <fdt_buffer+0x1f414>
   59704:	910002d6 	add	x22, x22, #0x0
   59708:	912fb6b5 	add	x21, x21, #0xbed
   5970c:	cb160014 	sub	x20, x0, x22
   59710:	aa1303e2 	mov	x2, x19
   59714:	aa1503e0 	mov	x0, x21
   59718:	94001742 	bl	5f420 <memcpy>
   5971c:	aa1403e2 	mov	x2, x20
   59720:	aa1603e1 	mov	x1, x22
   59724:	8b1302a0 	add	x0, x21, x19
   59728:	9400173e 	bl	5f420 <memcpy>
   5972c:	8b140260 	add	x0, x19, x20
   59730:	f07fc321 	adrp	x1, ff8c0000 <rk3399m0_bin>
   59734:	8b0002a0 	add	x0, x21, x0
   59738:	91000021 	add	x1, x1, #0x0
   5973c:	a94153f3 	ldp	x19, x20, [sp, #16]
   59740:	f07fc322 	adrp	x2, ff8c0000 <rk3399m0_bin>
   59744:	a9425bf5 	ldp	x21, x22, [sp, #32]
   59748:	910c4042 	add	x2, x2, #0x310
   5974c:	a8c37bfd 	ldp	x29, x30, [sp], #48
   59750:	cb010042 	sub	x2, x2, x1
   59754:	14001733 	b	5f420 <memcpy>

0000000000059758 <sram_restore>:
   59758:	a9bd7bfd 	stp	x29, x30, [sp, #-48]!
   5975c:	907fc340 	adrp	x0, ff8c1000 <sram_func_set_ddrctl_pll>
   59760:	91000000 	add	x0, x0, #0x0
   59764:	910003fd 	mov	x29, sp
   59768:	a90153f3 	stp	x19, x20, [sp, #16]
   5976c:	907fc353 	adrp	x19, ff8c1000 <sram_func_set_ddrctl_pll>
   59770:	91024273 	add	x19, x19, #0x90
   59774:	cb000273 	sub	x19, x19, x0
   59778:	b07fc341 	adrp	x1, ff8c2000 <__bl31_sram_data_end>
   5977c:	91000021 	add	x1, x1, #0x0
   59780:	a9025bf5 	stp	x21, x22, [sp, #32]
   59784:	b07fc356 	adrp	x22, ff8c2000 <__bl31_sram_data_end>
   59788:	90000195 	adrp	x21, 89000 <fdt_buffer+0x1f414>
   5978c:	910002d6 	add	x22, x22, #0x0
   59790:	912fb6b5 	add	x21, x21, #0xbed
   59794:	cb160034 	sub	x20, x1, x22
   59798:	aa1303e2 	mov	x2, x19
   5979c:	aa1503e1 	mov	x1, x21
   597a0:	94001720 	bl	5f420 <memcpy>
   597a4:	8b1302a1 	add	x1, x21, x19
   597a8:	aa1403e2 	mov	x2, x20
   597ac:	aa1603e0 	mov	x0, x22
   597b0:	9400171c 	bl	5f420 <memcpy>
   597b4:	8b140261 	add	x1, x19, x20
   597b8:	f07fc320 	adrp	x0, ff8c0000 <rk3399m0_bin>
   597bc:	8b0102a1 	add	x1, x21, x1
   597c0:	91000000 	add	x0, x0, #0x0
   597c4:	a94153f3 	ldp	x19, x20, [sp, #16]
   597c8:	f07fc322 	adrp	x2, ff8c0000 <rk3399m0_bin>
   597cc:	a9425bf5 	ldp	x21, x22, [sp, #32]
   597d0:	910c4042 	add	x2, x2, #0x310
   597d4:	a8c37bfd 	ldp	x29, x30, [sp], #48
   597d8:	cb000042 	sub	x2, x2, x0
   597dc:	14001711 	b	5f420 <memcpy>

00000000000597e0 <suspend_uart>:
   597e0:	a9bf7bfd 	stp	x29, x30, [sp, #-16]!
   597e4:	910003fd 	mov	x29, sp
   597e8:	97ffe6e1 	bl	5336c <rockchip_get_uart_base>
   597ec:	34000280 	cbz	w0, 5983c <suspend_uart+0x5c>
   597f0:	11003002 	add	w2, w0, #0xc
   597f4:	11001004 	add	w4, w0, #0x4
   597f8:	90000085 	adrp	x5, 69000 <pmu_slpdata+0x40>
   597fc:	912790a1 	add	x1, x5, #0x9e4
   59800:	b9400043 	ldr	w3, [x2]
   59804:	b9400086 	ldr	w6, [x4]
   59808:	b9000826 	str	w6, [x1, #8]
   5980c:	11004006 	add	w6, w0, #0x10
   59810:	2a0003e0 	mov	w0, w0
   59814:	b9001423 	str	w3, [x1, #20]
   59818:	b94000c6 	ldr	w6, [x6]
   5981c:	b9001026 	str	w6, [x1, #16]
   59820:	32190066 	orr	w6, w3, #0x80
   59824:	b9000046 	str	w6, [x2]
   59828:	b9400000 	ldr	w0, [x0]
   5982c:	b909e4a0 	str	w0, [x5, #2532]
   59830:	b9400080 	ldr	w0, [x4]
   59834:	b9000043 	str	w3, [x2]
   59838:	b9000420 	str	w0, [x1, #4]
   5983c:	a8c17bfd 	ldp	x29, x30, [sp], #16
   59840:	d65f03c0 	ret

0000000000059844 <resume_uart>:
   59844:	a9bf7bfd 	stp	x29, x30, [sp, #-16]!
   59848:	910003fd 	mov	x29, sp
   5984c:	97ffe6c8 	bl	5336c <rockchip_get_uart_base>
   59850:	34000380 	cbz	w0, 598c0 <resume_uart+0x7c>
   59854:	11022001 	add	w1, w0, #0x88
   59858:	528000e2 	mov	w2, #0x7                   	// #7
   5985c:	11004003 	add	w3, w0, #0x10
   59860:	52800204 	mov	w4, #0x10                  	// #16
   59864:	b9000022 	str	w2, [x1]
   59868:	11003002 	add	w2, w0, #0xc
   5986c:	b9400041 	ldr	w1, [x2]
   59870:	b9000064 	str	w4, [x3]
   59874:	90000084 	adrp	x4, 69000 <pmu_slpdata+0x40>
   59878:	32190021 	orr	w1, w1, #0x80
   5987c:	b9000041 	str	w1, [x2]
   59880:	b949e485 	ldr	w5, [x4, #2532]
   59884:	91279081 	add	x1, x4, #0x9e4
   59888:	2a0003e4 	mov	w4, w0
   5988c:	b9000085 	str	w5, [x4]
   59890:	11001004 	add	w4, w0, #0x4
   59894:	b9400425 	ldr	w5, [x1, #4]
   59898:	11002000 	add	w0, w0, #0x8
   5989c:	b9000085 	str	w5, [x4]
   598a0:	b9401425 	ldr	w5, [x1, #20]
   598a4:	b9000045 	str	w5, [x2]
   598a8:	b9400822 	ldr	w2, [x1, #8]
   598ac:	b9000082 	str	w2, [x4]
   598b0:	52800022 	mov	w2, #0x1                   	// #1
   598b4:	b9000002 	str	w2, [x0]
   598b8:	b9401020 	ldr	w0, [x1, #16]
   598bc:	b9000060 	str	w0, [x3]
   598c0:	a8c17bfd 	ldp	x29, x30, [sp], #16
   598c4:	d65f03c0 	ret

00000000000598c8 <save_usbphy>:
   598c8:	d2889000 	mov	x0, #0x4480                	// #17536
   598cc:	90000081 	adrp	x1, 69000 <pmu_slpdata+0x40>
   598d0:	f2bfeee0 	movk	x0, #0xff77, lsl #16
   598d4:	b9400002 	ldr	w2, [x0]
   598d8:	91267020 	add	x0, x1, #0x99c
   598dc:	b9099c22 	str	w2, [x1, #2460]
   598e0:	d2889101 	mov	x1, #0x4488                	// #17544
   598e4:	f2bfeee1 	movk	x1, #0xff77, lsl #16
   598e8:	b9400021 	ldr	w1, [x1]
   598ec:	b9000401 	str	w1, [x0, #4]
   598f0:	d2889181 	mov	x1, #0x448c                	// #17548
   598f4:	f2bfeee1 	movk	x1, #0xff77, lsl #16
   598f8:	b9400021 	ldr	w1, [x1]
   598fc:	b9000801 	str	w1, [x0, #8]
   59900:	d2889601 	mov	x1, #0x44b0                	// #17584
   59904:	f2bfeee1 	movk	x1, #0xff77, lsl #16
   59908:	b9400021 	ldr	w1, [x1]
   5990c:	b9000c01 	str	w1, [x0, #12]
   59910:	d2889681 	mov	x1, #0x44b4                	// #17588
   59914:	f2bfeee1 	movk	x1, #0xff77, lsl #16
   59918:	b9400021 	ldr	w1, [x1]
   5991c:	b9001001 	str	w1, [x0, #16]
   59920:	d2889781 	mov	x1, #0x44bc                	// #17596
   59924:	f2bfeee1 	movk	x1, #0xff77, lsl #16
   59928:	b9400021 	ldr	w1, [x1]
   5992c:	b9001401 	str	w1, [x0, #20]
   59930:	d2889801 	mov	x1, #0x44c0                	// #17600
   59934:	f2bfeee1 	movk	x1, #0xff77, lsl #16
   59938:	b9400021 	ldr	w1, [x1]
   5993c:	b9001801 	str	w1, [x0, #24]
   59940:	d288a000 	mov	x0, #0x4500                	// #17664
   59944:	f2bfeee0 	movk	x0, #0xff77, lsl #16
   59948:	90000081 	adrp	x1, 69000 <pmu_slpdata+0x40>
   5994c:	b9400002 	ldr	w2, [x0]
   59950:	9126e020 	add	x0, x1, #0x9b8
   59954:	b909b822 	str	w2, [x1, #2488]
   59958:	d288a101 	mov	x1, #0x4508                	// #17672
   5995c:	f2bfeee1 	movk	x1, #0xff77, lsl #16
   59960:	b9400021 	ldr	w1, [x1]
   59964:	b9000401 	str	w1, [x0, #4]
   59968:	d288a181 	mov	x1, #0x450c                	// #17676
   5996c:	f2bfeee1 	movk	x1, #0xff77, lsl #16
   59970:	b9400021 	ldr	w1, [x1]
   59974:	b9000801 	str	w1, [x0, #8]
   59978:	d288a601 	mov	x1, #0x4530                	// #17712
   5997c:	f2bfeee1 	movk	x1, #0xff77, lsl #16
   59980:	b9400021 	ldr	w1, [x1]
   59984:	b9000c01 	str	w1, [x0, #12]
   59988:	d288a681 	mov	x1, #0x4534                	// #17716
   5998c:	f2bfeee1 	movk	x1, #0xff77, lsl #16
   59990:	b9400021 	ldr	w1, [x1]
   59994:	b9001001 	str	w1, [x0, #16]
   59998:	d288a781 	mov	x1, #0x453c                	// #17724
   5999c:	f2bfeee1 	movk	x1, #0xff77, lsl #16
   599a0:	b9400021 	ldr	w1, [x1]
   599a4:	b9001401 	str	w1, [x0, #20]
   599a8:	d288a801 	mov	x1, #0x4540                	// #17728
   599ac:	f2bfeee1 	movk	x1, #0xff77, lsl #16
   599b0:	b9400021 	ldr	w1, [x1]
   599b4:	b9001801 	str	w1, [x0, #24]
   599b8:	d65f03c0 	ret

00000000000599bc <restore_usbphy>:
   599bc:	90000081 	adrp	x1, 69000 <pmu_slpdata+0x40>
   599c0:	d2889002 	mov	x2, #0x4480                	// #17536
   599c4:	f2bfeee2 	movk	x2, #0xff77, lsl #16
   599c8:	91267020 	add	x0, x1, #0x99c
   599cc:	b9499c21 	ldr	w1, [x1, #2460]
   599d0:	32103c21 	orr	w1, w1, #0xffff0000
   599d4:	b9000041 	str	w1, [x2]
   599d8:	b9400401 	ldr	w1, [x0, #4]
   599dc:	32103c21 	orr	w1, w1, #0xffff0000
   599e0:	b9000841 	str	w1, [x2, #8]
   599e4:	b9400801 	ldr	w1, [x0, #8]
   599e8:	32103c21 	orr	w1, w1, #0xffff0000
   599ec:	b9000c41 	str	w1, [x2, #12]
   599f0:	b9400c01 	ldr	w1, [x0, #12]
   599f4:	32103c21 	orr	w1, w1, #0xffff0000
   599f8:	b9003041 	str	w1, [x2, #48]
   599fc:	b9401001 	ldr	w1, [x0, #16]
   59a00:	32103c21 	orr	w1, w1, #0xffff0000
   59a04:	b9003441 	str	w1, [x2, #52]
   59a08:	b9401401 	ldr	w1, [x0, #20]
   59a0c:	32103c21 	orr	w1, w1, #0xffff0000
   59a10:	b9003c41 	str	w1, [x2, #60]
   59a14:	d2889801 	mov	x1, #0x44c0                	// #17600
   59a18:	b9401800 	ldr	w0, [x0, #24]
   59a1c:	f2bfeee1 	movk	x1, #0xff77, lsl #16
   59a20:	32103c00 	orr	w0, w0, #0xffff0000
   59a24:	b9000020 	str	w0, [x1]
   59a28:	90000081 	adrp	x1, 69000 <pmu_slpdata+0x40>
   59a2c:	9126e020 	add	x0, x1, #0x9b8
   59a30:	b949b821 	ldr	w1, [x1, #2488]
   59a34:	32103c21 	orr	w1, w1, #0xffff0000
   59a38:	b9008041 	str	w1, [x2, #128]
   59a3c:	b9400401 	ldr	w1, [x0, #4]
   59a40:	32103c21 	orr	w1, w1, #0xffff0000
   59a44:	b9008841 	str	w1, [x2, #136]
   59a48:	b9400801 	ldr	w1, [x0, #8]
   59a4c:	32103c21 	orr	w1, w1, #0xffff0000
   59a50:	b9008c41 	str	w1, [x2, #140]
   59a54:	b9400c01 	ldr	w1, [x0, #12]
   59a58:	32103c21 	orr	w1, w1, #0xffff0000
   59a5c:	b900b041 	str	w1, [x2, #176]
   59a60:	b9401001 	ldr	w1, [x0, #16]
   59a64:	32103c21 	orr	w1, w1, #0xffff0000
   59a68:	b900b441 	str	w1, [x2, #180]
   59a6c:	b9401401 	ldr	w1, [x0, #20]
   59a70:	32103c21 	orr	w1, w1, #0xffff0000
   59a74:	b900bc41 	str	w1, [x2, #188]
   59a78:	d288a801 	mov	x1, #0x4540                	// #17728
   59a7c:	b9401800 	ldr	w0, [x0, #24]
   59a80:	f2bfeee1 	movk	x1, #0xff77, lsl #16
   59a84:	32103c00 	orr	w0, w0, #0xffff0000
   59a88:	b9000020 	str	w0, [x1]
   59a8c:	d65f03c0 	ret

0000000000059a90 <grf_register_save>:
   59a90:	d29c4000 	mov	x0, #0xe200                	// #57856
   59a94:	f2bfeee0 	movk	x0, #0xff77, lsl #16
   59a98:	b9400001 	ldr	w1, [x0]
   59a9c:	90000080 	adrp	x0, 69000 <pmu_slpdata+0x40>
   59aa0:	b9098401 	str	w1, [x0, #2436]
   59aa4:	d29c4080 	mov	x0, #0xe204                	// #57860
   59aa8:	f2bfeee0 	movk	x0, #0xff77, lsl #16
   59aac:	b9400001 	ldr	w1, [x0]
   59ab0:	90000080 	adrp	x0, 69000 <pmu_slpdata+0x40>
   59ab4:	b9098801 	str	w1, [x0, #2440]
   59ab8:	d29c4100 	mov	x0, #0xe208                	// #57864
   59abc:	f2bfeee0 	movk	x0, #0xff77, lsl #16
   59ac0:	b9400001 	ldr	w1, [x0]
   59ac4:	90000080 	adrp	x0, 69000 <pmu_slpdata+0x40>
   59ac8:	b9098c01 	str	w1, [x0, #2444]
   59acc:	d29c4180 	mov	x0, #0xe20c                	// #57868
   59ad0:	f2bfeee0 	movk	x0, #0xff77, lsl #16
   59ad4:	b9400001 	ldr	w1, [x0]
   59ad8:	90000080 	adrp	x0, 69000 <pmu_slpdata+0x40>
   59adc:	b9099001 	str	w1, [x0, #2448]
   59ae0:	d29c4200 	mov	x0, #0xe210                	// #57872
   59ae4:	f2bfeee0 	movk	x0, #0xff77, lsl #16
   59ae8:	b9400001 	ldr	w1, [x0]
   59aec:	90000080 	adrp	x0, 69000 <pmu_slpdata+0x40>
   59af0:	b9099401 	str	w1, [x0, #2452]
   59af4:	d29c4380 	mov	x0, #0xe21c                	// #57884
   59af8:	f2bfeee0 	movk	x0, #0xff77, lsl #16
   59afc:	b9400001 	ldr	w1, [x0]
   59b00:	90000080 	adrp	x0, 69000 <pmu_slpdata+0x40>
   59b04:	b9099801 	str	w1, [x0, #2456]
   59b08:	d29c7000 	mov	x0, #0xe380                	// #58240
   59b0c:	f2bfeee0 	movk	x0, #0xff77, lsl #16
   59b10:	90000081 	adrp	x1, 69000 <pmu_slpdata+0x40>
   59b14:	b9400002 	ldr	w2, [x0]
   59b18:	9125c020 	add	x0, x1, #0x970
   59b1c:	b9097022 	str	w2, [x1, #2416]
   59b20:	d29c7081 	mov	x1, #0xe384                	// #58244
   59b24:	f2bfeee1 	movk	x1, #0xff77, lsl #16
   59b28:	b9400021 	ldr	w1, [x1]
   59b2c:	b9000401 	str	w1, [x0, #4]
   59b30:	d29c7101 	mov	x1, #0xe388                	// #58248
   59b34:	f2bfeee1 	movk	x1, #0xff77, lsl #16
   59b38:	b9400021 	ldr	w1, [x1]
   59b3c:	b9000801 	str	w1, [x0, #8]
   59b40:	d29c7181 	mov	x1, #0xe38c                	// #58252
   59b44:	f2bfeee1 	movk	x1, #0xff77, lsl #16
   59b48:	b9400021 	ldr	w1, [x1]
   59b4c:	b9000c01 	str	w1, [x0, #12]
   59b50:	d29cc800 	mov	x0, #0xe640                	// #58944
   59b54:	f2bfeee0 	movk	x0, #0xff77, lsl #16
   59b58:	b9400001 	ldr	w1, [x0]
   59b5c:	90000080 	adrp	x0, 69000 <pmu_slpdata+0x40>
   59b60:	b9098001 	str	w1, [x0, #2432]
   59b64:	d65f03c0 	ret

0000000000059b68 <grf_register_restore>:
   59b68:	90000080 	adrp	x0, 69000 <pmu_slpdata+0x40>
   59b6c:	d29c4001 	mov	x1, #0xe200                	// #57856
   59b70:	f2bfeee1 	movk	x1, #0xff77, lsl #16
   59b74:	d29c7002 	mov	x2, #0xe380                	// #58240
   59b78:	b9498400 	ldr	w0, [x0, #2436]
   59b7c:	f2bfeee2 	movk	x2, #0xff77, lsl #16
   59b80:	32103c00 	orr	w0, w0, #0xffff0000
   59b84:	b9000020 	str	w0, [x1]
   59b88:	90000080 	adrp	x0, 69000 <pmu_slpdata+0x40>
   59b8c:	b9498800 	ldr	w0, [x0, #2440]
   59b90:	32103c00 	orr	w0, w0, #0xffff0000
   59b94:	b9000420 	str	w0, [x1, #4]
   59b98:	90000080 	adrp	x0, 69000 <pmu_slpdata+0x40>
   59b9c:	b9498c00 	ldr	w0, [x0, #2444]
   59ba0:	32103c00 	orr	w0, w0, #0xffff0000
   59ba4:	b9000820 	str	w0, [x1, #8]
   59ba8:	90000080 	adrp	x0, 69000 <pmu_slpdata+0x40>
   59bac:	b9499000 	ldr	w0, [x0, #2448]
   59bb0:	32103c00 	orr	w0, w0, #0xffff0000
   59bb4:	b9000c20 	str	w0, [x1, #12]
   59bb8:	90000080 	adrp	x0, 69000 <pmu_slpdata+0x40>
   59bbc:	b9499400 	ldr	w0, [x0, #2452]
   59bc0:	32103c00 	orr	w0, w0, #0xffff0000
   59bc4:	b9001020 	str	w0, [x1, #16]
   59bc8:	90000080 	adrp	x0, 69000 <pmu_slpdata+0x40>
   59bcc:	b9499800 	ldr	w0, [x0, #2456]
   59bd0:	32103c00 	orr	w0, w0, #0xffff0000
   59bd4:	b9001c20 	str	w0, [x1, #28]
   59bd8:	90000081 	adrp	x1, 69000 <pmu_slpdata+0x40>
   59bdc:	9125c020 	add	x0, x1, #0x970
   59be0:	b9497021 	ldr	w1, [x1, #2416]
   59be4:	32103c21 	orr	w1, w1, #0xffff0000
   59be8:	b9000041 	str	w1, [x2]
   59bec:	b9400401 	ldr	w1, [x0, #4]
   59bf0:	32103c21 	orr	w1, w1, #0xffff0000
   59bf4:	b9000441 	str	w1, [x2, #4]
   59bf8:	b9400801 	ldr	w1, [x0, #8]
   59bfc:	32103c21 	orr	w1, w1, #0xffff0000
   59c00:	b9000841 	str	w1, [x2, #8]
   59c04:	d29c7181 	mov	x1, #0xe38c                	// #58252
   59c08:	b9400c00 	ldr	w0, [x0, #12]
   59c0c:	f2bfeee1 	movk	x1, #0xff77, lsl #16
   59c10:	32103c00 	orr	w0, w0, #0xffff0000
   59c14:	b9000020 	str	w0, [x1]
   59c18:	90000080 	adrp	x0, 69000 <pmu_slpdata+0x40>
   59c1c:	b9498000 	ldr	w0, [x0, #2432]
   59c20:	32103c00 	orr	w0, w0, #0xffff0000
   59c24:	b902b420 	str	w0, [x1, #692]
   59c28:	d65f03c0 	ret

0000000000059c2c <cru_register_save>:
   59c2c:	90000081 	adrp	x1, 69000 <pmu_slpdata+0x40>
   59c30:	d280b203 	mov	x3, #0x590                 	// #1424
   59c34:	910f8021 	add	x1, x1, #0x3e0
   59c38:	d2bfeec0 	mov	x0, #0xff760000            	// #4285923328
   59c3c:	f2bfeec3 	movk	x3, #0xff76, lsl #16
   59c40:	11628002 	add	w2, w0, #0x8a0, lsl #12
   59c44:	b9400004 	ldr	w4, [x0]
   59c48:	91001000 	add	x0, x0, #0x4
   59c4c:	13027c42 	asr	w2, w2, #2
   59c50:	eb03001f 	cmp	x0, x3
   59c54:	b822d824 	str	w4, [x1, w2, sxtw #2]
   59c58:	54ffff41 	b.ne	59c40 <cru_register_save+0x14>  // b.any
   59c5c:	d65f03c0 	ret

0000000000059c60 <cru_register_restore>:
   59c60:	90000083 	adrp	x3, 69000 <pmu_slpdata+0x40>
   59c64:	910f8063 	add	x3, x3, #0x3e0
   59c68:	d2800000 	mov	x0, #0x0                   	// #0
   59c6c:	52802306 	mov	w6, #0x118                 	// #280
   59c70:	d2bfeec7 	mov	x7, #0xff760000            	// #4285923328
   59c74:	5280a108 	mov	w8, #0x508                 	// #1288
   59c78:	51008001 	sub	w1, w0, #0x20
   59c7c:	7100d03f 	cmp	w1, #0x34
   59c80:	7a468004 	ccmp	w0, w6, #0x4, hi  // hi = pmore
   59c84:	540001a0 	b.eq	59cb8 <cru_register_restore+0x58>  // b.none
   59c88:	13027c01 	asr	w1, w0, #2
   59c8c:	12187805 	and	w5, w0, #0xffffff7f
   59c90:	7101a01f 	cmp	w0, #0x68
   59c94:	8b070004 	add	x4, x0, x7
   59c98:	7a4818a4 	ccmp	w5, #0x8, #0x4, ne  // ne = any
   59c9c:	b861d861 	ldr	w1, [x3, w1, sxtw #2]
   59ca0:	540000a0 	b.eq	59cb4 <cru_register_restore+0x54>  // b.none
   59ca4:	7102a01f 	cmp	w0, #0xa8
   59ca8:	54000060 	b.eq	59cb4 <cru_register_restore+0x54>  // b.none
   59cac:	7103201f 	cmp	w0, #0xc8
   59cb0:	540000c1 	b.ne	59cc8 <cru_register_restore+0x68>  // b.any
   59cb4:	b9000081 	str	w1, [x4]
   59cb8:	91001000 	add	x0, x0, #0x4
   59cbc:	f116401f 	cmp	x0, #0x590
   59cc0:	54fffdc1 	b.ne	59c78 <cru_register_restore+0x18>  // b.any
   59cc4:	d65f03c0 	ret
   59cc8:	5109f405 	sub	w5, w0, #0x27d
   59ccc:	7100c8bf 	cmp	w5, #0x32
   59cd0:	7a488004 	ccmp	w0, w8, #0x4, hi  // hi = pmore
   59cd4:	54ffff00 	b.eq	59cb4 <cru_register_restore+0x54>  // b.none
   59cd8:	32103c21 	orr	w1, w1, #0xffff0000
   59cdc:	17fffff6 	b	59cb4 <cru_register_restore+0x54>

0000000000059ce0 <wdt_register_save>:
   59ce0:	d2900000 	mov	x0, #0x8000                	// #32768
   59ce4:	f2bff080 	movk	x0, #0xff84, lsl #16
   59ce8:	b9400001 	ldr	w1, [x0]
   59cec:	90000080 	adrp	x0, 69000 <pmu_slpdata+0x40>
   59cf0:	91275002 	add	x2, x0, #0x9d4
   59cf4:	b909d401 	str	w1, [x0, #2516]
   59cf8:	d2bff080 	mov	x0, #0xff840000            	// #4286840832
   59cfc:	b9400003 	ldr	w3, [x0]
   59d00:	90000080 	adrp	x0, 69000 <pmu_slpdata+0x40>
   59d04:	91277001 	add	x1, x0, #0x9dc
   59d08:	b909dc03 	str	w3, [x0, #2524]
   59d0c:	d2900080 	mov	x0, #0x8004                	// #32772
   59d10:	f2bff080 	movk	x0, #0xff84, lsl #16
   59d14:	b9400000 	ldr	w0, [x0]
   59d18:	b9000440 	str	w0, [x2, #4]
   59d1c:	d2800080 	mov	x0, #0x4                   	// #4
   59d20:	f2bff080 	movk	x0, #0xff84, lsl #16
   59d24:	b9400000 	ldr	w0, [x0]
   59d28:	b9000420 	str	w0, [x1, #4]
   59d2c:	d65f03c0 	ret

0000000000059d30 <wdt_register_restore>:
   59d30:	90000081 	adrp	x1, 69000 <pmu_slpdata+0x40>
   59d34:	91275020 	add	x0, x1, #0x9d4
   59d38:	b9400402 	ldr	w2, [x0, #4]
   59d3c:	d2900080 	mov	x0, #0x8004                	// #32772
   59d40:	f2bff080 	movk	x0, #0xff84, lsl #16
   59d44:	b9000002 	str	w2, [x0]
   59d48:	90000080 	adrp	x0, 69000 <pmu_slpdata+0x40>
   59d4c:	91277002 	add	x2, x0, #0x9dc
   59d50:	b9400443 	ldr	w3, [x2, #4]
   59d54:	d2800082 	mov	x2, #0x4                   	// #4
   59d58:	f2bff082 	movk	x2, #0xff84, lsl #16
   59d5c:	b9000043 	str	w3, [x2]
   59d60:	b949d422 	ldr	w2, [x1, #2516]
   59d64:	d2900001 	mov	x1, #0x8000                	// #32768
   59d68:	f2bff081 	movk	x1, #0xff84, lsl #16
   59d6c:	b9000022 	str	w2, [x1]
   59d70:	b949dc01 	ldr	w1, [x0, #2524]
   59d74:	d2bff080 	mov	x0, #0xff840000            	// #4286840832
   59d78:	b9000001 	str	w1, [x0]
   59d7c:	d2900181 	mov	x1, #0x800c                	// #32780
   59d80:	f2bff081 	movk	x1, #0xff84, lsl #16
   59d84:	52800ec0 	mov	w0, #0x76                  	// #118
   59d88:	b9000020 	str	w0, [x1]
   59d8c:	d2800181 	mov	x1, #0xc                   	// #12
   59d90:	f2bff081 	movk	x1, #0xff84, lsl #16
   59d94:	b9000020 	str	w0, [x1]
   59d98:	d65f03c0 	ret

0000000000059d9c <rockchip_soc_sys_pwr_dm_suspend>:
   59d9c:	a9bc7bfd 	stp	x29, x30, [sp, #-64]!
   59da0:	910003fd 	mov	x29, sp
   59da4:	a90153f3 	stp	x19, x20, [sp, #16]
   59da8:	a9025bf5 	stp	x21, x22, [sp, #32]
   59dac:	97fff403 	bl	56db8 <ddr_prepare_for_sys_suspend>
   59db0:	97fffa25 	bl	58644 <dmc_suspend>
   59db4:	d2800300 	mov	x0, #0x18                  	// #24
   59db8:	f2bfe620 	movk	x0, #0xff31, lsl #16
   59dbc:	b9400000 	ldr	w0, [x0]
   59dc0:	121c0400 	and	w0, w0, #0x30
   59dc4:	7100c01f 	cmp	w0, #0x30
   59dc8:	5400a920 	b.eq	5b2ec <rockchip_soc_sys_pwr_dm_suspend+0x1550>  // b.none
   59dcc:	f0000021 	adrp	x1, 60000 <version_string+0x6c>
   59dd0:	f0000020 	adrp	x0, 60000 <version_string+0x6c>
   59dd4:	91097021 	add	x1, x1, #0x25c
   59dd8:	91089c00 	add	x0, x0, #0x227
   59ddc:	94000c2d 	bl	5ce90 <tf_log>
   59de0:	9400108a 	bl	5e008 <plat_my_core_pos>
   59de4:	f0000061 	adrp	x1, 68000 <dist_ctx+0x1e98>
   59de8:	91222021 	add	x1, x1, #0x888
   59dec:	97ffdbca 	bl	50d14 <gicv3_rdistif_save>
   59df0:	b0000060 	adrp	x0, 66000 <psci_cpu_pd_nodes+0x20>
   59df4:	9105a000 	add	x0, x0, #0x168
   59df8:	97ffdc4f 	bl	50f34 <gicv3_distif_save>
   59dfc:	97fffeb3 	bl	598c8 <save_usbphy>
   59e00:	94000ace 	bl	5c938 <clk_gate_con_save>
   59e04:	94000ae8 	bl	5c9a4 <clk_gate_con_disable>
   59e08:	528001e0 	mov	w0, #0xf                   	// #15
   59e0c:	97fffc6d 	bl	58fc0 <pmu_power_domain_st>
   59e10:	350003c0 	cbnz	w0, 59e88 <rockchip_soc_sys_pwr_dm_suspend+0xec>
   59e14:	d2bff5c0 	mov	x0, #0xffae0000            	// #4289593344
   59e18:	b9400001 	ldr	w1, [x0]
   59e1c:	f0000060 	adrp	x0, 68000 <dist_ctx+0x1e98>
   59e20:	913f0000 	add	x0, x0, #0xfc0
   59e24:	b901dc01 	str	w1, [x0, #476]
   59e28:	d2800081 	mov	x1, #0x4                   	// #4
   59e2c:	f2bff5c1 	movk	x1, #0xffae, lsl #16
   59e30:	b9400021 	ldr	w1, [x1]
   59e34:	b901e001 	str	w1, [x0, #480]
   59e38:	d2800101 	mov	x1, #0x8                   	// #8
   59e3c:	f2bff5c1 	movk	x1, #0xffae, lsl #16
   59e40:	b9400021 	ldr	w1, [x1]
   59e44:	b901e401 	str	w1, [x0, #484]
   59e48:	d2800181 	mov	x1, #0xc                   	// #12
   59e4c:	f2bff5c1 	movk	x1, #0xffae, lsl #16
   59e50:	b9400021 	ldr	w1, [x1]
   59e54:	b901e801 	str	w1, [x0, #488]
   59e58:	d2800201 	mov	x1, #0x10                  	// #16
   59e5c:	f2bff5c1 	movk	x1, #0xffae, lsl #16
   59e60:	b9400021 	ldr	w1, [x1]
   59e64:	b901ec01 	str	w1, [x0, #492]
   59e68:	d2800281 	mov	x1, #0x14                  	// #20
   59e6c:	f2bff5c1 	movk	x1, #0xffae, lsl #16
   59e70:	b9400021 	ldr	w1, [x1]
   59e74:	b901f001 	str	w1, [x0, #496]
   59e78:	d2800301 	mov	x1, #0x18                  	// #24
   59e7c:	f2bff5c1 	movk	x1, #0xffae, lsl #16
   59e80:	b9400021 	ldr	w1, [x1]
   59e84:	b901f401 	str	w1, [x0, #500]
   59e88:	528002c0 	mov	w0, #0x16                  	// #22
   59e8c:	97fffc4d 	bl	58fc0 <pmu_power_domain_st>
   59e90:	35000740 	cbnz	w0, 59f78 <rockchip_soc_sys_pwr_dm_suspend+0x1dc>
   59e94:	d2bff540 	mov	x0, #0xffaa0000            	// #4289331200
   59e98:	b9400001 	ldr	w1, [x0]
   59e9c:	f0000060 	adrp	x0, 68000 <dist_ctx+0x1e98>
   59ea0:	913f0000 	add	x0, x0, #0xfc0
   59ea4:	b9032c01 	str	w1, [x0, #812]
   59ea8:	d2800081 	mov	x1, #0x4                   	// #4
   59eac:	f2bff541 	movk	x1, #0xffaa, lsl #16
   59eb0:	b9400021 	ldr	w1, [x1]
   59eb4:	b9033001 	str	w1, [x0, #816]
   59eb8:	d2800101 	mov	x1, #0x8                   	// #8
   59ebc:	f2bff541 	movk	x1, #0xffaa, lsl #16
   59ec0:	b9400021 	ldr	w1, [x1]
   59ec4:	b9033401 	str	w1, [x0, #820]
   59ec8:	d2800181 	mov	x1, #0xc                   	// #12
   59ecc:	f2bff541 	movk	x1, #0xffaa, lsl #16
   59ed0:	b9400021 	ldr	w1, [x1]
   59ed4:	b9033801 	str	w1, [x0, #824]
   59ed8:	d2800201 	mov	x1, #0x10                  	// #16
   59edc:	f2bff541 	movk	x1, #0xffaa, lsl #16
   59ee0:	b9400021 	ldr	w1, [x1]
   59ee4:	b9033c01 	str	w1, [x0, #828]
   59ee8:	d2800281 	mov	x1, #0x14                  	// #20
   59eec:	f2bff541 	movk	x1, #0xffaa, lsl #16
   59ef0:	b9400021 	ldr	w1, [x1]
   59ef4:	b9034001 	str	w1, [x0, #832]
   59ef8:	d2800301 	mov	x1, #0x18                  	// #24
   59efc:	f2bff541 	movk	x1, #0xffaa, lsl #16
   59f00:	b9400021 	ldr	w1, [x1]
   59f04:	b9034401 	str	w1, [x0, #836]
   59f08:	d2801001 	mov	x1, #0x80                  	// #128
   59f0c:	f2bff541 	movk	x1, #0xffaa, lsl #16
   59f10:	b9400021 	ldr	w1, [x1]
   59f14:	b9034801 	str	w1, [x0, #840]
   59f18:	d2801081 	mov	x1, #0x84                  	// #132
   59f1c:	f2bff541 	movk	x1, #0xffaa, lsl #16
   59f20:	b9400021 	ldr	w1, [x1]
   59f24:	b9034c01 	str	w1, [x0, #844]
   59f28:	d2801101 	mov	x1, #0x88                  	// #136
   59f2c:	f2bff541 	movk	x1, #0xffaa, lsl #16
   59f30:	b9400021 	ldr	w1, [x1]
   59f34:	b9035001 	str	w1, [x0, #848]
   59f38:	d2801181 	mov	x1, #0x8c                  	// #140
   59f3c:	f2bff541 	movk	x1, #0xffaa, lsl #16
   59f40:	b9400021 	ldr	w1, [x1]
   59f44:	b9035401 	str	w1, [x0, #852]
   59f48:	d2801201 	mov	x1, #0x90                  	// #144
   59f4c:	f2bff541 	movk	x1, #0xffaa, lsl #16
   59f50:	b9400021 	ldr	w1, [x1]
   59f54:	b9035801 	str	w1, [x0, #856]
   59f58:	d2801281 	mov	x1, #0x94                  	// #148
   59f5c:	f2bff541 	movk	x1, #0xffaa, lsl #16
   59f60:	b9400021 	ldr	w1, [x1]
   59f64:	b9035c01 	str	w1, [x0, #860]
   59f68:	d2801301 	mov	x1, #0x98                  	// #152
   59f6c:	f2bff541 	movk	x1, #0xffaa, lsl #16
   59f70:	b9400021 	ldr	w1, [x1]
   59f74:	b9036001 	str	w1, [x0, #864]
   59f78:	528002e0 	mov	w0, #0x17                  	// #23
   59f7c:	97fffc11 	bl	58fc0 <pmu_power_domain_st>
   59f80:	35000760 	cbnz	w0, 5a06c <rockchip_soc_sys_pwr_dm_suspend+0x2d0>
   59f84:	d2900000 	mov	x0, #0x8000                	// #32768
   59f88:	f2bff540 	movk	x0, #0xffaa, lsl #16
   59f8c:	b9400001 	ldr	w1, [x0]
   59f90:	f0000060 	adrp	x0, 68000 <dist_ctx+0x1e98>
   59f94:	913f0000 	add	x0, x0, #0xfc0
   59f98:	b902f401 	str	w1, [x0, #756]
   59f9c:	d2900081 	mov	x1, #0x8004                	// #32772
   59fa0:	f2bff541 	movk	x1, #0xffaa, lsl #16
   59fa4:	b9400021 	ldr	w1, [x1]
   59fa8:	b902f801 	str	w1, [x0, #760]
   59fac:	d2900101 	mov	x1, #0x8008                	// #32776
   59fb0:	f2bff541 	movk	x1, #0xffaa, lsl #16
   59fb4:	b9400021 	ldr	w1, [x1]
   59fb8:	b902fc01 	str	w1, [x0, #764]
   59fbc:	d2900181 	mov	x1, #0x800c                	// #32780
   59fc0:	f2bff541 	movk	x1, #0xffaa, lsl #16
   59fc4:	b9400021 	ldr	w1, [x1]
   59fc8:	b9030001 	str	w1, [x0, #768]
   59fcc:	d2900201 	mov	x1, #0x8010                	// #32784
   59fd0:	f2bff541 	movk	x1, #0xffaa, lsl #16
   59fd4:	b9400021 	ldr	w1, [x1]
   59fd8:	b9030401 	str	w1, [x0, #772]
   59fdc:	d2900281 	mov	x1, #0x8014                	// #32788
   59fe0:	f2bff541 	movk	x1, #0xffaa, lsl #16
   59fe4:	b9400021 	ldr	w1, [x1]
   59fe8:	b9030801 	str	w1, [x0, #776]
   59fec:	d2900301 	mov	x1, #0x8018                	// #32792
   59ff0:	f2bff541 	movk	x1, #0xffaa, lsl #16
   59ff4:	b9400021 	ldr	w1, [x1]
   59ff8:	b9030c01 	str	w1, [x0, #780]
   59ffc:	d2901001 	mov	x1, #0x8080                	// #32896
   5a000:	f2bff541 	movk	x1, #0xffaa, lsl #16
   5a004:	b9400021 	ldr	w1, [x1]
   5a008:	b9031001 	str	w1, [x0, #784]
   5a00c:	d2901081 	mov	x1, #0x8084                	// #32900
   5a010:	f2bff541 	movk	x1, #0xffaa, lsl #16
   5a014:	b9400021 	ldr	w1, [x1]
   5a018:	b9031401 	str	w1, [x0, #788]
   5a01c:	d2901101 	mov	x1, #0x8088                	// #32904
   5a020:	f2bff541 	movk	x1, #0xffaa, lsl #16
   5a024:	b9400021 	ldr	w1, [x1]
   5a028:	b9031801 	str	w1, [x0, #792]
   5a02c:	d2901181 	mov	x1, #0x808c                	// #32908
   5a030:	f2bff541 	movk	x1, #0xffaa, lsl #16
   5a034:	b9400021 	ldr	w1, [x1]
   5a038:	b9031c01 	str	w1, [x0, #796]
   5a03c:	d2901201 	mov	x1, #0x8090                	// #32912
   5a040:	f2bff541 	movk	x1, #0xffaa, lsl #16
   5a044:	b9400021 	ldr	w1, [x1]
   5a048:	b9032001 	str	w1, [x0, #800]
   5a04c:	d2901281 	mov	x1, #0x8094                	// #32916
   5a050:	f2bff541 	movk	x1, #0xffaa, lsl #16
   5a054:	b9400021 	ldr	w1, [x1]
   5a058:	b9032401 	str	w1, [x0, #804]
   5a05c:	d2901301 	mov	x1, #0x8098                	// #32920
   5a060:	f2bff541 	movk	x1, #0xffaa, lsl #16
   5a064:	b9400021 	ldr	w1, [x1]
   5a068:	b9032801 	str	w1, [x0, #808]
   5a06c:	52800280 	mov	w0, #0x14                  	// #20
   5a070:	97fffbd4 	bl	58fc0 <pmu_power_domain_st>
   5a074:	35000ac0 	cbnz	w0, 5a1cc <rockchip_soc_sys_pwr_dm_suspend+0x430>
   5a078:	d2900000 	mov	x0, #0x8000                	// #32768
   5a07c:	f2bff580 	movk	x0, #0xffac, lsl #16
   5a080:	b9400001 	ldr	w1, [x0]
   5a084:	d0000060 	adrp	x0, 68000 <dist_ctx+0x1e98>
   5a088:	913f0000 	add	x0, x0, #0xfc0
   5a08c:	b9028401 	str	w1, [x0, #644]
   5a090:	d2900081 	mov	x1, #0x8004                	// #32772
   5a094:	f2bff581 	movk	x1, #0xffac, lsl #16
   5a098:	b9400021 	ldr	w1, [x1]
   5a09c:	b9028801 	str	w1, [x0, #648]
   5a0a0:	d2900101 	mov	x1, #0x8008                	// #32776
   5a0a4:	f2bff581 	movk	x1, #0xffac, lsl #16
   5a0a8:	b9400021 	ldr	w1, [x1]
   5a0ac:	b9028c01 	str	w1, [x0, #652]
   5a0b0:	d2900181 	mov	x1, #0x800c                	// #32780
   5a0b4:	f2bff581 	movk	x1, #0xffac, lsl #16
   5a0b8:	b9400021 	ldr	w1, [x1]
   5a0bc:	b9029001 	str	w1, [x0, #656]
   5a0c0:	d2900201 	mov	x1, #0x8010                	// #32784
   5a0c4:	f2bff581 	movk	x1, #0xffac, lsl #16
   5a0c8:	b9400021 	ldr	w1, [x1]
   5a0cc:	b9029401 	str	w1, [x0, #660]
   5a0d0:	d2900281 	mov	x1, #0x8014                	// #32788
   5a0d4:	f2bff581 	movk	x1, #0xffac, lsl #16
   5a0d8:	b9400021 	ldr	w1, [x1]
   5a0dc:	b9029801 	str	w1, [x0, #664]
   5a0e0:	d2900301 	mov	x1, #0x8018                	// #32792
   5a0e4:	f2bff581 	movk	x1, #0xffac, lsl #16
   5a0e8:	b9400021 	ldr	w1, [x1]
   5a0ec:	b9029c01 	str	w1, [x0, #668]
   5a0f0:	d2901001 	mov	x1, #0x8080                	// #32896
   5a0f4:	f2bff581 	movk	x1, #0xffac, lsl #16
   5a0f8:	b9400021 	ldr	w1, [x1]
   5a0fc:	b902a001 	str	w1, [x0, #672]
   5a100:	d2901081 	mov	x1, #0x8084                	// #32900
   5a104:	f2bff581 	movk	x1, #0xffac, lsl #16
   5a108:	b9400021 	ldr	w1, [x1]
   5a10c:	b902a401 	str	w1, [x0, #676]
   5a110:	d2901101 	mov	x1, #0x8088                	// #32904
   5a114:	f2bff581 	movk	x1, #0xffac, lsl #16
   5a118:	b9400021 	ldr	w1, [x1]
   5a11c:	b902a801 	str	w1, [x0, #680]
   5a120:	d2901181 	mov	x1, #0x808c                	// #32908
   5a124:	f2bff581 	movk	x1, #0xffac, lsl #16
   5a128:	b9400021 	ldr	w1, [x1]
   5a12c:	b902ac01 	str	w1, [x0, #684]
   5a130:	d2901201 	mov	x1, #0x8090                	// #32912
   5a134:	f2bff581 	movk	x1, #0xffac, lsl #16
   5a138:	b9400021 	ldr	w1, [x1]
   5a13c:	b902b001 	str	w1, [x0, #688]
   5a140:	d2901281 	mov	x1, #0x8094                	// #32916
   5a144:	f2bff581 	movk	x1, #0xffac, lsl #16
   5a148:	b9400021 	ldr	w1, [x1]
   5a14c:	b902b401 	str	w1, [x0, #692]
   5a150:	d2901301 	mov	x1, #0x8098                	// #32920
   5a154:	f2bff581 	movk	x1, #0xffac, lsl #16
   5a158:	b9400021 	ldr	w1, [x1]
   5a15c:	b902b801 	str	w1, [x0, #696]
   5a160:	d2bff5a1 	mov	x1, #0xffad0000            	// #4289527808
   5a164:	b9400021 	ldr	w1, [x1]
   5a168:	b902bc01 	str	w1, [x0, #700]
   5a16c:	d2800081 	mov	x1, #0x4                   	// #4
   5a170:	f2bff5a1 	movk	x1, #0xffad, lsl #16
   5a174:	b9400021 	ldr	w1, [x1]
   5a178:	b902c001 	str	w1, [x0, #704]
   5a17c:	d2800101 	mov	x1, #0x8                   	// #8
   5a180:	f2bff5a1 	movk	x1, #0xffad, lsl #16
   5a184:	b9400021 	ldr	w1, [x1]
   5a188:	b902c401 	str	w1, [x0, #708]
   5a18c:	d2800181 	mov	x1, #0xc                   	// #12
   5a190:	f2bff5a1 	movk	x1, #0xffad, lsl #16
   5a194:	b9400021 	ldr	w1, [x1]
   5a198:	b902c801 	str	w1, [x0, #712]
   5a19c:	d2800201 	mov	x1, #0x10                  	// #16
   5a1a0:	f2bff5a1 	movk	x1, #0xffad, lsl #16
   5a1a4:	b9400021 	ldr	w1, [x1]
   5a1a8:	b902cc01 	str	w1, [x0, #716]
   5a1ac:	d2800281 	mov	x1, #0x14                  	// #20
   5a1b0:	f2bff5a1 	movk	x1, #0xffad, lsl #16
   5a1b4:	b9400021 	ldr	w1, [x1]
   5a1b8:	b902d001 	str	w1, [x0, #720]
   5a1bc:	d2800301 	mov	x1, #0x18                  	// #24
   5a1c0:	f2bff5a1 	movk	x1, #0xffad, lsl #16
   5a1c4:	b9400021 	ldr	w1, [x1]
   5a1c8:	b902d401 	str	w1, [x0, #724]
   5a1cc:	52800300 	mov	w0, #0x18                  	// #24
   5a1d0:	97fffb7c 	bl	58fc0 <pmu_power_domain_st>
   5a1d4:	350003c0 	cbnz	w0, 5a24c <rockchip_soc_sys_pwr_dm_suspend+0x4b0>
   5a1d8:	d2bff520 	mov	x0, #0xffa90000            	// #4289265664
   5a1dc:	b9400001 	ldr	w1, [x0]
   5a1e0:	d0000060 	adrp	x0, 68000 <dist_ctx+0x1e98>
   5a1e4:	913f0000 	add	x0, x0, #0xfc0
   5a1e8:	b9036401 	str	w1, [x0, #868]
   5a1ec:	d2800081 	mov	x1, #0x4                   	// #4
   5a1f0:	f2bff521 	movk	x1, #0xffa9, lsl #16
   5a1f4:	b9400021 	ldr	w1, [x1]
   5a1f8:	b9036801 	str	w1, [x0, #872]
   5a1fc:	d2800101 	mov	x1, #0x8                   	// #8
   5a200:	f2bff521 	movk	x1, #0xffa9, lsl #16
   5a204:	b9400021 	ldr	w1, [x1]
   5a208:	b9036c01 	str	w1, [x0, #876]
   5a20c:	d2800181 	mov	x1, #0xc                   	// #12
   5a210:	f2bff521 	movk	x1, #0xffa9, lsl #16
   5a214:	b9400021 	ldr	w1, [x1]
   5a218:	b9037001 	str	w1, [x0, #880]
   5a21c:	d2800201 	mov	x1, #0x10                  	// #16
   5a220:	f2bff521 	movk	x1, #0xffa9, lsl #16
   5a224:	b9400021 	ldr	w1, [x1]
   5a228:	b9037401 	str	w1, [x0, #884]
   5a22c:	d2800281 	mov	x1, #0x14                  	// #20
   5a230:	f2bff521 	movk	x1, #0xffa9, lsl #16
   5a234:	b9400021 	ldr	w1, [x1]
   5a238:	b9037801 	str	w1, [x0, #888]
   5a23c:	d2800301 	mov	x1, #0x18                  	// #24
   5a240:	f2bff521 	movk	x1, #0xffa9, lsl #16
   5a244:	b9400021 	ldr	w1, [x1]
   5a248:	b9037c01 	str	w1, [x0, #892]
   5a24c:	52800320 	mov	w0, #0x19                  	// #25
   5a250:	97fffb5c 	bl	58fc0 <pmu_power_domain_st>
   5a254:	350003e0 	cbnz	w0, 5a2d0 <rockchip_soc_sys_pwr_dm_suspend+0x534>
   5a258:	d2980000 	mov	x0, #0xc000                	// #49152
   5a25c:	f2bff4a0 	movk	x0, #0xffa5, lsl #16
   5a260:	b9400001 	ldr	w1, [x0]
   5a264:	d0000060 	adrp	x0, 68000 <dist_ctx+0x1e98>
   5a268:	913f0000 	add	x0, x0, #0xfc0
   5a26c:	b9013401 	str	w1, [x0, #308]
   5a270:	d2980081 	mov	x1, #0xc004                	// #49156
   5a274:	f2bff4a1 	movk	x1, #0xffa5, lsl #16
   5a278:	b9400021 	ldr	w1, [x1]
   5a27c:	b9013801 	str	w1, [x0, #312]
   5a280:	d2980101 	mov	x1, #0xc008                	// #49160
   5a284:	f2bff4a1 	movk	x1, #0xffa5, lsl #16
   5a288:	b9400021 	ldr	w1, [x1]
   5a28c:	b9013c01 	str	w1, [x0, #316]
   5a290:	d2980181 	mov	x1, #0xc00c                	// #49164
   5a294:	f2bff4a1 	movk	x1, #0xffa5, lsl #16
   5a298:	b9400021 	ldr	w1, [x1]
   5a29c:	b9014001 	str	w1, [x0, #320]
   5a2a0:	d2980201 	mov	x1, #0xc010                	// #49168
   5a2a4:	f2bff4a1 	movk	x1, #0xffa5, lsl #16
   5a2a8:	b9400021 	ldr	w1, [x1]
   5a2ac:	b9014401 	str	w1, [x0, #324]
   5a2b0:	d2980281 	mov	x1, #0xc014                	// #49172
   5a2b4:	f2bff4a1 	movk	x1, #0xffa5, lsl #16
   5a2b8:	b9400021 	ldr	w1, [x1]
   5a2bc:	b9014801 	str	w1, [x0, #328]
   5a2c0:	d2980301 	mov	x1, #0xc018                	// #49176
   5a2c4:	f2bff4a1 	movk	x1, #0xffa5, lsl #16
   5a2c8:	b9400021 	ldr	w1, [x1]
   5a2cc:	b9014c01 	str	w1, [x0, #332]
   5a2d0:	52800140 	mov	w0, #0xa                   	// #10
   5a2d4:	97fffb3b 	bl	58fc0 <pmu_power_domain_st>
   5a2d8:	35000740 	cbnz	w0, 5a3c0 <rockchip_soc_sys_pwr_dm_suspend+0x624>
   5a2dc:	d2bff4a0 	mov	x0, #0xffa50000            	// #4289003520
   5a2e0:	d0000061 	adrp	x1, 68000 <dist_ctx+0x1e98>
   5a2e4:	b9400002 	ldr	w2, [x0]
   5a2e8:	913f0020 	add	x0, x1, #0xfc0
   5a2ec:	b90fc022 	str	w2, [x1, #4032]
   5a2f0:	d2800081 	mov	x1, #0x4                   	// #4
   5a2f4:	f2bff4a1 	movk	x1, #0xffa5, lsl #16
   5a2f8:	b9400021 	ldr	w1, [x1]
   5a2fc:	b9000401 	str	w1, [x0, #4]
   5a300:	d2800101 	mov	x1, #0x8                   	// #8
   5a304:	f2bff4a1 	movk	x1, #0xffa5, lsl #16
   5a308:	b9400021 	ldr	w1, [x1]
   5a30c:	b9000801 	str	w1, [x0, #8]
   5a310:	d2800181 	mov	x1, #0xc                   	// #12
   5a314:	f2bff4a1 	movk	x1, #0xffa5, lsl #16
   5a318:	b9400021 	ldr	w1, [x1]
   5a31c:	b9000c01 	str	w1, [x0, #12]
   5a320:	d2800201 	mov	x1, #0x10                  	// #16
   5a324:	f2bff4a1 	movk	x1, #0xffa5, lsl #16
   5a328:	b9400021 	ldr	w1, [x1]
   5a32c:	b9001001 	str	w1, [x0, #16]
   5a330:	d2800281 	mov	x1, #0x14                  	// #20
   5a334:	f2bff4a1 	movk	x1, #0xffa5, lsl #16
   5a338:	b9400021 	ldr	w1, [x1]
   5a33c:	b9001401 	str	w1, [x0, #20]
   5a340:	d2800301 	mov	x1, #0x18                  	// #24
   5a344:	f2bff4a1 	movk	x1, #0xffa5, lsl #16
   5a348:	b9400021 	ldr	w1, [x1]
   5a34c:	b9001801 	str	w1, [x0, #24]
   5a350:	d2900001 	mov	x1, #0x8000                	// #32768
   5a354:	f2bff5a1 	movk	x1, #0xffad, lsl #16
   5a358:	b9400021 	ldr	w1, [x1]
   5a35c:	b9001c01 	str	w1, [x0, #28]
   5a360:	d2900081 	mov	x1, #0x8004                	// #32772
   5a364:	f2bff5a1 	movk	x1, #0xffad, lsl #16
   5a368:	b9400021 	ldr	w1, [x1]
   5a36c:	b9002001 	str	w1, [x0, #32]
   5a370:	d2900101 	mov	x1, #0x8008                	// #32776
   5a374:	f2bff5a1 	movk	x1, #0xffad, lsl #16
   5a378:	b9400021 	ldr	w1, [x1]
   5a37c:	b9002401 	str	w1, [x0, #36]
   5a380:	d2900181 	mov	x1, #0x800c                	// #32780
   5a384:	f2bff5a1 	movk	x1, #0xffad, lsl #16
   5a388:	b9400021 	ldr	w1, [x1]
   5a38c:	b9002801 	str	w1, [x0, #40]
   5a390:	d2900201 	mov	x1, #0x8010                	// #32784
   5a394:	f2bff5a1 	movk	x1, #0xffad, lsl #16
   5a398:	b9400021 	ldr	w1, [x1]
   5a39c:	b9002c01 	str	w1, [x0, #44]
   5a3a0:	d2900281 	mov	x1, #0x8014                	// #32788
   5a3a4:	f2bff5a1 	movk	x1, #0xffad, lsl #16
   5a3a8:	b9400021 	ldr	w1, [x1]
   5a3ac:	b9003001 	str	w1, [x0, #48]
   5a3b0:	d2900301 	mov	x1, #0x8018                	// #32792
   5a3b4:	f2bff5a1 	movk	x1, #0xffad, lsl #16
   5a3b8:	b9400021 	ldr	w1, [x1]
   5a3bc:	b9003401 	str	w1, [x0, #52]
   5a3c0:	528003c0 	mov	w0, #0x1e                  	// #30
   5a3c4:	97fffaff 	bl	58fc0 <pmu_power_domain_st>
   5a3c8:	350003e0 	cbnz	w0, 5a444 <rockchip_soc_sys_pwr_dm_suspend+0x6a8>
   5a3cc:	d2880000 	mov	x0, #0x4000                	// #16384
   5a3d0:	f2bff4e0 	movk	x0, #0xffa7, lsl #16
   5a3d4:	b9400001 	ldr	w1, [x0]
   5a3d8:	d0000060 	adrp	x0, 68000 <dist_ctx+0x1e98>
   5a3dc:	913f0000 	add	x0, x0, #0xfc0
   5a3e0:	b9011801 	str	w1, [x0, #280]
   5a3e4:	d2880081 	mov	x1, #0x4004                	// #16388
   5a3e8:	f2bff4e1 	movk	x1, #0xffa7, lsl #16
   5a3ec:	b9400021 	ldr	w1, [x1]
   5a3f0:	b9011c01 	str	w1, [x0, #284]
   5a3f4:	d2880101 	mov	x1, #0x4008                	// #16392
   5a3f8:	f2bff4e1 	movk	x1, #0xffa7, lsl #16
   5a3fc:	b9400021 	ldr	w1, [x1]
   5a400:	b9012001 	str	w1, [x0, #288]
   5a404:	d2880181 	mov	x1, #0x400c                	// #16396
   5a408:	f2bff4e1 	movk	x1, #0xffa7, lsl #16
   5a40c:	b9400021 	ldr	w1, [x1]
   5a410:	b9012401 	str	w1, [x0, #292]
   5a414:	d2880201 	mov	x1, #0x4010                	// #16400
   5a418:	f2bff4e1 	movk	x1, #0xffa7, lsl #16
   5a41c:	b9400021 	ldr	w1, [x1]
   5a420:	b9012801 	str	w1, [x0, #296]
   5a424:	d2880281 	mov	x1, #0x4014                	// #16404
   5a428:	f2bff4e1 	movk	x1, #0xffa7, lsl #16
   5a42c:	b9400021 	ldr	w1, [x1]
   5a430:	b9012c01 	str	w1, [x0, #300]
   5a434:	d2880301 	mov	x1, #0x4018                	// #16408
   5a438:	f2bff4e1 	movk	x1, #0xffa7, lsl #16
   5a43c:	b9400021 	ldr	w1, [x1]
   5a440:	b9013001 	str	w1, [x0, #304]
   5a444:	52800340 	mov	w0, #0x1a                  	// #26
   5a448:	97fffade 	bl	58fc0 <pmu_power_domain_st>
   5a44c:	350003e0 	cbnz	w0, 5a4c8 <rockchip_soc_sys_pwr_dm_suspend+0x72c>
   5a450:	d2900000 	mov	x0, #0x8000                	// #32768
   5a454:	f2bff4a0 	movk	x0, #0xffa5, lsl #16
   5a458:	b9400001 	ldr	w1, [x0]
   5a45c:	d0000060 	adrp	x0, 68000 <dist_ctx+0x1e98>
   5a460:	913f0000 	add	x0, x0, #0xfc0
   5a464:	b9015001 	str	w1, [x0, #336]
   5a468:	d2900081 	mov	x1, #0x8004                	// #32772
   5a46c:	f2bff4a1 	movk	x1, #0xffa5, lsl #16
   5a470:	b9400021 	ldr	w1, [x1]
   5a474:	b9015401 	str	w1, [x0, #340]
   5a478:	d2900101 	mov	x1, #0x8008                	// #32776
   5a47c:	f2bff4a1 	movk	x1, #0xffa5, lsl #16
   5a480:	b9400021 	ldr	w1, [x1]
   5a484:	b9015801 	str	w1, [x0, #344]
   5a488:	d2900181 	mov	x1, #0x800c                	// #32780
   5a48c:	f2bff4a1 	movk	x1, #0xffa5, lsl #16
   5a490:	b9400021 	ldr	w1, [x1]
   5a494:	b9015c01 	str	w1, [x0, #348]
   5a498:	d2900201 	mov	x1, #0x8010                	// #32784
   5a49c:	f2bff4a1 	movk	x1, #0xffa5, lsl #16
   5a4a0:	b9400021 	ldr	w1, [x1]
   5a4a4:	b9016001 	str	w1, [x0, #352]
   5a4a8:	d2900281 	mov	x1, #0x8014                	// #32788
   5a4ac:	f2bff4a1 	movk	x1, #0xffa5, lsl #16
   5a4b0:	b9400021 	ldr	w1, [x1]
   5a4b4:	b9016401 	str	w1, [x0, #356]
   5a4b8:	d2900301 	mov	x1, #0x8018                	// #32792
   5a4bc:	f2bff4a1 	movk	x1, #0xffa5, lsl #16
   5a4c0:	b9400021 	ldr	w1, [x1]
   5a4c4:	b9016801 	str	w1, [x0, #360]
   5a4c8:	528003e0 	mov	w0, #0x1f                  	// #31
   5a4cc:	97fffabd 	bl	58fc0 <pmu_power_domain_st>
   5a4d0:	350003e0 	cbnz	w0, 5a54c <rockchip_soc_sys_pwr_dm_suspend+0x7b0>
   5a4d4:	d28c0000 	mov	x0, #0x6000                	// #24576
   5a4d8:	f2bff4e0 	movk	x0, #0xffa7, lsl #16
   5a4dc:	b9400001 	ldr	w1, [x0]
   5a4e0:	d0000060 	adrp	x0, 68000 <dist_ctx+0x1e98>
   5a4e4:	913f0000 	add	x0, x0, #0xfc0
   5a4e8:	b903d401 	str	w1, [x0, #980]
   5a4ec:	d28c0081 	mov	x1, #0x6004                	// #24580
   5a4f0:	f2bff4e1 	movk	x1, #0xffa7, lsl #16
   5a4f4:	b9400021 	ldr	w1, [x1]
   5a4f8:	b903d801 	str	w1, [x0, #984]
   5a4fc:	d28c0101 	mov	x1, #0x6008                	// #24584
   5a500:	f2bff4e1 	movk	x1, #0xffa7, lsl #16
   5a504:	b9400021 	ldr	w1, [x1]
   5a508:	b903dc01 	str	w1, [x0, #988]
   5a50c:	d28c0181 	mov	x1, #0x600c                	// #24588
   5a510:	f2bff4e1 	movk	x1, #0xffa7, lsl #16
   5a514:	b9400021 	ldr	w1, [x1]
   5a518:	b903e001 	str	w1, [x0, #992]
   5a51c:	d28c0201 	mov	x1, #0x6010                	// #24592
   5a520:	f2bff4e1 	movk	x1, #0xffa7, lsl #16
   5a524:	b9400021 	ldr	w1, [x1]
   5a528:	b903e401 	str	w1, [x0, #996]
   5a52c:	d28c0281 	mov	x1, #0x6014                	// #24596
   5a530:	f2bff4e1 	movk	x1, #0xffa7, lsl #16
   5a534:	b9400021 	ldr	w1, [x1]
   5a538:	b903e801 	str	w1, [x0, #1000]
   5a53c:	d28c0301 	mov	x1, #0x6018                	// #24600
   5a540:	f2bff4e1 	movk	x1, #0xffa7, lsl #16
   5a544:	b9400021 	ldr	w1, [x1]
   5a548:	b903ec01 	str	w1, [x0, #1004]
   5a54c:	528003a0 	mov	w0, #0x1d                  	// #29
   5a550:	97fffa9c 	bl	58fc0 <pmu_power_domain_st>
   5a554:	350003e0 	cbnz	w0, 5a5d0 <rockchip_soc_sys_pwr_dm_suspend+0x834>
   5a558:	d2900000 	mov	x0, #0x8000                	// #32768
   5a55c:	f2bff4e0 	movk	x0, #0xffa7, lsl #16
   5a560:	b9400001 	ldr	w1, [x0]
   5a564:	d0000060 	adrp	x0, 68000 <dist_ctx+0x1e98>
   5a568:	913f0000 	add	x0, x0, #0xfc0
   5a56c:	b900fc01 	str	w1, [x0, #252]
   5a570:	d2900081 	mov	x1, #0x8004                	// #32772
   5a574:	f2bff4e1 	movk	x1, #0xffa7, lsl #16
   5a578:	b9400021 	ldr	w1, [x1]
   5a57c:	b9010001 	str	w1, [x0, #256]
   5a580:	d2900101 	mov	x1, #0x8008                	// #32776
   5a584:	f2bff4e1 	movk	x1, #0xffa7, lsl #16
   5a588:	b9400021 	ldr	w1, [x1]
   5a58c:	b9010401 	str	w1, [x0, #260]
   5a590:	d2900181 	mov	x1, #0x800c                	// #32780
   5a594:	f2bff4e1 	movk	x1, #0xffa7, lsl #16
   5a598:	b9400021 	ldr	w1, [x1]
   5a59c:	b9010801 	str	w1, [x0, #264]
   5a5a0:	d2900201 	mov	x1, #0x8010                	// #32784
   5a5a4:	f2bff4e1 	movk	x1, #0xffa7, lsl #16
   5a5a8:	b9400021 	ldr	w1, [x1]
   5a5ac:	b9010c01 	str	w1, [x0, #268]
   5a5b0:	d2900281 	mov	x1, #0x8014                	// #32788
   5a5b4:	f2bff4e1 	movk	x1, #0xffa7, lsl #16
   5a5b8:	b9400021 	ldr	w1, [x1]
   5a5bc:	b9011001 	str	w1, [x0, #272]
   5a5c0:	d2900301 	mov	x1, #0x8018                	// #32792
   5a5c4:	f2bff4e1 	movk	x1, #0xffa7, lsl #16
   5a5c8:	b9400021 	ldr	w1, [x1]
   5a5cc:	b9011401 	str	w1, [x0, #276]
   5a5d0:	52800240 	mov	w0, #0x12                  	// #18
   5a5d4:	97fffa7b 	bl	58fc0 <pmu_power_domain_st>
   5a5d8:	35000740 	cbnz	w0, 5a6c0 <rockchip_soc_sys_pwr_dm_suspend+0x924>
   5a5dc:	d2bff560 	mov	x0, #0xffab0000            	// #4289396736
   5a5e0:	b9400001 	ldr	w1, [x0]
   5a5e4:	d0000060 	adrp	x0, 68000 <dist_ctx+0x1e98>
   5a5e8:	913f0000 	add	x0, x0, #0xfc0
   5a5ec:	b9024c01 	str	w1, [x0, #588]
   5a5f0:	d2800081 	mov	x1, #0x4                   	// #4
   5a5f4:	f2bff561 	movk	x1, #0xffab, lsl #16
   5a5f8:	b9400021 	ldr	w1, [x1]
   5a5fc:	b9025001 	str	w1, [x0, #592]
   5a600:	d2800101 	mov	x1, #0x8                   	// #8
   5a604:	f2bff561 	movk	x1, #0xffab, lsl #16
   5a608:	b9400021 	ldr	w1, [x1]
   5a60c:	b9025401 	str	w1, [x0, #596]
   5a610:	d2800181 	mov	x1, #0xc                   	// #12
   5a614:	f2bff561 	movk	x1, #0xffab, lsl #16
   5a618:	b9400021 	ldr	w1, [x1]
   5a61c:	b9025801 	str	w1, [x0, #600]
   5a620:	d2800201 	mov	x1, #0x10                  	// #16
   5a624:	f2bff561 	movk	x1, #0xffab, lsl #16
   5a628:	b9400021 	ldr	w1, [x1]
   5a62c:	b9025c01 	str	w1, [x0, #604]
   5a630:	d2800281 	mov	x1, #0x14                  	// #20
   5a634:	f2bff561 	movk	x1, #0xffab, lsl #16
   5a638:	b9400021 	ldr	w1, [x1]
   5a63c:	b9026001 	str	w1, [x0, #608]
   5a640:	d2800301 	mov	x1, #0x18                  	// #24
   5a644:	f2bff561 	movk	x1, #0xffab, lsl #16
   5a648:	b9400021 	ldr	w1, [x1]
   5a64c:	b9026401 	str	w1, [x0, #612]
   5a650:	d2801001 	mov	x1, #0x80                  	// #128
   5a654:	f2bff561 	movk	x1, #0xffab, lsl #16
   5a658:	b9400021 	ldr	w1, [x1]
   5a65c:	b9026801 	str	w1, [x0, #616]
   5a660:	d2801081 	mov	x1, #0x84                  	// #132
   5a664:	f2bff561 	movk	x1, #0xffab, lsl #16
   5a668:	b9400021 	ldr	w1, [x1]
   5a66c:	b9026c01 	str	w1, [x0, #620]
   5a670:	d2801101 	mov	x1, #0x88                  	// #136
   5a674:	f2bff561 	movk	x1, #0xffab, lsl #16
   5a678:	b9400021 	ldr	w1, [x1]
   5a67c:	b9027001 	str	w1, [x0, #624]
   5a680:	d2801181 	mov	x1, #0x8c                  	// #140
   5a684:	f2bff561 	movk	x1, #0xffab, lsl #16
   5a688:	b9400021 	ldr	w1, [x1]
   5a68c:	b9027401 	str	w1, [x0, #628]
   5a690:	d2801201 	mov	x1, #0x90                  	// #144
   5a694:	f2bff561 	movk	x1, #0xffab, lsl #16
   5a698:	b9400021 	ldr	w1, [x1]
   5a69c:	b9027801 	str	w1, [x0, #632]
   5a6a0:	d2801281 	mov	x1, #0x94                  	// #148
   5a6a4:	f2bff561 	movk	x1, #0xffab, lsl #16
   5a6a8:	b9400021 	ldr	w1, [x1]
   5a6ac:	b9027c01 	str	w1, [x0, #636]
   5a6b0:	d2801301 	mov	x1, #0x98                  	// #152
   5a6b4:	f2bff561 	movk	x1, #0xffab, lsl #16
   5a6b8:	b9400021 	ldr	w1, [x1]
   5a6bc:	b9028001 	str	w1, [x0, #640]
   5a6c0:	52800260 	mov	w0, #0x13                  	// #19
   5a6c4:	97fffa3f 	bl	58fc0 <pmu_power_domain_st>
   5a6c8:	350003e0 	cbnz	w0, 5a744 <rockchip_soc_sys_pwr_dm_suspend+0x9a8>
   5a6cc:	d2900000 	mov	x0, #0x8000                	// #32768
   5a6d0:	f2bff520 	movk	x0, #0xffa9, lsl #16
   5a6d4:	b9400001 	ldr	w1, [x0]
   5a6d8:	d0000060 	adrp	x0, 68000 <dist_ctx+0x1e98>
   5a6dc:	913f0000 	add	x0, x0, #0xfc0
   5a6e0:	b902d801 	str	w1, [x0, #728]
   5a6e4:	d2900081 	mov	x1, #0x8004                	// #32772
   5a6e8:	f2bff521 	movk	x1, #0xffa9, lsl #16
   5a6ec:	b9400021 	ldr	w1, [x1]
   5a6f0:	b902dc01 	str	w1, [x0, #732]
   5a6f4:	d2900101 	mov	x1, #0x8008                	// #32776
   5a6f8:	f2bff521 	movk	x1, #0xffa9, lsl #16
   5a6fc:	b9400021 	ldr	w1, [x1]
   5a700:	b902e001 	str	w1, [x0, #736]
   5a704:	d2900181 	mov	x1, #0x800c                	// #32780
   5a708:	f2bff521 	movk	x1, #0xffa9, lsl #16
   5a70c:	b9400021 	ldr	w1, [x1]
   5a710:	b902e401 	str	w1, [x0, #740]
   5a714:	d2900201 	mov	x1, #0x8010                	// #32784
   5a718:	f2bff521 	movk	x1, #0xffa9, lsl #16
   5a71c:	b9400021 	ldr	w1, [x1]
   5a720:	b902e801 	str	w1, [x0, #744]
   5a724:	d2900281 	mov	x1, #0x8014                	// #32788
   5a728:	f2bff521 	movk	x1, #0xffa9, lsl #16
   5a72c:	b9400021 	ldr	w1, [x1]
   5a730:	b902ec01 	str	w1, [x0, #748]
   5a734:	d2900301 	mov	x1, #0x8018                	// #32792
   5a738:	f2bff521 	movk	x1, #0xffa9, lsl #16
   5a73c:	b9400021 	ldr	w1, [x1]
   5a740:	b902f001 	str	w1, [x0, #752]
   5a744:	52800360 	mov	w0, #0x1b                  	// #27
   5a748:	97fffa1e 	bl	58fc0 <pmu_power_domain_st>
   5a74c:	35000740 	cbnz	w0, 5a834 <rockchip_soc_sys_pwr_dm_suspend+0xa98>
   5a750:	d2bff4e0 	mov	x0, #0xffa70000            	// #4289134592
   5a754:	b9400001 	ldr	w1, [x0]
   5a758:	d0000060 	adrp	x0, 68000 <dist_ctx+0x1e98>
   5a75c:	913f0000 	add	x0, x0, #0xfc0
   5a760:	b9016c01 	str	w1, [x0, #364]
   5a764:	d2800081 	mov	x1, #0x4                   	// #4
   5a768:	f2bff4e1 	movk	x1, #0xffa7, lsl #16
   5a76c:	b9400021 	ldr	w1, [x1]
   5a770:	b9017001 	str	w1, [x0, #368]
   5a774:	d2800101 	mov	x1, #0x8                   	// #8
   5a778:	f2bff4e1 	movk	x1, #0xffa7, lsl #16
   5a77c:	b9400021 	ldr	w1, [x1]
   5a780:	b9017401 	str	w1, [x0, #372]
   5a784:	d2800181 	mov	x1, #0xc                   	// #12
   5a788:	f2bff4e1 	movk	x1, #0xffa7, lsl #16
   5a78c:	b9400021 	ldr	w1, [x1]
   5a790:	b9017801 	str	w1, [x0, #376]
   5a794:	d2800201 	mov	x1, #0x10                  	// #16
   5a798:	f2bff4e1 	movk	x1, #0xffa7, lsl #16
   5a79c:	b9400021 	ldr	w1, [x1]
   5a7a0:	b9017c01 	str	w1, [x0, #380]
   5a7a4:	d2800281 	mov	x1, #0x14                  	// #20
   5a7a8:	f2bff4e1 	movk	x1, #0xffa7, lsl #16
   5a7ac:	b9400021 	ldr	w1, [x1]
   5a7b0:	b9018001 	str	w1, [x0, #384]
   5a7b4:	d2800301 	mov	x1, #0x18                  	// #24
   5a7b8:	f2bff4e1 	movk	x1, #0xffa7, lsl #16
   5a7bc:	b9400021 	ldr	w1, [x1]
   5a7c0:	b9018401 	str	w1, [x0, #388]
   5a7c4:	d2801001 	mov	x1, #0x80                  	// #128
   5a7c8:	f2bff4e1 	movk	x1, #0xffa7, lsl #16
   5a7cc:	b9400021 	ldr	w1, [x1]
   5a7d0:	b9018801 	str	w1, [x0, #392]
   5a7d4:	d2801081 	mov	x1, #0x84                  	// #132
   5a7d8:	f2bff4e1 	movk	x1, #0xffa7, lsl #16
   5a7dc:	b9400021 	ldr	w1, [x1]
   5a7e0:	b9018c01 	str	w1, [x0, #396]
   5a7e4:	d2801101 	mov	x1, #0x88                  	// #136
   5a7e8:	f2bff4e1 	movk	x1, #0xffa7, lsl #16
   5a7ec:	b9400021 	ldr	w1, [x1]
   5a7f0:	b9019001 	str	w1, [x0, #400]
   5a7f4:	d2801181 	mov	x1, #0x8c                  	// #140
   5a7f8:	f2bff4e1 	movk	x1, #0xffa7, lsl #16
   5a7fc:	b9400021 	ldr	w1, [x1]
   5a800:	b9019401 	str	w1, [x0, #404]
   5a804:	d2801201 	mov	x1, #0x90                  	// #144
   5a808:	f2bff4e1 	movk	x1, #0xffa7, lsl #16
   5a80c:	b9400021 	ldr	w1, [x1]
   5a810:	b9019801 	str	w1, [x0, #408]
   5a814:	d2801281 	mov	x1, #0x94                  	// #148
   5a818:	f2bff4e1 	movk	x1, #0xffa7, lsl #16
   5a81c:	b9400021 	ldr	w1, [x1]
   5a820:	b9019c01 	str	w1, [x0, #412]
   5a824:	d2801301 	mov	x1, #0x98                  	// #152
   5a828:	f2bff4e1 	movk	x1, #0xffa7, lsl #16
   5a82c:	b9400021 	ldr	w1, [x1]
   5a830:	b901a001 	str	w1, [x0, #416]
   5a834:	52800180 	mov	w0, #0xc                   	// #12
   5a838:	97fff9e2 	bl	58fc0 <pmu_power_domain_st>
   5a83c:	35000ae0 	cbnz	w0, 5a998 <rockchip_soc_sys_pwr_dm_suspend+0xbfc>
   5a840:	d2802000 	mov	x0, #0x100                 	// #256
   5a844:	f2bff4c0 	movk	x0, #0xffa6, lsl #16
   5a848:	b9400001 	ldr	w1, [x0]
   5a84c:	d0000060 	adrp	x0, 68000 <dist_ctx+0x1e98>
   5a850:	913f0000 	add	x0, x0, #0xfc0
   5a854:	b901a401 	str	w1, [x0, #420]
   5a858:	d2802081 	mov	x1, #0x104                 	// #260
   5a85c:	f2bff4c1 	movk	x1, #0xffa6, lsl #16
   5a860:	b9400021 	ldr	w1, [x1]
   5a864:	b901a801 	str	w1, [x0, #424]
   5a868:	d2802101 	mov	x1, #0x108                 	// #264
   5a86c:	f2bff4c1 	movk	x1, #0xffa6, lsl #16
   5a870:	b9400021 	ldr	w1, [x1]
   5a874:	b901ac01 	str	w1, [x0, #428]
   5a878:	d2802181 	mov	x1, #0x10c                 	// #268
   5a87c:	f2bff4c1 	movk	x1, #0xffa6, lsl #16
   5a880:	b9400021 	ldr	w1, [x1]
   5a884:	b901b001 	str	w1, [x0, #432]
   5a888:	d2802201 	mov	x1, #0x110                 	// #272
   5a88c:	f2bff4c1 	movk	x1, #0xffa6, lsl #16
   5a890:	b9400021 	ldr	w1, [x1]
   5a894:	b901b401 	str	w1, [x0, #436]
   5a898:	d2802281 	mov	x1, #0x114                 	// #276
   5a89c:	f2bff4c1 	movk	x1, #0xffa6, lsl #16
   5a8a0:	b9400021 	ldr	w1, [x1]
   5a8a4:	b901b801 	str	w1, [x0, #440]
   5a8a8:	d2802301 	mov	x1, #0x118                 	// #280
   5a8ac:	f2bff4c1 	movk	x1, #0xffa6, lsl #16
   5a8b0:	b9400021 	ldr	w1, [x1]
   5a8b4:	b901bc01 	str	w1, [x0, #444]
   5a8b8:	d2803001 	mov	x1, #0x180                 	// #384
   5a8bc:	f2bff4c1 	movk	x1, #0xffa6, lsl #16
   5a8c0:	b9400021 	ldr	w1, [x1]
   5a8c4:	b901c001 	str	w1, [x0, #448]
   5a8c8:	d2803081 	mov	x1, #0x184                 	// #388
   5a8cc:	f2bff4c1 	movk	x1, #0xffa6, lsl #16
   5a8d0:	b9400021 	ldr	w1, [x1]
   5a8d4:	b901c401 	str	w1, [x0, #452]
   5a8d8:	d2803101 	mov	x1, #0x188                 	// #392
   5a8dc:	f2bff4c1 	movk	x1, #0xffa6, lsl #16
   5a8e0:	b9400021 	ldr	w1, [x1]
   5a8e4:	b901c801 	str	w1, [x0, #456]
   5a8e8:	d2803181 	mov	x1, #0x18c                 	// #396
   5a8ec:	f2bff4c1 	movk	x1, #0xffa6, lsl #16
   5a8f0:	b9400021 	ldr	w1, [x1]
   5a8f4:	b901cc01 	str	w1, [x0, #460]
   5a8f8:	d2803201 	mov	x1, #0x190                 	// #400
   5a8fc:	f2bff4c1 	movk	x1, #0xffa6, lsl #16
   5a900:	b9400021 	ldr	w1, [x1]
   5a904:	b901d001 	str	w1, [x0, #464]
   5a908:	d2803281 	mov	x1, #0x194                 	// #404
   5a90c:	f2bff4c1 	movk	x1, #0xffa6, lsl #16
   5a910:	b9400021 	ldr	w1, [x1]
   5a914:	b901d401 	str	w1, [x0, #468]
   5a918:	d2803301 	mov	x1, #0x198                 	// #408
   5a91c:	f2bff4c1 	movk	x1, #0xffa6, lsl #16
   5a920:	b9400021 	ldr	w1, [x1]
   5a924:	b901d801 	str	w1, [x0, #472]
   5a928:	d2901001 	mov	x1, #0x8080                	// #32896
   5a92c:	f2bff5a1 	movk	x1, #0xffad, lsl #16
   5a930:	b9400021 	ldr	w1, [x1]
   5a934:	b9038001 	str	w1, [x0, #896]
   5a938:	d2901081 	mov	x1, #0x8084                	// #32900
   5a93c:	f2bff5a1 	movk	x1, #0xffad, lsl #16
   5a940:	b9400021 	ldr	w1, [x1]
   5a944:	b9038401 	str	w1, [x0, #900]
   5a948:	d2901101 	mov	x1, #0x8088                	// #32904
   5a94c:	f2bff5a1 	movk	x1, #0xffad, lsl #16
   5a950:	b9400021 	ldr	w1, [x1]
   5a954:	b9038801 	str	w1, [x0, #904]
   5a958:	d2901181 	mov	x1, #0x808c                	// #32908
   5a95c:	f2bff5a1 	movk	x1, #0xffad, lsl #16
   5a960:	b9400021 	ldr	w1, [x1]
   5a964:	b9038c01 	str	w1, [x0, #908]
   5a968:	d2901201 	mov	x1, #0x8090                	// #32912
   5a96c:	f2bff5a1 	movk	x1, #0xffad, lsl #16
   5a970:	b9400021 	ldr	w1, [x1]
   5a974:	b9039001 	str	w1, [x0, #912]
   5a978:	d2901281 	mov	x1, #0x8094                	// #32916
   5a97c:	f2bff5a1 	movk	x1, #0xffad, lsl #16
   5a980:	b9400021 	ldr	w1, [x1]
   5a984:	b9039401 	str	w1, [x0, #916]
   5a988:	d2901301 	mov	x1, #0x8098                	// #32920
   5a98c:	f2bff5a1 	movk	x1, #0xffad, lsl #16
   5a990:	b9400021 	ldr	w1, [x1]
   5a994:	b9039801 	str	w1, [x0, #920]
   5a998:	52800160 	mov	w0, #0xb                   	// #11
   5a99c:	97fff989 	bl	58fc0 <pmu_power_domain_st>
   5a9a0:	35001c60 	cbnz	w0, 5ad2c <rockchip_soc_sys_pwr_dm_suspend+0xf90>
   5a9a4:	d2884000 	mov	x0, #0x4200                	// #16896
   5a9a8:	f2bff4c0 	movk	x0, #0xffa6, lsl #16
   5a9ac:	b9400001 	ldr	w1, [x0]
   5a9b0:	d0000060 	adrp	x0, 68000 <dist_ctx+0x1e98>
   5a9b4:	913f0000 	add	x0, x0, #0xfc0
   5a9b8:	b9003801 	str	w1, [x0, #56]
   5a9bc:	d2884081 	mov	x1, #0x4204                	// #16900
   5a9c0:	f2bff4c1 	movk	x1, #0xffa6, lsl #16
   5a9c4:	b9400021 	ldr	w1, [x1]
   5a9c8:	b9003c01 	str	w1, [x0, #60]
   5a9cc:	d2884101 	mov	x1, #0x4208                	// #16904
   5a9d0:	f2bff4c1 	movk	x1, #0xffa6, lsl #16
   5a9d4:	b9400021 	ldr	w1, [x1]
   5a9d8:	b9004001 	str	w1, [x0, #64]
   5a9dc:	d2884181 	mov	x1, #0x420c                	// #16908
   5a9e0:	f2bff4c1 	movk	x1, #0xffa6, lsl #16
   5a9e4:	b9400021 	ldr	w1, [x1]
   5a9e8:	b9004401 	str	w1, [x0, #68]
   5a9ec:	d2884201 	mov	x1, #0x4210                	// #16912
   5a9f0:	f2bff4c1 	movk	x1, #0xffa6, lsl #16
   5a9f4:	b9400021 	ldr	w1, [x1]
   5a9f8:	b9004801 	str	w1, [x0, #72]
   5a9fc:	d2884281 	mov	x1, #0x4214                	// #16916
   5aa00:	f2bff4c1 	movk	x1, #0xffa6, lsl #16
   5aa04:	b9400021 	ldr	w1, [x1]
   5aa08:	b9004c01 	str	w1, [x0, #76]
   5aa0c:	d2884301 	mov	x1, #0x4218                	// #16920
   5aa10:	f2bff4c1 	movk	x1, #0xffa6, lsl #16
   5aa14:	b9400021 	ldr	w1, [x1]
   5aa18:	b9005001 	str	w1, [x0, #80]
   5aa1c:	d2885001 	mov	x1, #0x4280                	// #17024
   5aa20:	f2bff4c1 	movk	x1, #0xffa6, lsl #16
   5aa24:	b9400021 	ldr	w1, [x1]
   5aa28:	b9005401 	str	w1, [x0, #84]
   5aa2c:	d2885081 	mov	x1, #0x4284                	// #17028
   5aa30:	f2bff4c1 	movk	x1, #0xffa6, lsl #16
   5aa34:	b9400021 	ldr	w1, [x1]
   5aa38:	b9005801 	str	w1, [x0, #88]
   5aa3c:	d2885101 	mov	x1, #0x4288                	// #17032
   5aa40:	f2bff4c1 	movk	x1, #0xffa6, lsl #16
   5aa44:	b9400021 	ldr	w1, [x1]
   5aa48:	b9005c01 	str	w1, [x0, #92]
   5aa4c:	d2885181 	mov	x1, #0x428c                	// #17036
   5aa50:	f2bff4c1 	movk	x1, #0xffa6, lsl #16
   5aa54:	b9400021 	ldr	w1, [x1]
   5aa58:	b9006001 	str	w1, [x0, #96]
   5aa5c:	d2885201 	mov	x1, #0x4290                	// #17040
   5aa60:	f2bff4c1 	movk	x1, #0xffa6, lsl #16
   5aa64:	b9400021 	ldr	w1, [x1]
   5aa68:	b9006401 	str	w1, [x0, #100]
   5aa6c:	d2885281 	mov	x1, #0x4294                	// #17044
   5aa70:	f2bff4c1 	movk	x1, #0xffa6, lsl #16
   5aa74:	b9400021 	ldr	w1, [x1]
   5aa78:	b9006801 	str	w1, [x0, #104]
   5aa7c:	d2885301 	mov	x1, #0x4298                	// #17048
   5aa80:	f2bff4c1 	movk	x1, #0xffa6, lsl #16
   5aa84:	b9400021 	ldr	w1, [x1]
   5aa88:	b9006c01 	str	w1, [x0, #108]
   5aa8c:	d2883001 	mov	x1, #0x4180                	// #16768
   5aa90:	f2bff4c1 	movk	x1, #0xffa6, lsl #16
   5aa94:	b9400021 	ldr	w1, [x1]
   5aa98:	b9007001 	str	w1, [x0, #112]
   5aa9c:	d2883081 	mov	x1, #0x4184                	// #16772
   5aaa0:	f2bff4c1 	movk	x1, #0xffa6, lsl #16
   5aaa4:	b9400021 	ldr	w1, [x1]
   5aaa8:	b9007401 	str	w1, [x0, #116]
   5aaac:	d2883101 	mov	x1, #0x4188                	// #16776
   5aab0:	f2bff4c1 	movk	x1, #0xffa6, lsl #16
   5aab4:	b9400021 	ldr	w1, [x1]
   5aab8:	b9007801 	str	w1, [x0, #120]
   5aabc:	d2883181 	mov	x1, #0x418c                	// #16780
   5aac0:	f2bff4c1 	movk	x1, #0xffa6, lsl #16
   5aac4:	b9400021 	ldr	w1, [x1]
   5aac8:	b9007c01 	str	w1, [x0, #124]
   5aacc:	d2883201 	mov	x1, #0x4190                	// #16784
   5aad0:	f2bff4c1 	movk	x1, #0xffa6, lsl #16
   5aad4:	b9400021 	ldr	w1, [x1]
   5aad8:	b9008001 	str	w1, [x0, #128]
   5aadc:	d2883281 	mov	x1, #0x4194                	// #16788
   5aae0:	f2bff4c1 	movk	x1, #0xffa6, lsl #16
   5aae4:	b9400021 	ldr	w1, [x1]
   5aae8:	b9008401 	str	w1, [x0, #132]
   5aaec:	d2883301 	mov	x1, #0x4198                	// #16792
   5aaf0:	f2bff4c1 	movk	x1, #0xffa6, lsl #16
   5aaf4:	b9400021 	ldr	w1, [x1]
   5aaf8:	b9008801 	str	w1, [x0, #136]
   5aafc:	d2882001 	mov	x1, #0x4100                	// #16640
   5ab00:	f2bff4c1 	movk	x1, #0xffa6, lsl #16
   5ab04:	b9400021 	ldr	w1, [x1]
   5ab08:	b9008c01 	str	w1, [x0, #140]
   5ab0c:	d2882081 	mov	x1, #0x4104                	// #16644
   5ab10:	f2bff4c1 	movk	x1, #0xffa6, lsl #16
   5ab14:	b9400021 	ldr	w1, [x1]
   5ab18:	b9009001 	str	w1, [x0, #144]
   5ab1c:	d2882101 	mov	x1, #0x4108                	// #16648
   5ab20:	f2bff4c1 	movk	x1, #0xffa6, lsl #16
   5ab24:	b9400021 	ldr	w1, [x1]
   5ab28:	b9009401 	str	w1, [x0, #148]
   5ab2c:	d2882181 	mov	x1, #0x410c                	// #16652
   5ab30:	f2bff4c1 	movk	x1, #0xffa6, lsl #16
   5ab34:	b9400021 	ldr	w1, [x1]
   5ab38:	b9009801 	str	w1, [x0, #152]
   5ab3c:	d2882201 	mov	x1, #0x4110                	// #16656
   5ab40:	f2bff4c1 	movk	x1, #0xffa6, lsl #16
   5ab44:	b9400021 	ldr	w1, [x1]
   5ab48:	b9009c01 	str	w1, [x0, #156]
   5ab4c:	d2882281 	mov	x1, #0x4114                	// #16660
   5ab50:	f2bff4c1 	movk	x1, #0xffa6, lsl #16
   5ab54:	b9400021 	ldr	w1, [x1]
   5ab58:	b900a001 	str	w1, [x0, #160]
   5ab5c:	d2882301 	mov	x1, #0x4118                	// #16664
   5ab60:	f2bff4c1 	movk	x1, #0xffa6, lsl #16
   5ab64:	b9400021 	ldr	w1, [x1]
   5ab68:	b900a401 	str	w1, [x0, #164]
   5ab6c:	d2881001 	mov	x1, #0x4080                	// #16512
   5ab70:	f2bff4c1 	movk	x1, #0xffa6, lsl #16
   5ab74:	b9400021 	ldr	w1, [x1]
   5ab78:	b900a801 	str	w1, [x0, #168]
   5ab7c:	d2881081 	mov	x1, #0x4084                	// #16516
   5ab80:	f2bff4c1 	movk	x1, #0xffa6, lsl #16
   5ab84:	b9400021 	ldr	w1, [x1]
   5ab88:	b900ac01 	str	w1, [x0, #172]
   5ab8c:	d2881101 	mov	x1, #0x4088                	// #16520
   5ab90:	f2bff4c1 	movk	x1, #0xffa6, lsl #16
   5ab94:	b9400021 	ldr	w1, [x1]
   5ab98:	b900b001 	str	w1, [x0, #176]
   5ab9c:	d2881181 	mov	x1, #0x408c                	// #16524
   5aba0:	f2bff4c1 	movk	x1, #0xffa6, lsl #16
   5aba4:	b9400021 	ldr	w1, [x1]
   5aba8:	b900b401 	str	w1, [x0, #180]
   5abac:	d2881201 	mov	x1, #0x4090                	// #16528
   5abb0:	f2bff4c1 	movk	x1, #0xffa6, lsl #16
   5abb4:	b9400021 	ldr	w1, [x1]
   5abb8:	b900b801 	str	w1, [x0, #184]
   5abbc:	d2881281 	mov	x1, #0x4094                	// #16532
   5abc0:	f2bff4c1 	movk	x1, #0xffa6, lsl #16
   5abc4:	b9400021 	ldr	w1, [x1]
   5abc8:	b900bc01 	str	w1, [x0, #188]
   5abcc:	d2881301 	mov	x1, #0x4098                	// #16536
   5abd0:	f2bff4c1 	movk	x1, #0xffa6, lsl #16
   5abd4:	b9400021 	ldr	w1, [x1]
   5abd8:	b900c001 	str	w1, [x0, #192]
   5abdc:	d2903001 	mov	x1, #0x8180                	// #33152
   5abe0:	f2bff5a1 	movk	x1, #0xffad, lsl #16
   5abe4:	b9400021 	ldr	w1, [x1]
   5abe8:	b9039c01 	str	w1, [x0, #924]
   5abec:	d2903081 	mov	x1, #0x8184                	// #33156
   5abf0:	f2bff5a1 	movk	x1, #0xffad, lsl #16
   5abf4:	b9400021 	ldr	w1, [x1]
   5abf8:	b903a001 	str	w1, [x0, #928]
   5abfc:	d2903101 	mov	x1, #0x8188                	// #33160
   5ac00:	f2bff5a1 	movk	x1, #0xffad, lsl #16
   5ac04:	b9400021 	ldr	w1, [x1]
   5ac08:	b903a401 	str	w1, [x0, #932]
   5ac0c:	d2903181 	mov	x1, #0x818c                	// #33164
   5ac10:	f2bff5a1 	movk	x1, #0xffad, lsl #16
   5ac14:	b9400021 	ldr	w1, [x1]
   5ac18:	b903a801 	str	w1, [x0, #936]
   5ac1c:	d2903201 	mov	x1, #0x8190                	// #33168
   5ac20:	f2bff5a1 	movk	x1, #0xffad, lsl #16
   5ac24:	b9400021 	ldr	w1, [x1]
   5ac28:	b903ac01 	str	w1, [x0, #940]
   5ac2c:	d2903281 	mov	x1, #0x8194                	// #33172
   5ac30:	f2bff5a1 	movk	x1, #0xffad, lsl #16
   5ac34:	b9400021 	ldr	w1, [x1]
   5ac38:	b903b001 	str	w1, [x0, #944]
   5ac3c:	d2903301 	mov	x1, #0x8198                	// #33176
   5ac40:	f2bff5a1 	movk	x1, #0xffad, lsl #16
   5ac44:	b9400021 	ldr	w1, [x1]
   5ac48:	b903b401 	str	w1, [x0, #948]
   5ac4c:	d2902001 	mov	x1, #0x8100                	// #33024
   5ac50:	f2bff5a1 	movk	x1, #0xffad, lsl #16
   5ac54:	b9400021 	ldr	w1, [x1]
   5ac58:	b903b801 	str	w1, [x0, #952]
   5ac5c:	d2902081 	mov	x1, #0x8104                	// #33028
   5ac60:	f2bff5a1 	movk	x1, #0xffad, lsl #16
   5ac64:	b9400021 	ldr	w1, [x1]
   5ac68:	b903bc01 	str	w1, [x0, #956]
   5ac6c:	d2902101 	mov	x1, #0x8108                	// #33032
   5ac70:	f2bff5a1 	movk	x1, #0xffad, lsl #16
   5ac74:	b9400021 	ldr	w1, [x1]
   5ac78:	b903c001 	str	w1, [x0, #960]
   5ac7c:	d2902181 	mov	x1, #0x810c                	// #33036
   5ac80:	f2bff5a1 	movk	x1, #0xffad, lsl #16
   5ac84:	b9400021 	ldr	w1, [x1]
   5ac88:	b903c401 	str	w1, [x0, #964]
   5ac8c:	d2902201 	mov	x1, #0x8110                	// #33040
   5ac90:	f2bff5a1 	movk	x1, #0xffad, lsl #16
   5ac94:	b9400021 	ldr	w1, [x1]
   5ac98:	b903c801 	str	w1, [x0, #968]
   5ac9c:	d2902281 	mov	x1, #0x8114                	// #33044
   5aca0:	f2bff5a1 	movk	x1, #0xffad, lsl #16
   5aca4:	b9400021 	ldr	w1, [x1]
   5aca8:	b903cc01 	str	w1, [x0, #972]
   5acac:	d2902301 	mov	x1, #0x8118                	// #33048
   5acb0:	f2bff5a1 	movk	x1, #0xffad, lsl #16
   5acb4:	b9400021 	ldr	w1, [x1]
   5acb8:	b903d001 	str	w1, [x0, #976]
   5acbc:	d2886001 	mov	x1, #0x4300                	// #17152
   5acc0:	f2bff4c1 	movk	x1, #0xffa6, lsl #16
   5acc4:	b9400021 	ldr	w1, [x1]
   5acc8:	b900e001 	str	w1, [x0, #224]
   5accc:	d2886081 	mov	x1, #0x4304                	// #17156
   5acd0:	f2bff4c1 	movk	x1, #0xffa6, lsl #16
   5acd4:	b9400021 	ldr	w1, [x1]
   5acd8:	b900e401 	str	w1, [x0, #228]
   5acdc:	d2886101 	mov	x1, #0x4308                	// #17160
   5ace0:	f2bff4c1 	movk	x1, #0xffa6, lsl #16
   5ace4:	b9400021 	ldr	w1, [x1]
   5ace8:	b900e801 	str	w1, [x0, #232]
   5acec:	d2886181 	mov	x1, #0x430c                	// #17164
   5acf0:	f2bff4c1 	movk	x1, #0xffa6, lsl #16
   5acf4:	b9400021 	ldr	w1, [x1]
   5acf8:	b900ec01 	str	w1, [x0, #236]
   5acfc:	d2886201 	mov	x1, #0x4310                	// #17168
   5ad00:	f2bff4c1 	movk	x1, #0xffa6, lsl #16
   5ad04:	b9400021 	ldr	w1, [x1]
   5ad08:	b900f001 	str	w1, [x0, #240]
   5ad0c:	d2886281 	mov	x1, #0x4314                	// #17172
   5ad10:	f2bff4c1 	movk	x1, #0xffa6, lsl #16
   5ad14:	b9400021 	ldr	w1, [x1]
   5ad18:	b900f401 	str	w1, [x0, #244]
   5ad1c:	d2886301 	mov	x1, #0x4318                	// #17176
   5ad20:	f2bff4c1 	movk	x1, #0xffa6, lsl #16
   5ad24:	b9400021 	ldr	w1, [x1]
   5ad28:	b900f801 	str	w1, [x0, #248]
   5ad2c:	52800220 	mov	w0, #0x11                  	// #17
   5ad30:	97fff8a4 	bl	58fc0 <pmu_power_domain_st>
   5ad34:	350003e0 	cbnz	w0, 5adb0 <rockchip_soc_sys_pwr_dm_suspend+0x1014>
   5ad38:	d2900000 	mov	x0, #0x8000                	// #32768
   5ad3c:	f2bff560 	movk	x0, #0xffab, lsl #16
   5ad40:	b9400001 	ldr	w1, [x0]
   5ad44:	d0000060 	adrp	x0, 68000 <dist_ctx+0x1e98>
   5ad48:	913f0000 	add	x0, x0, #0xfc0
   5ad4c:	b901f801 	str	w1, [x0, #504]
   5ad50:	d2900081 	mov	x1, #0x8004                	// #32772
   5ad54:	f2bff561 	movk	x1, #0xffab, lsl #16
   5ad58:	b9400021 	ldr	w1, [x1]
   5ad5c:	b901fc01 	str	w1, [x0, #508]
   5ad60:	d2900101 	mov	x1, #0x8008                	// #32776
   5ad64:	f2bff561 	movk	x1, #0xffab, lsl #16
   5ad68:	b9400021 	ldr	w1, [x1]
   5ad6c:	b9020001 	str	w1, [x0, #512]
   5ad70:	d2900181 	mov	x1, #0x800c                	// #32780
   5ad74:	f2bff561 	movk	x1, #0xffab, lsl #16
   5ad78:	b9400021 	ldr	w1, [x1]
   5ad7c:	b9020401 	str	w1, [x0, #516]
   5ad80:	d2900201 	mov	x1, #0x8010                	// #32784
   5ad84:	f2bff561 	movk	x1, #0xffab, lsl #16
   5ad88:	b9400021 	ldr	w1, [x1]
   5ad8c:	b9020801 	str	w1, [x0, #520]
   5ad90:	d2900281 	mov	x1, #0x8014                	// #32788
   5ad94:	f2bff561 	movk	x1, #0xffab, lsl #16
   5ad98:	b9400021 	ldr	w1, [x1]
   5ad9c:	b9020c01 	str	w1, [x0, #524]
   5ada0:	d2900301 	mov	x1, #0x8018                	// #32792
   5ada4:	f2bff561 	movk	x1, #0xffab, lsl #16
   5ada8:	b9400021 	ldr	w1, [x1]
   5adac:	b9021001 	str	w1, [x0, #528]
   5adb0:	52800200 	mov	w0, #0x10                  	// #16
   5adb4:	97fff883 	bl	58fc0 <pmu_power_domain_st>
   5adb8:	35000740 	cbnz	w0, 5aea0 <rockchip_soc_sys_pwr_dm_suspend+0x1104>
   5adbc:	d2bff580 	mov	x0, #0xffac0000            	// #4289462272
   5adc0:	b9400001 	ldr	w1, [x0]
   5adc4:	d0000060 	adrp	x0, 68000 <dist_ctx+0x1e98>
   5adc8:	913f0000 	add	x0, x0, #0xfc0
   5adcc:	b9021401 	str	w1, [x0, #532]
   5add0:	d2800081 	mov	x1, #0x4                   	// #4
   5add4:	f2bff581 	movk	x1, #0xffac, lsl #16
   5add8:	b9400021 	ldr	w1, [x1]
   5addc:	b9021801 	str	w1, [x0, #536]
   5ade0:	d2800101 	mov	x1, #0x8                   	// #8
   5ade4:	f2bff581 	movk	x1, #0xffac, lsl #16
   5ade8:	b9400021 	ldr	w1, [x1]
   5adec:	b9021c01 	str	w1, [x0, #540]
   5adf0:	d2800181 	mov	x1, #0xc                   	// #12
   5adf4:	f2bff581 	movk	x1, #0xffac, lsl #16
   5adf8:	b9400021 	ldr	w1, [x1]
   5adfc:	b9022001 	str	w1, [x0, #544]
   5ae00:	d2800201 	mov	x1, #0x10                  	// #16
   5ae04:	f2bff581 	movk	x1, #0xffac, lsl #16
   5ae08:	b9400021 	ldr	w1, [x1]
   5ae0c:	b9022401 	str	w1, [x0, #548]
   5ae10:	d2800281 	mov	x1, #0x14                  	// #20
   5ae14:	f2bff581 	movk	x1, #0xffac, lsl #16
   5ae18:	b9400021 	ldr	w1, [x1]
   5ae1c:	b9022801 	str	w1, [x0, #552]
   5ae20:	d2800301 	mov	x1, #0x18                  	// #24
   5ae24:	f2bff581 	movk	x1, #0xffac, lsl #16
   5ae28:	b9400021 	ldr	w1, [x1]
   5ae2c:	b9022c01 	str	w1, [x0, #556]
   5ae30:	d2801001 	mov	x1, #0x80                  	// #128
   5ae34:	f2bff581 	movk	x1, #0xffac, lsl #16
   5ae38:	b9400021 	ldr	w1, [x1]
   5ae3c:	b9023001 	str	w1, [x0, #560]
   5ae40:	d2801081 	mov	x1, #0x84                  	// #132
   5ae44:	f2bff581 	movk	x1, #0xffac, lsl #16
   5ae48:	b9400021 	ldr	w1, [x1]
   5ae4c:	b9023401 	str	w1, [x0, #564]
   5ae50:	d2801101 	mov	x1, #0x88                  	// #136
   5ae54:	f2bff581 	movk	x1, #0xffac, lsl #16
   5ae58:	b9400021 	ldr	w1, [x1]
   5ae5c:	b9023801 	str	w1, [x0, #568]
   5ae60:	d2801181 	mov	x1, #0x8c                  	// #140
   5ae64:	f2bff581 	movk	x1, #0xffac, lsl #16
   5ae68:	b9400021 	ldr	w1, [x1]
   5ae6c:	b9023c01 	str	w1, [x0, #572]
   5ae70:	d2801201 	mov	x1, #0x90                  	// #144
   5ae74:	f2bff581 	movk	x1, #0xffac, lsl #16
   5ae78:	b9400021 	ldr	w1, [x1]
   5ae7c:	b9024001 	str	w1, [x0, #576]
   5ae80:	d2801281 	mov	x1, #0x94                  	// #148
   5ae84:	f2bff581 	movk	x1, #0xffac, lsl #16
   5ae88:	b9400021 	ldr	w1, [x1]
   5ae8c:	b9024401 	str	w1, [x0, #580]
   5ae90:	d2801301 	mov	x1, #0x98                  	// #152
   5ae94:	f2bff581 	movk	x1, #0xffac, lsl #16
   5ae98:	b9400021 	ldr	w1, [x1]
   5ae9c:	b9024801 	str	w1, [x0, #584]
   5aea0:	d2800300 	mov	x0, #0x18                  	// #24
   5aea4:	d2800e13 	mov	x19, #0x70                  	// #112
   5aea8:	f2bfe620 	movk	x0, #0xff31, lsl #16
   5aeac:	f2bfe633 	movk	x19, #0xff31, lsl #16
   5aeb0:	b9400001 	ldr	w1, [x0]
   5aeb4:	d0000060 	adrp	x0, 68000 <dist_ctx+0x1e98>
   5aeb8:	b90fbc01 	str	w1, [x0, #4028]
   5aebc:	52800021 	mov	w1, #0x1                   	// #1
   5aec0:	528001e0 	mov	w0, #0xf                   	// #15
   5aec4:	97fff8d5 	bl	59218 <pmu_set_power_domain>
   5aec8:	52800021 	mov	w1, #0x1                   	// #1
   5aecc:	52800100 	mov	w0, #0x8                   	// #8
   5aed0:	97fff8d2 	bl	59218 <pmu_set_power_domain>
   5aed4:	52800021 	mov	w1, #0x1                   	// #1
   5aed8:	52800120 	mov	w0, #0x9                   	// #9
   5aedc:	97fff8cf 	bl	59218 <pmu_set_power_domain>
   5aee0:	52800021 	mov	w1, #0x1                   	// #1
   5aee4:	52800280 	mov	w0, #0x14                  	// #20
   5aee8:	97fff8cc 	bl	59218 <pmu_set_power_domain>
   5aeec:	52800021 	mov	w1, #0x1                   	// #1
   5aef0:	528002c0 	mov	w0, #0x16                  	// #22
   5aef4:	97fff8c9 	bl	59218 <pmu_set_power_domain>
   5aef8:	52800021 	mov	w1, #0x1                   	// #1
   5aefc:	528002e0 	mov	w0, #0x17                  	// #23
   5af00:	97fff8c6 	bl	59218 <pmu_set_power_domain>
   5af04:	52800021 	mov	w1, #0x1                   	// #1
   5af08:	52800300 	mov	w0, #0x18                  	// #24
   5af0c:	97fff8c3 	bl	59218 <pmu_set_power_domain>
   5af10:	52800021 	mov	w1, #0x1                   	// #1
   5af14:	528003e0 	mov	w0, #0x1f                  	// #31
   5af18:	97fff8c0 	bl	59218 <pmu_set_power_domain>
   5af1c:	52800021 	mov	w1, #0x1                   	// #1
   5af20:	52800320 	mov	w0, #0x19                  	// #25
   5af24:	97fff8bd 	bl	59218 <pmu_set_power_domain>
   5af28:	52800021 	mov	w1, #0x1                   	// #1
   5af2c:	52800380 	mov	w0, #0x1c                  	// #28
   5af30:	97fff8ba 	bl	59218 <pmu_set_power_domain>
   5af34:	52800021 	mov	w1, #0x1                   	// #1
   5af38:	52800260 	mov	w0, #0x13                  	// #19
   5af3c:	97fff8b7 	bl	59218 <pmu_set_power_domain>
   5af40:	52800021 	mov	w1, #0x1                   	// #1
   5af44:	52800240 	mov	w0, #0x12                  	// #18
   5af48:	97fff8b4 	bl	59218 <pmu_set_power_domain>
   5af4c:	52800021 	mov	w1, #0x1                   	// #1
   5af50:	52800200 	mov	w0, #0x10                  	// #16
   5af54:	97fff8b1 	bl	59218 <pmu_set_power_domain>
   5af58:	52800021 	mov	w1, #0x1                   	// #1
   5af5c:	52800220 	mov	w0, #0x11                  	// #17
   5af60:	97fff8ae 	bl	59218 <pmu_set_power_domain>
   5af64:	52800021 	mov	w1, #0x1                   	// #1
   5af68:	52800360 	mov	w0, #0x1b                  	// #27
   5af6c:	97fff8ab 	bl	59218 <pmu_set_power_domain>
   5af70:	52800021 	mov	w1, #0x1                   	// #1
   5af74:	52800340 	mov	w0, #0x1a                  	// #26
   5af78:	97fff8a8 	bl	59218 <pmu_set_power_domain>
   5af7c:	52800021 	mov	w1, #0x1                   	// #1
   5af80:	528001c0 	mov	w0, #0xe                   	// #14
   5af84:	97fff8a5 	bl	59218 <pmu_set_power_domain>
   5af88:	52800021 	mov	w1, #0x1                   	// #1
   5af8c:	528003c0 	mov	w0, #0x1e                  	// #30
   5af90:	97fff8a2 	bl	59218 <pmu_set_power_domain>
   5af94:	52800021 	mov	w1, #0x1                   	// #1
   5af98:	52800180 	mov	w0, #0xc                   	// #12
   5af9c:	97fff89f 	bl	59218 <pmu_set_power_domain>
   5afa0:	9400068f 	bl	5c9dc <clk_gate_con_restore>
   5afa4:	d2800b81 	mov	x1, #0x5c                  	// #92
   5afa8:	529c0042 	mov	w2, #0xe002                	// #57346
   5afac:	f2bfe621 	movk	x1, #0xff31, lsl #16
   5afb0:	72a143a2 	movk	w2, #0xa1d, lsl #16
   5afb4:	b9400020 	ldr	w0, [x1]
   5afb8:	2a020000 	orr	w0, w0, w2
   5afbc:	b9000020 	str	w0, [x1]
   5afc0:	940006a1 	bl	5ca44 <set_pmu_rsthold>
   5afc4:	d2806180 	mov	x0, #0x30c                 	// #780
   5afc8:	d0000061 	adrp	x1, 68000 <dist_ctx+0x1e98>
   5afcc:	f2bfeec0 	movk	x0, #0xff76, lsl #16
   5afd0:	b9400002 	ldr	w2, [x0]
   5afd4:	b90f7422 	str	w2, [x1, #3956]
   5afd8:	52a00041 	mov	w1, #0x20000               	// #131072
   5afdc:	b9000001 	str	w1, [x0]
   5afe0:	9400061e 	bl	5c858 <prepare_abpll_for_ddrctrl>
   5afe4:	52800020 	mov	w0, #0x1                   	// #1
   5afe8:	97ff944e 	bl	40120 <__sram_func_set_ddrctl_pll_veneer>
   5afec:	d29c4200 	mov	x0, #0xe210                	// #57872
   5aff0:	52a02001 	mov	w1, #0x1000000             	// #16777216
   5aff4:	f2bfeee0 	movk	x0, #0xff77, lsl #16
   5aff8:	b9000001 	str	w1, [x0]
   5affc:	d2800d80 	mov	x0, #0x6c                  	// #108
   5b000:	f2bfe620 	movk	x0, #0xff31, lsl #16
   5b004:	52801841 	mov	w1, #0xc2                  	// #194
   5b008:	72a01841 	movk	w1, #0xc2, lsl #16
   5b00c:	b9000001 	str	w1, [x0]
   5b010:	d2800201 	mov	x1, #0x10                  	// #16
   5b014:	f2bfe621 	movk	x1, #0xff31, lsl #16
   5b018:	32078be0 	mov	w0, #0xe000e00             	// #234884608
   5b01c:	b9000260 	str	w0, [x19]
   5b020:	b9400020 	ldr	w0, [x1]
   5b024:	321e0000 	orr	w0, w0, #0x4
   5b028:	b9000020 	str	w0, [x1]
   5b02c:	d2800400 	mov	x0, #0x20                  	// #32
   5b030:	529fefe1 	mov	w1, #0xff7f                	// #65407
   5b034:	f2bfe620 	movk	x0, #0xff31, lsl #16
   5b038:	72a39fe1 	movk	w1, #0x1cff, lsl #16
   5b03c:	b9000001 	str	w1, [x0]
   5b040:	d2800380 	mov	x0, #0x1c                  	// #28
   5b044:	f2bfe620 	movk	x0, #0xff31, lsl #16
   5b048:	52801fe1 	mov	w1, #0xff                  	// #255
   5b04c:	b9000001 	str	w1, [x0]
   5b050:	d2803000 	mov	x0, #0x180                 	// #384
   5b054:	f2bfe640 	movk	x0, #0xff32, lsl #16
   5b058:	52a00021 	mov	w1, #0x10000               	// #65536
   5b05c:	b9000001 	str	w1, [x0]
   5b060:	d2bfe640 	mov	x0, #0xff320000            	// #4281466880
   5b064:	52800041 	mov	w1, #0x2                   	// #2
   5b068:	72a00061 	movk	w1, #0x3, lsl #16
   5b06c:	b9000001 	str	w1, [x0]
   5b070:	d07f9aa0 	adrp	x0, ff3b1000 <rk3399m0pmu_bin>
   5b074:	91000000 	add	x0, x0, #0x0
   5b078:	97fff793 	bl	58ec4 <m0_configure_execute_addr>
   5b07c:	97fff79d 	bl	58ef0 <m0_start>
   5b080:	94000681 	bl	5ca84 <pmu_sgrf_rst_hld>
   5b084:	b07f9aa0 	adrp	x0, ff3b0000 <pmu_cpuson_entrypoint>
   5b088:	d2980081 	mov	x1, #0xc004                	// #49156
   5b08c:	91000000 	add	x0, x0, #0x0
   5b090:	f2bfe661 	movk	x1, #0xff33, lsl #16
   5b094:	d350fc00 	lsr	x0, x0, #16
   5b098:	32103c00 	orr	w0, w0, #0xffff0000
   5b09c:	b9000020 	str	w0, [x1]
   5b0a0:	320c8be0 	mov	w0, #0x700070              	// #7340144
   5b0a4:	b9000260 	str	w0, [x19]
   5b0a8:	d5033f9f 	dsb	sy
   5b0ac:	d2800e94 	mov	x20, #0x74                  	// #116
   5b0b0:	52807d13 	mov	w19, #0x3e8                 	// #1000
   5b0b4:	f2bfe634 	movk	x20, #0xff31, lsl #16
   5b0b8:	b9400280 	ldr	w0, [x20]
   5b0bc:	121c0800 	and	w0, w0, #0x70
   5b0c0:	7101c01f 	cmp	w0, #0x70
   5b0c4:	54001461 	b.ne	5b350 <rockchip_soc_sys_pwr_dm_suspend+0x15b4>  // b.any
   5b0c8:	d2800281 	mov	x1, #0x14                  	// #20
   5b0cc:	f2bfe621 	movk	x1, #0xff31, lsl #16
   5b0d0:	b9400020 	ldr	w0, [x1]
   5b0d4:	32190000 	orr	w0, w0, #0x80
   5b0d8:	b9000020 	str	w0, [x1]
   5b0dc:	97fffb01 	bl	59ce0 <wdt_register_save>
   5b0e0:	94000571 	bl	5c6a4 <secure_watchdog_gate>
   5b0e4:	940005c3 	bl	5c7f0 <disable_dvfs_plls>
   5b0e8:	94000503 	bl	5c4f4 <disable_pwms>
   5b0ec:	940005d4 	bl	5c83c <disable_nodvfs_plls>
   5b0f0:	97ffe0ba 	bl	533d8 <plat_get_rockchip_suspend_apio>
   5b0f4:	b4000da0 	cbz	x0, 5b2a8 <rockchip_soc_sys_pwr_dm_suspend+0x150c>
   5b0f8:	d29c0006 	mov	x6, #0xe000                	// #57344
   5b0fc:	b0000063 	adrp	x3, 68000 <dist_ctx+0x1e98>
   5b100:	d29c0805 	mov	x5, #0xe040                	// #57408
   5b104:	d0000062 	adrp	x2, 69000 <pmu_slpdata+0x40>
   5b108:	913e3063 	add	x3, x3, #0xf8c
   5b10c:	910ec042 	add	x2, x2, #0x3b0
   5b110:	d2800001 	mov	x1, #0x0                   	// #0
   5b114:	f2bfeee6 	movk	x6, #0xff77, lsl #16
   5b118:	f2bfeee5 	movk	x5, #0xff77, lsl #16
   5b11c:	b8666824 	ldr	w4, [x1, x6]
   5b120:	b8236824 	str	w4, [x1, x3]
   5b124:	b8656824 	ldr	w4, [x1, x5]
   5b128:	b8226824 	str	w4, [x1, x2]
   5b12c:	91001021 	add	x1, x1, #0x4
   5b130:	f100c03f 	cmp	x1, #0x30
   5b134:	54ffff41 	b.ne	5b11c <rockchip_soc_sys_pwr_dm_suspend+0x1380>  // b.any
   5b138:	d2806f82 	mov	x2, #0x37c                 	// #892
   5b13c:	b0000063 	adrp	x3, 68000 <dist_ctx+0x1e98>
   5b140:	f2bfeec2 	movk	x2, #0xff76, lsl #16
   5b144:	b9400041 	ldr	w1, [x2]
   5b148:	d3431421 	ubfx	x1, x1, #3, #3
   5b14c:	b90f7c61 	str	w1, [x3, #3964]
   5b150:	52a00701 	mov	w1, #0x380000              	// #3670016
   5b154:	b9000041 	str	w1, [x2]
   5b158:	d2800081 	mov	x1, #0x4                   	// #4
   5b15c:	b0000062 	adrp	x2, 68000 <dist_ctx+0x1e98>
   5b160:	f2bfef01 	movk	x1, #0xff78, lsl #16
   5b164:	b9400023 	ldr	w3, [x1]
   5b168:	913e0041 	add	x1, x2, #0xf80
   5b16c:	b90f8043 	str	w3, [x2, #3968]
   5b170:	d2900082 	mov	x2, #0x8004                	// #32772
   5b174:	f2bfef02 	movk	x2, #0xff78, lsl #16
   5b178:	b9400043 	ldr	w3, [x2]
   5b17c:	b9000423 	str	w3, [x1, #4]
   5b180:	d2800083 	mov	x3, #0x4                   	// #4
   5b184:	f2bfef23 	movk	x3, #0xff79, lsl #16
   5b188:	b9400063 	ldr	w3, [x3]
   5b18c:	b9000823 	str	w3, [x1, #8]
   5b190:	39400001 	ldrb	w1, [x0]
   5b194:	360001a1 	tbz	w1, #0, 5b1c8 <rockchip_soc_sys_pwr_dm_suspend+0x142c>
   5b198:	d29c0203 	mov	x3, #0xe010                	// #57360
   5b19c:	52bfffe0 	mov	w0, #0xffff0000            	// #-65536
   5b1a0:	f2bfeee3 	movk	x3, #0xff77, lsl #16
   5b1a4:	b9000060 	str	w0, [x3]
   5b1a8:	b9000460 	str	w0, [x3, #4]
   5b1ac:	b9000860 	str	w0, [x3, #8]
   5b1b0:	b9004060 	str	w0, [x3, #64]
   5b1b4:	b9004460 	str	w0, [x3, #68]
   5b1b8:	b9004860 	str	w0, [x3, #72]
   5b1bc:	b9400040 	ldr	w0, [x2]
   5b1c0:	12081c00 	and	w0, w0, #0xff000000
   5b1c4:	b9000040 	str	w0, [x2]
   5b1c8:	360801a1 	tbz	w1, #1, 5b1fc <rockchip_soc_sys_pwr_dm_suspend+0x1460>
   5b1cc:	d29c0002 	mov	x2, #0xe000                	// #57344
   5b1d0:	52bfffe0 	mov	w0, #0xffff0000            	// #-65536
   5b1d4:	f2bfeee2 	movk	x2, #0xff77, lsl #16
   5b1d8:	b9000040 	str	w0, [x2]
   5b1dc:	b9000440 	str	w0, [x2, #4]
   5b1e0:	b9004040 	str	w0, [x2, #64]
   5b1e4:	b9004440 	str	w0, [x2, #68]
   5b1e8:	d2800082 	mov	x2, #0x4                   	// #4
   5b1ec:	f2bfef02 	movk	x2, #0xff78, lsl #16
   5b1f0:	b9400040 	ldr	w0, [x2]
   5b1f4:	12134800 	and	w0, w0, #0xffffe000
   5b1f8:	b9000040 	str	w0, [x2]
   5b1fc:	361001a1 	tbz	w1, #2, 5b230 <rockchip_soc_sys_pwr_dm_suspend+0x1494>
   5b200:	d29c0102 	mov	x2, #0xe008                	// #57352
   5b204:	52bfffe0 	mov	w0, #0xffff0000            	// #-65536
   5b208:	f2bfeee2 	movk	x2, #0xff77, lsl #16
   5b20c:	b9000040 	str	w0, [x2]
   5b210:	b9000440 	str	w0, [x2, #4]
   5b214:	b9004040 	str	w0, [x2, #64]
   5b218:	b9004440 	str	w0, [x2, #68]
   5b21c:	d2800082 	mov	x2, #0x4                   	// #4
   5b220:	f2bfef02 	movk	x2, #0xff78, lsl #16
   5b224:	b9400040 	ldr	w0, [x2]
   5b228:	12034800 	and	w0, w0, #0xe000ffff
   5b22c:	b9000040 	str	w0, [x2]
   5b230:	361801a1 	tbz	w1, #3, 5b264 <rockchip_soc_sys_pwr_dm_suspend+0x14c8>
   5b234:	d29c0502 	mov	x2, #0xe028                	// #57384
   5b238:	52bfffe0 	mov	w0, #0xffff0000            	// #-65536
   5b23c:	f2bfeee2 	movk	x2, #0xff77, lsl #16
   5b240:	b9000040 	str	w0, [x2]
   5b244:	b9000440 	str	w0, [x2, #4]
   5b248:	b9004040 	str	w0, [x2, #64]
   5b24c:	b9004440 	str	w0, [x2, #68]
   5b250:	d2800082 	mov	x2, #0x4                   	// #4
   5b254:	f2bfef22 	movk	x2, #0xff79, lsl #16
   5b258:	b9400040 	ldr	w0, [x2]
   5b25c:	12014000 	and	w0, w0, #0x8000ffff
   5b260:	b9000040 	str	w0, [x2]
   5b264:	36200221 	tbz	w1, #4, 5b2a8 <rockchip_soc_sys_pwr_dm_suspend+0x150c>
   5b268:	d29c0381 	mov	x1, #0xe01c                	// #57372
   5b26c:	52bfffe0 	mov	w0, #0xffff0000            	// #-65536
   5b270:	f2bfeee1 	movk	x1, #0xff77, lsl #16
   5b274:	b9000020 	str	w0, [x1]
   5b278:	b9000420 	str	w0, [x1, #4]
   5b27c:	b9004020 	str	w0, [x1, #64]
   5b280:	b9004420 	str	w0, [x1, #68]
   5b284:	d2900081 	mov	x1, #0x8004                	// #32772
   5b288:	f2bfef01 	movk	x1, #0xff78, lsl #16
   5b28c:	b9400020 	ldr	w0, [x1]
   5b290:	12005c00 	and	w0, w0, #0xffffff
   5b294:	b9000020 	str	w0, [x1]
   5b298:	91402021 	add	x1, x1, #0x8, lsl #12
   5b29c:	b9400020 	ldr	w0, [x1]
   5b2a0:	12185c00 	and	w0, w0, #0xffffff00
   5b2a4:	b9000020 	str	w0, [x1]
   5b2a8:	9100f3e0 	add	x0, sp, #0x3c
   5b2ac:	97ffe045 	bl	533c0 <plat_get_rockchip_suspend_gpio>
   5b2b0:	91001013 	add	x19, x0, #0x4
   5b2b4:	52800014 	mov	w20, #0x0                   	// #0
   5b2b8:	b9403fe0 	ldr	w0, [sp, #60]
   5b2bc:	6b14001f 	cmp	w0, w20
   5b2c0:	54000628 	b.hi	5b384 <rockchip_soc_sys_pwr_dm_suspend+0x15e8>  // b.pmore
   5b2c4:	97fff947 	bl	597e0 <suspend_uart>
   5b2c8:	97fff9f2 	bl	59a90 <grf_register_save>
   5b2cc:	97fffa58 	bl	59c2c <cru_register_save>
   5b2d0:	97fff900 	bl	596d0 <sram_save>
   5b2d4:	97fff66d 	bl	58c88 <plat_rockchip_save_gpio>
   5b2d8:	52800000 	mov	w0, #0x0                   	// #0
   5b2dc:	a94153f3 	ldp	x19, x20, [sp, #16]
   5b2e0:	a9425bf5 	ldp	x21, x22, [sp, #32]
   5b2e4:	a8c47bfd 	ldp	x29, x30, [sp], #64
   5b2e8:	d65f03c0 	ret
   5b2ec:	97fff847 	bl	59408 <rk3399_flush_l2_b>
   5b2f0:	d2800f96 	mov	x22, #0x7c                  	// #124
   5b2f4:	d2800481 	mov	x1, #0x24                  	// #36
   5b2f8:	b0000034 	adrp	x20, 60000 <version_string+0x6c>
   5b2fc:	f2bfe621 	movk	x1, #0xff31, lsl #16
   5b300:	b0000035 	adrp	x21, 60000 <version_string+0x6c>
   5b304:	91097294 	add	x20, x20, #0x25c
   5b308:	910906b5 	add	x21, x21, #0x241
   5b30c:	b9400020 	ldr	w0, [x1]
   5b310:	52800013 	mov	w19, #0x0                   	// #0
   5b314:	f2bfe636 	movk	x22, #0xff31, lsl #16
   5b318:	32010000 	orr	w0, w0, #0x80000000
   5b31c:	b9000020 	str	w0, [x1]
   5b320:	b94002c0 	ldr	w0, [x22]
   5b324:	375f55e0 	tbnz	w0, #11, 59de0 <rockchip_soc_sys_pwr_dm_suspend+0x44>
   5b328:	11000673 	add	w19, w19, #0x1
   5b32c:	52800020 	mov	w0, #0x1                   	// #1
   5b330:	97ffd80b 	bl	5135c <udelay>
   5b334:	710f9e7f 	cmp	w19, #0x3e7
   5b338:	54ffff49 	b.ls	5b320 <rockchip_soc_sys_pwr_dm_suspend+0x1584>  // b.plast
   5b33c:	b94002c2 	ldr	w2, [x22]
   5b340:	aa1403e1 	mov	x1, x20
   5b344:	aa1503e0 	mov	x0, x21
   5b348:	940006d2 	bl	5ce90 <tf_log>
   5b34c:	17fffff5 	b	5b320 <rockchip_soc_sys_pwr_dm_suspend+0x1584>
   5b350:	71000673 	subs	w19, w19, #0x1
   5b354:	54000121 	b.ne	5b378 <rockchip_soc_sys_pwr_dm_suspend+0x15dc>  // b.any
   5b358:	b9400282 	ldr	w2, [x20]
   5b35c:	b0000021 	adrp	x1, 60000 <version_string+0x6c>
   5b360:	b0000020 	adrp	x0, 60000 <version_string+0x6c>
   5b364:	9109b021 	add	x1, x1, #0x26c
   5b368:	91090400 	add	x0, x0, #0x241
   5b36c:	940006c9 	bl	5ce90 <tf_log>
   5b370:	9400072f 	bl	5d02c <console_flush>
   5b374:	94000b41 	bl	5e078 <do_panic>
   5b378:	52800020 	mov	w0, #0x1                   	// #1
   5b37c:	97ffd7f8 	bl	5135c <udelay>
   5b380:	17ffff4e 	b	5b0b8 <rockchip_soc_sys_pwr_dm_suspend+0x131c>
   5b384:	385fc261 	ldurb	w1, [x19, #-4]
   5b388:	11000694 	add	w20, w20, #0x1
   5b38c:	b9400260 	ldr	w0, [x19]
   5b390:	97ffd831 	bl	51454 <gpio_set_value>
   5b394:	b8408660 	ldr	w0, [x19], #8
   5b398:	52800001 	mov	w1, #0x0                   	// #0
   5b39c:	97ffd829 	bl	51440 <gpio_set_direction>
   5b3a0:	52800020 	mov	w0, #0x1                   	// #1
   5b3a4:	97ffd7ee 	bl	5135c <udelay>
   5b3a8:	17ffffc4 	b	5b2b8 <rockchip_soc_sys_pwr_dm_suspend+0x151c>

000000000005b3ac <rockchip_soc_sys_pwr_dm_resume>:
   5b3ac:	a9bd7bfd 	stp	x29, x30, [sp, #-48]!
   5b3b0:	910003fd 	mov	x29, sp
   5b3b4:	a90153f3 	stp	x19, x20, [sp, #16]
   5b3b8:	97fff66c 	bl	58d68 <plat_rockchip_restore_gpio>
   5b3bc:	97fffa29 	bl	59c60 <cru_register_restore>
   5b3c0:	97fff9ea 	bl	59b68 <grf_register_restore>
   5b3c4:	97fffa5b 	bl	59d30 <wdt_register_restore>
   5b3c8:	97fff91f 	bl	59844 <resume_uart>
   5b3cc:	97ffe003 	bl	533d8 <plat_get_rockchip_suspend_apio>
   5b3d0:	b40004e0 	cbz	x0, 5b46c <rockchip_soc_sys_pwr_dm_resume+0xc0>
   5b3d4:	d0000063 	adrp	x3, 69000 <pmu_slpdata+0x40>
   5b3d8:	d29c0805 	mov	x5, #0xe040                	// #57408
   5b3dc:	b0000062 	adrp	x2, 68000 <dist_ctx+0x1e98>
   5b3e0:	d29c0004 	mov	x4, #0xe000                	// #57344
   5b3e4:	910ec063 	add	x3, x3, #0x3b0
   5b3e8:	913e3042 	add	x2, x2, #0xf8c
   5b3ec:	d2800000 	mov	x0, #0x0                   	// #0
   5b3f0:	f2bfeee5 	movk	x5, #0xff77, lsl #16
   5b3f4:	f2bfeee4 	movk	x4, #0xff77, lsl #16
   5b3f8:	b8636801 	ldr	w1, [x0, x3]
   5b3fc:	32103c21 	orr	w1, w1, #0xffff0000
   5b400:	b8256801 	str	w1, [x0, x5]
   5b404:	b8626801 	ldr	w1, [x0, x2]
   5b408:	32103c21 	orr	w1, w1, #0xffff0000
   5b40c:	b8246801 	str	w1, [x0, x4]
   5b410:	91001000 	add	x0, x0, #0x4
   5b414:	f100c01f 	cmp	x0, #0x30
   5b418:	54ffff01 	b.ne	5b3f8 <rockchip_soc_sys_pwr_dm_resume+0x4c>  // b.any
   5b41c:	b0000061 	adrp	x1, 68000 <dist_ctx+0x1e98>
   5b420:	913e0020 	add	x0, x1, #0xf80
   5b424:	b94f8022 	ldr	w2, [x1, #3968]
   5b428:	d2800081 	mov	x1, #0x4                   	// #4
   5b42c:	f2bfef01 	movk	x1, #0xff78, lsl #16
   5b430:	b9000022 	str	w2, [x1]
   5b434:	91402021 	add	x1, x1, #0x8, lsl #12
   5b438:	b9400402 	ldr	w2, [x0, #4]
   5b43c:	b9000022 	str	w2, [x1]
   5b440:	b9400801 	ldr	w1, [x0, #8]
   5b444:	d2800080 	mov	x0, #0x4                   	// #4
   5b448:	f2bfef20 	movk	x0, #0xff79, lsl #16
   5b44c:	b9000001 	str	w1, [x0]
   5b450:	b0000060 	adrp	x0, 68000 <dist_ctx+0x1e98>
   5b454:	d2806f81 	mov	x1, #0x37c                 	// #892
   5b458:	b94f7c00 	ldr	w0, [x0, #3964]
   5b45c:	f2bfeec1 	movk	x1, #0xff76, lsl #16
   5b460:	531d7000 	lsl	w0, w0, #3
   5b464:	320d0800 	orr	w0, w0, #0x380000
   5b468:	b9000020 	str	w0, [x1]
   5b46c:	9100b3e0 	add	x0, sp, #0x2c
   5b470:	97ffdfd4 	bl	533c0 <plat_get_rockchip_suspend_gpio>
   5b474:	b9402ff4 	ldr	w20, [sp, #44]
   5b478:	51000694 	sub	w20, w20, #0x1
   5b47c:	8b34cc13 	add	x19, x0, w20, sxtw #3
   5b480:	36f86894 	tbz	w20, #31, 5c190 <rockchip_soc_sys_pwr_dm_resume+0xde4>
   5b484:	94000599 	bl	5cae8 <enable_nodvfs_plls>
   5b488:	9400045a 	bl	5c5f0 <enable_pwms>
   5b48c:	52802580 	mov	w0, #0x12c                 	// #300
   5b490:	97ffd7b3 	bl	5135c <udelay>
   5b494:	94000581 	bl	5ca98 <enable_dvfs_plls>
   5b498:	94000495 	bl	5c6ec <secure_sgrf_init>
   5b49c:	940004ac 	bl	5c74c <secure_sgrf_ddr_rgn_init>
   5b4a0:	b0000060 	adrp	x0, 68000 <dist_ctx+0x1e98>
   5b4a4:	d2806181 	mov	x1, #0x30c                 	// #780
   5b4a8:	f2bfeec1 	movk	x1, #0xff76, lsl #16
   5b4ac:	b94f7400 	ldr	w0, [x0, #3956]
   5b4b0:	32101c00 	orr	w0, w0, #0xff0000
   5b4b4:	b9000020 	str	w0, [x1]
   5b4b8:	d2800b00 	mov	x0, #0x58                  	// #88
   5b4bc:	12800001 	mov	w1, #0xffffffff            	// #-1
   5b4c0:	f2bfe620 	movk	x0, #0xff31, lsl #16
   5b4c4:	b9000001 	str	w1, [x0]
   5b4c8:	d2800200 	mov	x0, #0x10                  	// #16
   5b4cc:	f2bfe620 	movk	x0, #0xff31, lsl #16
   5b4d0:	d2980081 	mov	x1, #0xc004                	// #49156
   5b4d4:	f2bfe661 	movk	x1, #0xff33, lsl #16
   5b4d8:	b900001f 	str	wzr, [x0]
   5b4dc:	b0000060 	adrp	x0, 68000 <dist_ctx+0x1e98>
   5b4e0:	795ef400 	ldrh	w0, [x0, #3962]
   5b4e4:	32103c00 	orr	w0, w0, #0xffff0000
   5b4e8:	b9000020 	str	w0, [x1]
   5b4ec:	d2800d80 	mov	x0, #0x6c                  	// #108
   5b4f0:	52a01841 	mov	w1, #0xc20000              	// #12713984
   5b4f4:	f2bfe620 	movk	x0, #0xff31, lsl #16
   5b4f8:	b9000001 	str	w1, [x0]
   5b4fc:	d5033f9f 	dsb	sy
   5b500:	d2800281 	mov	x1, #0x14                  	// #20
   5b504:	d2800e94 	mov	x20, #0x74                  	// #116
   5b508:	f2bfe621 	movk	x1, #0xff31, lsl #16
   5b50c:	52807d13 	mov	w19, #0x3e8                 	// #1000
   5b510:	f2bfe634 	movk	x20, #0xff31, lsl #16
   5b514:	b9400020 	ldr	w0, [x1]
   5b518:	12187800 	and	w0, w0, #0xffffff7f
   5b51c:	b9000020 	str	w0, [x1]
   5b520:	d2800e00 	mov	x0, #0x70                  	// #112
   5b524:	52a1ce01 	mov	w1, #0xe700000             	// #242221056
   5b528:	f2bfe620 	movk	x0, #0xff31, lsl #16
   5b52c:	b9000001 	str	w1, [x0]
   5b530:	b9400280 	ldr	w0, [x20]
   5b534:	721c081f 	tst	w0, #0x70
   5b538:	54006461 	b.ne	5c1c4 <rockchip_soc_sys_pwr_dm_resume+0xe18>  // b.any
   5b53c:	d2800481 	mov	x1, #0x24                  	// #36
   5b540:	b0000073 	adrp	x19, 68000 <dist_ctx+0x1e98>
   5b544:	f2bfe621 	movk	x1, #0xff31, lsl #16
   5b548:	b9400020 	ldr	w0, [x1]
   5b54c:	12007800 	and	w0, w0, #0x7fffffff
   5b550:	b9000020 	str	w0, [x1]
   5b554:	940004f9 	bl	5c938 <clk_gate_con_save>
   5b558:	94000513 	bl	5c9a4 <clk_gate_con_disable>
   5b55c:	b94fbe60 	ldr	w0, [x19, #4028]
   5b560:	37880080 	tbnz	w0, #17, 5b570 <rockchip_soc_sys_pwr_dm_resume+0x1c4>
   5b564:	52800001 	mov	w1, #0x0                   	// #0
   5b568:	52800220 	mov	w0, #0x11                  	// #17
   5b56c:	97fff72b 	bl	59218 <pmu_set_power_domain>
   5b570:	b94fbe60 	ldr	w0, [x19, #4028]
   5b574:	37800080 	tbnz	w0, #16, 5b584 <rockchip_soc_sys_pwr_dm_resume+0x1d8>
   5b578:	52800001 	mov	w1, #0x0                   	// #0
   5b57c:	52800200 	mov	w0, #0x10                  	// #16
   5b580:	97fff726 	bl	59218 <pmu_set_power_domain>
   5b584:	b94fbe60 	ldr	w0, [x19, #4028]
   5b588:	37900080 	tbnz	w0, #18, 5b598 <rockchip_soc_sys_pwr_dm_resume+0x1ec>
   5b58c:	52800001 	mov	w1, #0x0                   	// #0
   5b590:	52800240 	mov	w0, #0x12                  	// #18
   5b594:	97fff721 	bl	59218 <pmu_set_power_domain>
   5b598:	b94fbe60 	ldr	w0, [x19, #4028]
   5b59c:	37980080 	tbnz	w0, #19, 5b5ac <rockchip_soc_sys_pwr_dm_resume+0x200>
   5b5a0:	52800001 	mov	w1, #0x0                   	// #0
   5b5a4:	52800260 	mov	w0, #0x13                  	// #19
   5b5a8:	97fff71c 	bl	59218 <pmu_set_power_domain>
   5b5ac:	b94fbe60 	ldr	w0, [x19, #4028]
   5b5b0:	37e00080 	tbnz	w0, #28, 5b5c0 <rockchip_soc_sys_pwr_dm_resume+0x214>
   5b5b4:	52800001 	mov	w1, #0x0                   	// #0
   5b5b8:	52800380 	mov	w0, #0x1c                  	// #28
   5b5bc:	97fff717 	bl	59218 <pmu_set_power_domain>
   5b5c0:	b94fbe60 	ldr	w0, [x19, #4028]
   5b5c4:	37c80080 	tbnz	w0, #25, 5b5d4 <rockchip_soc_sys_pwr_dm_resume+0x228>
   5b5c8:	52800001 	mov	w1, #0x0                   	// #0
   5b5cc:	52800320 	mov	w0, #0x19                  	// #25
   5b5d0:	97fff712 	bl	59218 <pmu_set_power_domain>
   5b5d4:	b94fbe60 	ldr	w0, [x19, #4028]
   5b5d8:	37f80080 	tbnz	w0, #31, 5b5e8 <rockchip_soc_sys_pwr_dm_resume+0x23c>
   5b5dc:	52800001 	mov	w1, #0x0                   	// #0
   5b5e0:	528003e0 	mov	w0, #0x1f                  	// #31
   5b5e4:	97fff70d 	bl	59218 <pmu_set_power_domain>
   5b5e8:	b94fbe60 	ldr	w0, [x19, #4028]
   5b5ec:	37c00080 	tbnz	w0, #24, 5b5fc <rockchip_soc_sys_pwr_dm_resume+0x250>
   5b5f0:	52800001 	mov	w1, #0x0                   	// #0
   5b5f4:	52800300 	mov	w0, #0x18                  	// #24
   5b5f8:	97fff708 	bl	59218 <pmu_set_power_domain>
   5b5fc:	b94fbe60 	ldr	w0, [x19, #4028]
   5b600:	37b80080 	tbnz	w0, #23, 5b610 <rockchip_soc_sys_pwr_dm_resume+0x264>
   5b604:	52800001 	mov	w1, #0x0                   	// #0
   5b608:	528002e0 	mov	w0, #0x17                  	// #23
   5b60c:	97fff703 	bl	59218 <pmu_set_power_domain>
   5b610:	b94fbe60 	ldr	w0, [x19, #4028]
   5b614:	37b00080 	tbnz	w0, #22, 5b624 <rockchip_soc_sys_pwr_dm_resume+0x278>
   5b618:	52800001 	mov	w1, #0x0                   	// #0
   5b61c:	528002c0 	mov	w0, #0x16                  	// #22
   5b620:	97fff6fe 	bl	59218 <pmu_set_power_domain>
   5b624:	b94fbe60 	ldr	w0, [x19, #4028]
   5b628:	37a00080 	tbnz	w0, #20, 5b638 <rockchip_soc_sys_pwr_dm_resume+0x28c>
   5b62c:	52800001 	mov	w1, #0x0                   	// #0
   5b630:	52800280 	mov	w0, #0x14                  	// #20
   5b634:	97fff6f9 	bl	59218 <pmu_set_power_domain>
   5b638:	b94fbe60 	ldr	w0, [x19, #4028]
   5b63c:	37480080 	tbnz	w0, #9, 5b64c <rockchip_soc_sys_pwr_dm_resume+0x2a0>
   5b640:	52800001 	mov	w1, #0x0                   	// #0
   5b644:	52800120 	mov	w0, #0x9                   	// #9
   5b648:	97fff6f4 	bl	59218 <pmu_set_power_domain>
   5b64c:	b94fbe60 	ldr	w0, [x19, #4028]
   5b650:	37400080 	tbnz	w0, #8, 5b660 <rockchip_soc_sys_pwr_dm_resume+0x2b4>
   5b654:	52800001 	mov	w1, #0x0                   	// #0
   5b658:	52800100 	mov	w0, #0x8                   	// #8
   5b65c:	97fff6ef 	bl	59218 <pmu_set_power_domain>
   5b660:	b94fbe60 	ldr	w0, [x19, #4028]
   5b664:	37780080 	tbnz	w0, #15, 5b674 <rockchip_soc_sys_pwr_dm_resume+0x2c8>
   5b668:	52800001 	mov	w1, #0x0                   	// #0
   5b66c:	528001e0 	mov	w0, #0xf                   	// #15
   5b670:	97fff6ea 	bl	59218 <pmu_set_power_domain>
   5b674:	b94fbe60 	ldr	w0, [x19, #4028]
   5b678:	37d80080 	tbnz	w0, #27, 5b688 <rockchip_soc_sys_pwr_dm_resume+0x2dc>
   5b67c:	52800001 	mov	w1, #0x0                   	// #0
   5b680:	52800360 	mov	w0, #0x1b                  	// #27
   5b684:	97fff6e5 	bl	59218 <pmu_set_power_domain>
   5b688:	b94fbe60 	ldr	w0, [x19, #4028]
   5b68c:	37d00080 	tbnz	w0, #26, 5b69c <rockchip_soc_sys_pwr_dm_resume+0x2f0>
   5b690:	52800001 	mov	w1, #0x0                   	// #0
   5b694:	52800340 	mov	w0, #0x1a                  	// #26
   5b698:	97fff6e0 	bl	59218 <pmu_set_power_domain>
   5b69c:	b94fbe60 	ldr	w0, [x19, #4028]
   5b6a0:	37700080 	tbnz	w0, #14, 5b6b0 <rockchip_soc_sys_pwr_dm_resume+0x304>
   5b6a4:	52800001 	mov	w1, #0x0                   	// #0
   5b6a8:	528001c0 	mov	w0, #0xe                   	// #14
   5b6ac:	97fff6db 	bl	59218 <pmu_set_power_domain>
   5b6b0:	b94fbe60 	ldr	w0, [x19, #4028]
   5b6b4:	37f00080 	tbnz	w0, #30, 5b6c4 <rockchip_soc_sys_pwr_dm_resume+0x318>
   5b6b8:	52800001 	mov	w1, #0x0                   	// #0
   5b6bc:	528003c0 	mov	w0, #0x1e                  	// #30
   5b6c0:	97fff6d6 	bl	59218 <pmu_set_power_domain>
   5b6c4:	b94fbe60 	ldr	w0, [x19, #4028]
   5b6c8:	37600080 	tbnz	w0, #12, 5b6d8 <rockchip_soc_sys_pwr_dm_resume+0x32c>
   5b6cc:	52800001 	mov	w1, #0x0                   	// #0
   5b6d0:	52800180 	mov	w0, #0xc                   	// #12
   5b6d4:	97fff6d1 	bl	59218 <pmu_set_power_domain>
   5b6d8:	528001e0 	mov	w0, #0xf                   	// #15
   5b6dc:	97fff639 	bl	58fc0 <pmu_power_domain_st>
   5b6e0:	35000280 	cbnz	w0, 5b730 <rockchip_soc_sys_pwr_dm_resume+0x384>
   5b6e4:	b0000060 	adrp	x0, 68000 <dist_ctx+0x1e98>
   5b6e8:	913f0000 	add	x0, x0, #0xfc0
   5b6ec:	d2bff5c1 	mov	x1, #0xffae0000            	// #4289593344
   5b6f0:	b941dc02 	ldr	w2, [x0, #476]
   5b6f4:	b9000022 	str	w2, [x1]
   5b6f8:	b941e002 	ldr	w2, [x0, #480]
   5b6fc:	b9000422 	str	w2, [x1, #4]
   5b700:	b941e402 	ldr	w2, [x0, #484]
   5b704:	b9000822 	str	w2, [x1, #8]
   5b708:	b941e802 	ldr	w2, [x0, #488]
   5b70c:	b9000c22 	str	w2, [x1, #12]
   5b710:	b941ec02 	ldr	w2, [x0, #492]
   5b714:	b9001022 	str	w2, [x1, #16]
   5b718:	b941f002 	ldr	w2, [x0, #496]
   5b71c:	b9001422 	str	w2, [x1, #20]
   5b720:	b941f401 	ldr	w1, [x0, #500]
   5b724:	d2800300 	mov	x0, #0x18                  	// #24
   5b728:	f2bff5c0 	movk	x0, #0xffae, lsl #16
   5b72c:	b9000001 	str	w1, [x0]
   5b730:	528002c0 	mov	w0, #0x16                  	// #22
   5b734:	97fff623 	bl	58fc0 <pmu_power_domain_st>
   5b738:	35000440 	cbnz	w0, 5b7c0 <rockchip_soc_sys_pwr_dm_resume+0x414>
   5b73c:	b0000060 	adrp	x0, 68000 <dist_ctx+0x1e98>
   5b740:	913f0000 	add	x0, x0, #0xfc0
   5b744:	d2bff541 	mov	x1, #0xffaa0000            	// #4289331200
   5b748:	b9432c02 	ldr	w2, [x0, #812]
   5b74c:	b9000022 	str	w2, [x1]
   5b750:	b9433002 	ldr	w2, [x0, #816]
   5b754:	b9000422 	str	w2, [x1, #4]
   5b758:	b9433402 	ldr	w2, [x0, #820]
   5b75c:	b9000822 	str	w2, [x1, #8]
   5b760:	b9433802 	ldr	w2, [x0, #824]
   5b764:	b9000c22 	str	w2, [x1, #12]
   5b768:	b9433c02 	ldr	w2, [x0, #828]
   5b76c:	b9001022 	str	w2, [x1, #16]
   5b770:	b9434002 	ldr	w2, [x0, #832]
   5b774:	b9001422 	str	w2, [x1, #20]
   5b778:	b9434402 	ldr	w2, [x0, #836]
   5b77c:	b9001822 	str	w2, [x1, #24]
   5b780:	b9434802 	ldr	w2, [x0, #840]
   5b784:	b9008022 	str	w2, [x1, #128]
   5b788:	b9434c02 	ldr	w2, [x0, #844]
   5b78c:	b9008422 	str	w2, [x1, #132]
   5b790:	b9435002 	ldr	w2, [x0, #848]
   5b794:	b9008822 	str	w2, [x1, #136]
   5b798:	b9435402 	ldr	w2, [x0, #852]
   5b79c:	b9008c22 	str	w2, [x1, #140]
   5b7a0:	b9435802 	ldr	w2, [x0, #856]
   5b7a4:	b9009022 	str	w2, [x1, #144]
   5b7a8:	b9435c02 	ldr	w2, [x0, #860]
   5b7ac:	b9009422 	str	w2, [x1, #148]
   5b7b0:	b9436001 	ldr	w1, [x0, #864]
   5b7b4:	d2801300 	mov	x0, #0x98                  	// #152
   5b7b8:	f2bff540 	movk	x0, #0xffaa, lsl #16
   5b7bc:	b9000001 	str	w1, [x0]
   5b7c0:	528002e0 	mov	w0, #0x17                  	// #23
   5b7c4:	97fff5ff 	bl	58fc0 <pmu_power_domain_st>
   5b7c8:	35000460 	cbnz	w0, 5b854 <rockchip_soc_sys_pwr_dm_resume+0x4a8>
   5b7cc:	b0000060 	adrp	x0, 68000 <dist_ctx+0x1e98>
   5b7d0:	913f0000 	add	x0, x0, #0xfc0
   5b7d4:	d2900001 	mov	x1, #0x8000                	// #32768
   5b7d8:	f2bff541 	movk	x1, #0xffaa, lsl #16
   5b7dc:	b942f402 	ldr	w2, [x0, #756]
   5b7e0:	b9000022 	str	w2, [x1]
   5b7e4:	b942f802 	ldr	w2, [x0, #760]
   5b7e8:	b9000422 	str	w2, [x1, #4]
   5b7ec:	b942fc02 	ldr	w2, [x0, #764]
   5b7f0:	b9000822 	str	w2, [x1, #8]
   5b7f4:	b9430002 	ldr	w2, [x0, #768]
   5b7f8:	b9000c22 	str	w2, [x1, #12]
   5b7fc:	b9430402 	ldr	w2, [x0, #772]
   5b800:	b9001022 	str	w2, [x1, #16]
   5b804:	b9430802 	ldr	w2, [x0, #776]
   5b808:	b9001422 	str	w2, [x1, #20]
   5b80c:	b9430c02 	ldr	w2, [x0, #780]
   5b810:	b9001822 	str	w2, [x1, #24]
   5b814:	b9431002 	ldr	w2, [x0, #784]
   5b818:	b9008022 	str	w2, [x1, #128]
   5b81c:	b9431402 	ldr	w2, [x0, #788]
   5b820:	b9008422 	str	w2, [x1, #132]
   5b824:	b9431802 	ldr	w2, [x0, #792]
   5b828:	b9008822 	str	w2, [x1, #136]
   5b82c:	b9431c02 	ldr	w2, [x0, #796]
   5b830:	b9008c22 	str	w2, [x1, #140]
   5b834:	b9432002 	ldr	w2, [x0, #800]
   5b838:	b9009022 	str	w2, [x1, #144]
   5b83c:	b9432402 	ldr	w2, [x0, #804]
   5b840:	b9009422 	str	w2, [x1, #148]
   5b844:	b9432801 	ldr	w1, [x0, #808]
   5b848:	d2901300 	mov	x0, #0x8098                	// #32920
   5b84c:	f2bff540 	movk	x0, #0xffaa, lsl #16
   5b850:	b9000001 	str	w1, [x0]
   5b854:	52800280 	mov	w0, #0x14                  	// #20
   5b858:	97fff5da 	bl	58fc0 <pmu_power_domain_st>
   5b85c:	35000640 	cbnz	w0, 5b924 <rockchip_soc_sys_pwr_dm_resume+0x578>
   5b860:	b0000060 	adrp	x0, 68000 <dist_ctx+0x1e98>
   5b864:	913f0000 	add	x0, x0, #0xfc0
   5b868:	d2900001 	mov	x1, #0x8000                	// #32768
   5b86c:	f2bff581 	movk	x1, #0xffac, lsl #16
   5b870:	b9428402 	ldr	w2, [x0, #644]
   5b874:	b9000022 	str	w2, [x1]
   5b878:	b9428802 	ldr	w2, [x0, #648]
   5b87c:	b9000422 	str	w2, [x1, #4]
   5b880:	b9428c02 	ldr	w2, [x0, #652]
   5b884:	b9000822 	str	w2, [x1, #8]
   5b888:	b9429002 	ldr	w2, [x0, #656]
   5b88c:	b9000c22 	str	w2, [x1, #12]
   5b890:	b9429402 	ldr	w2, [x0, #660]
   5b894:	b9001022 	str	w2, [x1, #16]
   5b898:	b9429802 	ldr	w2, [x0, #664]
   5b89c:	b9001422 	str	w2, [x1, #20]
   5b8a0:	b9429c02 	ldr	w2, [x0, #668]
   5b8a4:	b9001822 	str	w2, [x1, #24]
   5b8a8:	b942a002 	ldr	w2, [x0, #672]
   5b8ac:	b9008022 	str	w2, [x1, #128]
   5b8b0:	b942a402 	ldr	w2, [x0, #676]
   5b8b4:	b9008422 	str	w2, [x1, #132]
   5b8b8:	b942a802 	ldr	w2, [x0, #680]
   5b8bc:	b9008822 	str	w2, [x1, #136]
   5b8c0:	b942ac02 	ldr	w2, [x0, #684]
   5b8c4:	b9008c22 	str	w2, [x1, #140]
   5b8c8:	b942b002 	ldr	w2, [x0, #688]
   5b8cc:	b9009022 	str	w2, [x1, #144]
   5b8d0:	b942b402 	ldr	w2, [x0, #692]
   5b8d4:	b9009422 	str	w2, [x1, #148]
   5b8d8:	b942b802 	ldr	w2, [x0, #696]
   5b8dc:	b9009822 	str	w2, [x1, #152]
   5b8e0:	d2bff5a1 	mov	x1, #0xffad0000            	// #4289527808
   5b8e4:	b942bc02 	ldr	w2, [x0, #700]
   5b8e8:	b9000022 	str	w2, [x1]
   5b8ec:	b942c002 	ldr	w2, [x0, #704]
   5b8f0:	b9000422 	str	w2, [x1, #4]
   5b8f4:	b942c402 	ldr	w2, [x0, #708]
   5b8f8:	b9000822 	str	w2, [x1, #8]
   5b8fc:	b942c802 	ldr	w2, [x0, #712]
   5b900:	b9000c22 	str	w2, [x1, #12]
   5b904:	b942cc02 	ldr	w2, [x0, #716]
   5b908:	b9001022 	str	w2, [x1, #16]
   5b90c:	b942d002 	ldr	w2, [x0, #720]
   5b910:	b9001422 	str	w2, [x1, #20]
   5b914:	b942d401 	ldr	w1, [x0, #724]
   5b918:	d2800300 	mov	x0, #0x18                  	// #24
   5b91c:	f2bff5a0 	movk	x0, #0xffad, lsl #16
   5b920:	b9000001 	str	w1, [x0]
   5b924:	52800300 	mov	w0, #0x18                  	// #24
   5b928:	97fff5a6 	bl	58fc0 <pmu_power_domain_st>
   5b92c:	35000280 	cbnz	w0, 5b97c <rockchip_soc_sys_pwr_dm_resume+0x5d0>
   5b930:	b0000060 	adrp	x0, 68000 <dist_ctx+0x1e98>
   5b934:	913f0000 	add	x0, x0, #0xfc0
   5b938:	d2bff521 	mov	x1, #0xffa90000            	// #4289265664
   5b93c:	b9436402 	ldr	w2, [x0, #868]
   5b940:	b9000022 	str	w2, [x1]
   5b944:	b9436802 	ldr	w2, [x0, #872]
   5b948:	b9000422 	str	w2, [x1, #4]
   5b94c:	b9436c02 	ldr	w2, [x0, #876]
   5b950:	b9000822 	str	w2, [x1, #8]
   5b954:	b9437002 	ldr	w2, [x0, #880]
   5b958:	b9000c22 	str	w2, [x1, #12]
   5b95c:	b9437402 	ldr	w2, [x0, #884]
   5b960:	b9001022 	str	w2, [x1, #16]
   5b964:	b9437802 	ldr	w2, [x0, #888]
   5b968:	b9001422 	str	w2, [x1, #20]
   5b96c:	b9437c01 	ldr	w1, [x0, #892]
   5b970:	d2800300 	mov	x0, #0x18                  	// #24
   5b974:	f2bff520 	movk	x0, #0xffa9, lsl #16
   5b978:	b9000001 	str	w1, [x0]
   5b97c:	52800320 	mov	w0, #0x19                  	// #25
   5b980:	97fff590 	bl	58fc0 <pmu_power_domain_st>
   5b984:	350002a0 	cbnz	w0, 5b9d8 <rockchip_soc_sys_pwr_dm_resume+0x62c>
   5b988:	b0000060 	adrp	x0, 68000 <dist_ctx+0x1e98>
   5b98c:	913f0000 	add	x0, x0, #0xfc0
   5b990:	d2980001 	mov	x1, #0xc000                	// #49152
   5b994:	f2bff4a1 	movk	x1, #0xffa5, lsl #16
   5b998:	b9413402 	ldr	w2, [x0, #308]
   5b99c:	b9000022 	str	w2, [x1]
   5b9a0:	b9413802 	ldr	w2, [x0, #312]
   5b9a4:	b9000422 	str	w2, [x1, #4]
   5b9a8:	b9413c02 	ldr	w2, [x0, #316]
   5b9ac:	b9000822 	str	w2, [x1, #8]
   5b9b0:	b9414002 	ldr	w2, [x0, #320]
   5b9b4:	b9000c22 	str	w2, [x1, #12]
   5b9b8:	b9414402 	ldr	w2, [x0, #324]
   5b9bc:	b9001022 	str	w2, [x1, #16]
   5b9c0:	b9414802 	ldr	w2, [x0, #328]
   5b9c4:	b9001422 	str	w2, [x1, #20]
   5b9c8:	b9414c01 	ldr	w1, [x0, #332]
   5b9cc:	d2980300 	mov	x0, #0xc018                	// #49176
   5b9d0:	f2bff4a0 	movk	x0, #0xffa5, lsl #16
   5b9d4:	b9000001 	str	w1, [x0]
   5b9d8:	52800140 	mov	w0, #0xa                   	// #10
   5b9dc:	97fff579 	bl	58fc0 <pmu_power_domain_st>
   5b9e0:	35000480 	cbnz	w0, 5ba70 <rockchip_soc_sys_pwr_dm_resume+0x6c4>
   5b9e4:	b0000061 	adrp	x1, 68000 <dist_ctx+0x1e98>
   5b9e8:	913f0020 	add	x0, x1, #0xfc0
   5b9ec:	b94fc022 	ldr	w2, [x1, #4032]
   5b9f0:	d2bff4a1 	mov	x1, #0xffa50000            	// #4289003520
   5b9f4:	b9000022 	str	w2, [x1]
   5b9f8:	b9400402 	ldr	w2, [x0, #4]
   5b9fc:	b9000422 	str	w2, [x1, #4]
   5ba00:	b9400802 	ldr	w2, [x0, #8]
   5ba04:	b9000822 	str	w2, [x1, #8]
   5ba08:	b9400c02 	ldr	w2, [x0, #12]
   5ba0c:	b9000c22 	str	w2, [x1, #12]
   5ba10:	b9401002 	ldr	w2, [x0, #16]
   5ba14:	b9001022 	str	w2, [x1, #16]
   5ba18:	b9401402 	ldr	w2, [x0, #20]
   5ba1c:	b9001422 	str	w2, [x1, #20]
   5ba20:	b9401802 	ldr	w2, [x0, #24]
   5ba24:	b9001822 	str	w2, [x1, #24]
   5ba28:	d2900001 	mov	x1, #0x8000                	// #32768
   5ba2c:	f2bff5a1 	movk	x1, #0xffad, lsl #16
   5ba30:	b9401c02 	ldr	w2, [x0, #28]
   5ba34:	b9000022 	str	w2, [x1]
   5ba38:	b9402002 	ldr	w2, [x0, #32]
   5ba3c:	b9000422 	str	w2, [x1, #4]
   5ba40:	b9402402 	ldr	w2, [x0, #36]
   5ba44:	b9000822 	str	w2, [x1, #8]
   5ba48:	b9402802 	ldr	w2, [x0, #40]
   5ba4c:	b9000c22 	str	w2, [x1, #12]
   5ba50:	b9402c02 	ldr	w2, [x0, #44]
   5ba54:	b9001022 	str	w2, [x1, #16]
   5ba58:	b9403002 	ldr	w2, [x0, #48]
   5ba5c:	b9001422 	str	w2, [x1, #20]
   5ba60:	b9403401 	ldr	w1, [x0, #52]
   5ba64:	d2900300 	mov	x0, #0x8018                	// #32792
   5ba68:	f2bff5a0 	movk	x0, #0xffad, lsl #16
   5ba6c:	b9000001 	str	w1, [x0]
   5ba70:	528003c0 	mov	w0, #0x1e                  	// #30
   5ba74:	97fff553 	bl	58fc0 <pmu_power_domain_st>
   5ba78:	350002a0 	cbnz	w0, 5bacc <rockchip_soc_sys_pwr_dm_resume+0x720>
   5ba7c:	b0000060 	adrp	x0, 68000 <dist_ctx+0x1e98>
   5ba80:	913f0000 	add	x0, x0, #0xfc0
   5ba84:	d2880001 	mov	x1, #0x4000                	// #16384
   5ba88:	f2bff4e1 	movk	x1, #0xffa7, lsl #16
   5ba8c:	b9411802 	ldr	w2, [x0, #280]
   5ba90:	b9000022 	str	w2, [x1]
   5ba94:	b9411c02 	ldr	w2, [x0, #284]
   5ba98:	b9000422 	str	w2, [x1, #4]
   5ba9c:	b9412002 	ldr	w2, [x0, #288]
   5baa0:	b9000822 	str	w2, [x1, #8]
   5baa4:	b9412402 	ldr	w2, [x0, #292]
   5baa8:	b9000c22 	str	w2, [x1, #12]
   5baac:	b9412802 	ldr	w2, [x0, #296]
   5bab0:	b9001022 	str	w2, [x1, #16]
   5bab4:	b9412c02 	ldr	w2, [x0, #300]
   5bab8:	b9001422 	str	w2, [x1, #20]
   5babc:	b9413001 	ldr	w1, [x0, #304]
   5bac0:	d2880300 	mov	x0, #0x4018                	// #16408
   5bac4:	f2bff4e0 	movk	x0, #0xffa7, lsl #16
   5bac8:	b9000001 	str	w1, [x0]
   5bacc:	52800340 	mov	w0, #0x1a                  	// #26
   5bad0:	97fff53c 	bl	58fc0 <pmu_power_domain_st>
   5bad4:	350002a0 	cbnz	w0, 5bb28 <rockchip_soc_sys_pwr_dm_resume+0x77c>
   5bad8:	b0000060 	adrp	x0, 68000 <dist_ctx+0x1e98>
   5badc:	913f0000 	add	x0, x0, #0xfc0
   5bae0:	d2900001 	mov	x1, #0x8000                	// #32768
   5bae4:	f2bff4a1 	movk	x1, #0xffa5, lsl #16
   5bae8:	b9415002 	ldr	w2, [x0, #336]
   5baec:	b9000022 	str	w2, [x1]
   5baf0:	b9415402 	ldr	w2, [x0, #340]
   5baf4:	b9000422 	str	w2, [x1, #4]
   5baf8:	b9415802 	ldr	w2, [x0, #344]
   5bafc:	b9000822 	str	w2, [x1, #8]
   5bb00:	b9415c02 	ldr	w2, [x0, #348]
   5bb04:	b9000c22 	str	w2, [x1, #12]
   5bb08:	b9416002 	ldr	w2, [x0, #352]
   5bb0c:	b9001022 	str	w2, [x1, #16]
   5bb10:	b9416402 	ldr	w2, [x0, #356]
   5bb14:	b9001422 	str	w2, [x1, #20]
   5bb18:	b9416801 	ldr	w1, [x0, #360]
   5bb1c:	d2900300 	mov	x0, #0x8018                	// #32792
   5bb20:	f2bff4a0 	movk	x0, #0xffa5, lsl #16
   5bb24:	b9000001 	str	w1, [x0]
   5bb28:	528003e0 	mov	w0, #0x1f                  	// #31
   5bb2c:	97fff525 	bl	58fc0 <pmu_power_domain_st>
   5bb30:	350002a0 	cbnz	w0, 5bb84 <rockchip_soc_sys_pwr_dm_resume+0x7d8>
   5bb34:	b0000060 	adrp	x0, 68000 <dist_ctx+0x1e98>
   5bb38:	913f0000 	add	x0, x0, #0xfc0
   5bb3c:	d28c0001 	mov	x1, #0x6000                	// #24576
   5bb40:	f2bff4e1 	movk	x1, #0xffa7, lsl #16
   5bb44:	b943d402 	ldr	w2, [x0, #980]
   5bb48:	b9000022 	str	w2, [x1]
   5bb4c:	b943d802 	ldr	w2, [x0, #984]
   5bb50:	b9000422 	str	w2, [x1, #4]
   5bb54:	b943dc02 	ldr	w2, [x0, #988]
   5bb58:	b9000822 	str	w2, [x1, #8]
   5bb5c:	b943e002 	ldr	w2, [x0, #992]
   5bb60:	b9000c22 	str	w2, [x1, #12]
   5bb64:	b943e402 	ldr	w2, [x0, #996]
   5bb68:	b9001022 	str	w2, [x1, #16]
   5bb6c:	b943e802 	ldr	w2, [x0, #1000]
   5bb70:	b9001422 	str	w2, [x1, #20]
   5bb74:	b943ec01 	ldr	w1, [x0, #1004]
   5bb78:	d28c0300 	mov	x0, #0x6018                	// #24600
   5bb7c:	f2bff4e0 	movk	x0, #0xffa7, lsl #16
   5bb80:	b9000001 	str	w1, [x0]
   5bb84:	528003a0 	mov	w0, #0x1d                  	// #29
   5bb88:	97fff50e 	bl	58fc0 <pmu_power_domain_st>
   5bb8c:	350002a0 	cbnz	w0, 5bbe0 <rockchip_soc_sys_pwr_dm_resume+0x834>
   5bb90:	b0000060 	adrp	x0, 68000 <dist_ctx+0x1e98>
   5bb94:	913f0000 	add	x0, x0, #0xfc0
   5bb98:	d2900001 	mov	x1, #0x8000                	// #32768
   5bb9c:	f2bff4e1 	movk	x1, #0xffa7, lsl #16
   5bba0:	b940fc02 	ldr	w2, [x0, #252]
   5bba4:	b9000022 	str	w2, [x1]
   5bba8:	b9410002 	ldr	w2, [x0, #256]
   5bbac:	b9000422 	str	w2, [x1, #4]
   5bbb0:	b9410402 	ldr	w2, [x0, #260]
   5bbb4:	b9000822 	str	w2, [x1, #8]
   5bbb8:	b9410802 	ldr	w2, [x0, #264]
   5bbbc:	b9000c22 	str	w2, [x1, #12]
   5bbc0:	b9410c02 	ldr	w2, [x0, #268]
   5bbc4:	b9001022 	str	w2, [x1, #16]
   5bbc8:	b9411002 	ldr	w2, [x0, #272]
   5bbcc:	b9001422 	str	w2, [x1, #20]
   5bbd0:	b9411401 	ldr	w1, [x0, #276]
   5bbd4:	d2900300 	mov	x0, #0x8018                	// #32792
   5bbd8:	f2bff4e0 	movk	x0, #0xffa7, lsl #16
   5bbdc:	b9000001 	str	w1, [x0]
   5bbe0:	52800240 	mov	w0, #0x12                  	// #18
   5bbe4:	97fff4f7 	bl	58fc0 <pmu_power_domain_st>
   5bbe8:	35000440 	cbnz	w0, 5bc70 <rockchip_soc_sys_pwr_dm_resume+0x8c4>
   5bbec:	b0000060 	adrp	x0, 68000 <dist_ctx+0x1e98>
   5bbf0:	913f0000 	add	x0, x0, #0xfc0
   5bbf4:	d2bff561 	mov	x1, #0xffab0000            	// #4289396736
   5bbf8:	b9424c02 	ldr	w2, [x0, #588]
   5bbfc:	b9000022 	str	w2, [x1]
   5bc00:	b9425002 	ldr	w2, [x0, #592]
   5bc04:	b9000422 	str	w2, [x1, #4]
   5bc08:	b9425402 	ldr	w2, [x0, #596]
   5bc0c:	b9000822 	str	w2, [x1, #8]
   5bc10:	b9425802 	ldr	w2, [x0, #600]
   5bc14:	b9000c22 	str	w2, [x1, #12]
   5bc18:	b9425c02 	ldr	w2, [x0, #604]
   5bc1c:	b9001022 	str	w2, [x1, #16]
   5bc20:	b9426002 	ldr	w2, [x0, #608]
   5bc24:	b9001422 	str	w2, [x1, #20]
   5bc28:	b9426402 	ldr	w2, [x0, #612]
   5bc2c:	b9001822 	str	w2, [x1, #24]
   5bc30:	b9426802 	ldr	w2, [x0, #616]
   5bc34:	b9008022 	str	w2, [x1, #128]
   5bc38:	b9426c02 	ldr	w2, [x0, #620]
   5bc3c:	b9008422 	str	w2, [x1, #132]
   5bc40:	b9427002 	ldr	w2, [x0, #624]
   5bc44:	b9008822 	str	w2, [x1, #136]
   5bc48:	b9427402 	ldr	w2, [x0, #628]
   5bc4c:	b9008c22 	str	w2, [x1, #140]
   5bc50:	b9427802 	ldr	w2, [x0, #632]
   5bc54:	b9009022 	str	w2, [x1, #144]
   5bc58:	b9427c02 	ldr	w2, [x0, #636]
   5bc5c:	b9009422 	str	w2, [x1, #148]
   5bc60:	b9428001 	ldr	w1, [x0, #640]
   5bc64:	d2801300 	mov	x0, #0x98                  	// #152
   5bc68:	f2bff560 	movk	x0, #0xffab, lsl #16
   5bc6c:	b9000001 	str	w1, [x0]
   5bc70:	52800260 	mov	w0, #0x13                  	// #19
   5bc74:	97fff4d3 	bl	58fc0 <pmu_power_domain_st>
   5bc78:	350002a0 	cbnz	w0, 5bccc <rockchip_soc_sys_pwr_dm_resume+0x920>
   5bc7c:	b0000060 	adrp	x0, 68000 <dist_ctx+0x1e98>
   5bc80:	913f0000 	add	x0, x0, #0xfc0
   5bc84:	d2900001 	mov	x1, #0x8000                	// #32768
   5bc88:	f2bff521 	movk	x1, #0xffa9, lsl #16
   5bc8c:	b942d802 	ldr	w2, [x0, #728]
   5bc90:	b9000022 	str	w2, [x1]
   5bc94:	b942dc02 	ldr	w2, [x0, #732]
   5bc98:	b9000422 	str	w2, [x1, #4]
   5bc9c:	b942e002 	ldr	w2, [x0, #736]
   5bca0:	b9000822 	str	w2, [x1, #8]
   5bca4:	b942e402 	ldr	w2, [x0, #740]
   5bca8:	b9000c22 	str	w2, [x1, #12]
   5bcac:	b942e802 	ldr	w2, [x0, #744]
   5bcb0:	b9001022 	str	w2, [x1, #16]
   5bcb4:	b942ec02 	ldr	w2, [x0, #748]
   5bcb8:	b9001422 	str	w2, [x1, #20]
   5bcbc:	b942f001 	ldr	w1, [x0, #752]
   5bcc0:	d2900300 	mov	x0, #0x8018                	// #32792
   5bcc4:	f2bff520 	movk	x0, #0xffa9, lsl #16
   5bcc8:	b9000001 	str	w1, [x0]
   5bccc:	52800360 	mov	w0, #0x1b                  	// #27
   5bcd0:	97fff4bc 	bl	58fc0 <pmu_power_domain_st>
   5bcd4:	35000440 	cbnz	w0, 5bd5c <rockchip_soc_sys_pwr_dm_resume+0x9b0>
   5bcd8:	b0000060 	adrp	x0, 68000 <dist_ctx+0x1e98>
   5bcdc:	913f0000 	add	x0, x0, #0xfc0
   5bce0:	d2bff4e1 	mov	x1, #0xffa70000            	// #4289134592
   5bce4:	b9416c02 	ldr	w2, [x0, #364]
   5bce8:	b9000022 	str	w2, [x1]
   5bcec:	b9417002 	ldr	w2, [x0, #368]
   5bcf0:	b9000422 	str	w2, [x1, #4]
   5bcf4:	b9417402 	ldr	w2, [x0, #372]
   5bcf8:	b9000822 	str	w2, [x1, #8]
   5bcfc:	b9417802 	ldr	w2, [x0, #376]
   5bd00:	b9000c22 	str	w2, [x1, #12]
   5bd04:	b9417c02 	ldr	w2, [x0, #380]
   5bd08:	b9001022 	str	w2, [x1, #16]
   5bd0c:	b9418002 	ldr	w2, [x0, #384]
   5bd10:	b9001422 	str	w2, [x1, #20]
   5bd14:	b9418402 	ldr	w2, [x0, #388]
   5bd18:	b9001822 	str	w2, [x1, #24]
   5bd1c:	b9418802 	ldr	w2, [x0, #392]
   5bd20:	b9008022 	str	w2, [x1, #128]
   5bd24:	b9418c02 	ldr	w2, [x0, #396]
   5bd28:	b9008422 	str	w2, [x1, #132]
   5bd2c:	b9419002 	ldr	w2, [x0, #400]
   5bd30:	b9008822 	str	w2, [x1, #136]
   5bd34:	b9419402 	ldr	w2, [x0, #404]
   5bd38:	b9008c22 	str	w2, [x1, #140]
   5bd3c:	b9419802 	ldr	w2, [x0, #408]
   5bd40:	b9009022 	str	w2, [x1, #144]
   5bd44:	b9419c02 	ldr	w2, [x0, #412]
   5bd48:	b9009422 	str	w2, [x1, #148]
   5bd4c:	b941a001 	ldr	w1, [x0, #416]
   5bd50:	d2801300 	mov	x0, #0x98                  	// #152
   5bd54:	f2bff4e0 	movk	x0, #0xffa7, lsl #16
   5bd58:	b9000001 	str	w1, [x0]
   5bd5c:	52800180 	mov	w0, #0xc                   	// #12
   5bd60:	97fff498 	bl	58fc0 <pmu_power_domain_st>
   5bd64:	35000660 	cbnz	w0, 5be30 <rockchip_soc_sys_pwr_dm_resume+0xa84>
   5bd68:	b0000060 	adrp	x0, 68000 <dist_ctx+0x1e98>
   5bd6c:	913f0000 	add	x0, x0, #0xfc0
   5bd70:	d2802001 	mov	x1, #0x100                 	// #256
   5bd74:	f2bff4c1 	movk	x1, #0xffa6, lsl #16
   5bd78:	b941a402 	ldr	w2, [x0, #420]
   5bd7c:	b9000022 	str	w2, [x1]
   5bd80:	b941a802 	ldr	w2, [x0, #424]
   5bd84:	b9000422 	str	w2, [x1, #4]
   5bd88:	b941ac02 	ldr	w2, [x0, #428]
   5bd8c:	b9000822 	str	w2, [x1, #8]
   5bd90:	b941b002 	ldr	w2, [x0, #432]
   5bd94:	b9000c22 	str	w2, [x1, #12]
   5bd98:	b941b402 	ldr	w2, [x0, #436]
   5bd9c:	b9001022 	str	w2, [x1, #16]
   5bda0:	b941b802 	ldr	w2, [x0, #440]
   5bda4:	b9001422 	str	w2, [x1, #20]
   5bda8:	b941bc02 	ldr	w2, [x0, #444]
   5bdac:	b9001822 	str	w2, [x1, #24]
   5bdb0:	b941c002 	ldr	w2, [x0, #448]
   5bdb4:	b9008022 	str	w2, [x1, #128]
   5bdb8:	b941c402 	ldr	w2, [x0, #452]
   5bdbc:	b9008422 	str	w2, [x1, #132]
   5bdc0:	b941c802 	ldr	w2, [x0, #456]
   5bdc4:	b9008822 	str	w2, [x1, #136]
   5bdc8:	b941cc02 	ldr	w2, [x0, #460]
   5bdcc:	b9008c22 	str	w2, [x1, #140]
   5bdd0:	b941d002 	ldr	w2, [x0, #464]
   5bdd4:	b9009022 	str	w2, [x1, #144]
   5bdd8:	b941d402 	ldr	w2, [x0, #468]
   5bddc:	b9009422 	str	w2, [x1, #148]
   5bde0:	b941d802 	ldr	w2, [x0, #472]
   5bde4:	b9009822 	str	w2, [x1, #152]
   5bde8:	d2901001 	mov	x1, #0x8080                	// #32896
   5bdec:	f2bff5a1 	movk	x1, #0xffad, lsl #16
   5bdf0:	b9438002 	ldr	w2, [x0, #896]
   5bdf4:	b9000022 	str	w2, [x1]
   5bdf8:	b9438402 	ldr	w2, [x0, #900]
   5bdfc:	b9000422 	str	w2, [x1, #4]
   5be00:	b9438802 	ldr	w2, [x0, #904]
   5be04:	b9000822 	str	w2, [x1, #8]
   5be08:	b9438c02 	ldr	w2, [x0, #908]
   5be0c:	b9000c22 	str	w2, [x1, #12]
   5be10:	b9439002 	ldr	w2, [x0, #912]
   5be14:	b9001022 	str	w2, [x1, #16]
   5be18:	b9439402 	ldr	w2, [x0, #916]
   5be1c:	b9001422 	str	w2, [x1, #20]
   5be20:	b9439801 	ldr	w1, [x0, #920]
   5be24:	d2901300 	mov	x0, #0x8098                	// #32920
   5be28:	f2bff5a0 	movk	x0, #0xffad, lsl #16
   5be2c:	b9000001 	str	w1, [x0]
   5be30:	52800160 	mov	w0, #0xb                   	// #11
   5be34:	97fff463 	bl	58fc0 <pmu_power_domain_st>
   5be38:	35001060 	cbnz	w0, 5c044 <rockchip_soc_sys_pwr_dm_resume+0xc98>
   5be3c:	b0000060 	adrp	x0, 68000 <dist_ctx+0x1e98>
   5be40:	913f0000 	add	x0, x0, #0xfc0
   5be44:	d2884001 	mov	x1, #0x4200                	// #16896
   5be48:	f2bff4c1 	movk	x1, #0xffa6, lsl #16
   5be4c:	b9403802 	ldr	w2, [x0, #56]
   5be50:	b9000022 	str	w2, [x1]
   5be54:	b9403c02 	ldr	w2, [x0, #60]
   5be58:	b9000422 	str	w2, [x1, #4]
   5be5c:	b9404002 	ldr	w2, [x0, #64]
   5be60:	b9000822 	str	w2, [x1, #8]
   5be64:	b9404402 	ldr	w2, [x0, #68]
   5be68:	b9000c22 	str	w2, [x1, #12]
   5be6c:	b9404802 	ldr	w2, [x0, #72]
   5be70:	b9001022 	str	w2, [x1, #16]
   5be74:	b9404c02 	ldr	w2, [x0, #76]
   5be78:	b9001422 	str	w2, [x1, #20]
   5be7c:	b9405002 	ldr	w2, [x0, #80]
   5be80:	b9001822 	str	w2, [x1, #24]
   5be84:	b9405402 	ldr	w2, [x0, #84]
   5be88:	b9008022 	str	w2, [x1, #128]
   5be8c:	b9405802 	ldr	w2, [x0, #88]
   5be90:	b9008422 	str	w2, [x1, #132]
   5be94:	b9405c02 	ldr	w2, [x0, #92]
   5be98:	b9008822 	str	w2, [x1, #136]
   5be9c:	b9406002 	ldr	w2, [x0, #96]
   5bea0:	b9008c22 	str	w2, [x1, #140]
   5bea4:	b9406402 	ldr	w2, [x0, #100]
   5bea8:	b9009022 	str	w2, [x1, #144]
   5beac:	b9406802 	ldr	w2, [x0, #104]
   5beb0:	b9009422 	str	w2, [x1, #148]
   5beb4:	b9406c02 	ldr	w2, [x0, #108]
   5beb8:	b9009822 	str	w2, [x1, #152]
   5bebc:	d2883001 	mov	x1, #0x4180                	// #16768
   5bec0:	f2bff4c1 	movk	x1, #0xffa6, lsl #16
   5bec4:	b9407002 	ldr	w2, [x0, #112]
   5bec8:	b9000022 	str	w2, [x1]
   5becc:	b9407402 	ldr	w2, [x0, #116]
   5bed0:	b9000422 	str	w2, [x1, #4]
   5bed4:	b9407802 	ldr	w2, [x0, #120]
   5bed8:	b9000822 	str	w2, [x1, #8]
   5bedc:	b9407c02 	ldr	w2, [x0, #124]
   5bee0:	b9000c22 	str	w2, [x1, #12]
   5bee4:	b9408002 	ldr	w2, [x0, #128]
   5bee8:	b9001022 	str	w2, [x1, #16]
   5beec:	b9408402 	ldr	w2, [x0, #132]
   5bef0:	b9001422 	str	w2, [x1, #20]
   5bef4:	b9408802 	ldr	w2, [x0, #136]
   5bef8:	b9001822 	str	w2, [x1, #24]
   5befc:	d2882001 	mov	x1, #0x4100                	// #16640
   5bf00:	f2bff4c1 	movk	x1, #0xffa6, lsl #16
   5bf04:	b9408c02 	ldr	w2, [x0, #140]
   5bf08:	b9000022 	str	w2, [x1]
   5bf0c:	b9409002 	ldr	w2, [x0, #144]
   5bf10:	b9000422 	str	w2, [x1, #4]
   5bf14:	b9409402 	ldr	w2, [x0, #148]
   5bf18:	b9000822 	str	w2, [x1, #8]
   5bf1c:	b9409802 	ldr	w2, [x0, #152]
   5bf20:	b9000c22 	str	w2, [x1, #12]
   5bf24:	b9409c02 	ldr	w2, [x0, #156]
   5bf28:	b9001022 	str	w2, [x1, #16]
   5bf2c:	b940a002 	ldr	w2, [x0, #160]
   5bf30:	b9001422 	str	w2, [x1, #20]
   5bf34:	b940a402 	ldr	w2, [x0, #164]
   5bf38:	b9001822 	str	w2, [x1, #24]
   5bf3c:	d2881001 	mov	x1, #0x4080                	// #16512
   5bf40:	f2bff4c1 	movk	x1, #0xffa6, lsl #16
   5bf44:	b940a802 	ldr	w2, [x0, #168]
   5bf48:	b9000022 	str	w2, [x1]
   5bf4c:	b940ac02 	ldr	w2, [x0, #172]
   5bf50:	b9000422 	str	w2, [x1, #4]
   5bf54:	b940b002 	ldr	w2, [x0, #176]
   5bf58:	b9000822 	str	w2, [x1, #8]
   5bf5c:	b940b402 	ldr	w2, [x0, #180]
   5bf60:	b9000c22 	str	w2, [x1, #12]
   5bf64:	b940b802 	ldr	w2, [x0, #184]
   5bf68:	b9001022 	str	w2, [x1, #16]
   5bf6c:	b940bc02 	ldr	w2, [x0, #188]
   5bf70:	b9001422 	str	w2, [x1, #20]
   5bf74:	b940c002 	ldr	w2, [x0, #192]
   5bf78:	b9001822 	str	w2, [x1, #24]
   5bf7c:	d2903001 	mov	x1, #0x8180                	// #33152
   5bf80:	f2bff5a1 	movk	x1, #0xffad, lsl #16
   5bf84:	b9439c02 	ldr	w2, [x0, #924]
   5bf88:	b9000022 	str	w2, [x1]
   5bf8c:	b943a002 	ldr	w2, [x0, #928]
   5bf90:	b9000422 	str	w2, [x1, #4]
   5bf94:	b943a402 	ldr	w2, [x0, #932]
   5bf98:	b9000822 	str	w2, [x1, #8]
   5bf9c:	b943a802 	ldr	w2, [x0, #936]
   5bfa0:	b9000c22 	str	w2, [x1, #12]
   5bfa4:	b943ac02 	ldr	w2, [x0, #940]
   5bfa8:	b9001022 	str	w2, [x1, #16]
   5bfac:	b943b002 	ldr	w2, [x0, #944]
   5bfb0:	b9001422 	str	w2, [x1, #20]
   5bfb4:	b943b402 	ldr	w2, [x0, #948]
   5bfb8:	b9001822 	str	w2, [x1, #24]
   5bfbc:	d2902001 	mov	x1, #0x8100                	// #33024
   5bfc0:	f2bff5a1 	movk	x1, #0xffad, lsl #16
   5bfc4:	b943b802 	ldr	w2, [x0, #952]
   5bfc8:	b9000022 	str	w2, [x1]
   5bfcc:	b943bc02 	ldr	w2, [x0, #956]
   5bfd0:	b9000422 	str	w2, [x1, #4]
   5bfd4:	b943c002 	ldr	w2, [x0, #960]
   5bfd8:	b9000822 	str	w2, [x1, #8]
   5bfdc:	b943c402 	ldr	w2, [x0, #964]
   5bfe0:	b9000c22 	str	w2, [x1, #12]
   5bfe4:	b943c802 	ldr	w2, [x0, #968]
   5bfe8:	b9001022 	str	w2, [x1, #16]
   5bfec:	b943cc02 	ldr	w2, [x0, #972]
   5bff0:	b9001422 	str	w2, [x1, #20]
   5bff4:	b943d002 	ldr	w2, [x0, #976]
   5bff8:	b9001822 	str	w2, [x1, #24]
   5bffc:	d2886001 	mov	x1, #0x4300                	// #17152
   5c000:	f2bff4c1 	movk	x1, #0xffa6, lsl #16
   5c004:	b940e002 	ldr	w2, [x0, #224]
   5c008:	b9000022 	str	w2, [x1]
   5c00c:	b940e402 	ldr	w2, [x0, #228]
   5c010:	b9000422 	str	w2, [x1, #4]
   5c014:	b940e802 	ldr	w2, [x0, #232]
   5c018:	b9000822 	str	w2, [x1, #8]
   5c01c:	b940ec02 	ldr	w2, [x0, #236]
   5c020:	b9000c22 	str	w2, [x1, #12]
   5c024:	b940f002 	ldr	w2, [x0, #240]
   5c028:	b9001022 	str	w2, [x1, #16]
   5c02c:	b940f402 	ldr	w2, [x0, #244]
   5c030:	b9001422 	str	w2, [x1, #20]
   5c034:	b940f801 	ldr	w1, [x0, #248]
   5c038:	d2886300 	mov	x0, #0x4318                	// #17176
   5c03c:	f2bff4c0 	movk	x0, #0xffa6, lsl #16
   5c040:	b9000001 	str	w1, [x0]
   5c044:	52800220 	mov	w0, #0x11                  	// #17
   5c048:	97fff3de 	bl	58fc0 <pmu_power_domain_st>
   5c04c:	350002a0 	cbnz	w0, 5c0a0 <rockchip_soc_sys_pwr_dm_resume+0xcf4>
   5c050:	90000060 	adrp	x0, 68000 <dist_ctx+0x1e98>
   5c054:	913f0000 	add	x0, x0, #0xfc0
   5c058:	d2900001 	mov	x1, #0x8000                	// #32768
   5c05c:	f2bff561 	movk	x1, #0xffab, lsl #16
   5c060:	b941f802 	ldr	w2, [x0, #504]
   5c064:	b9000022 	str	w2, [x1]
   5c068:	b941fc02 	ldr	w2, [x0, #508]
   5c06c:	b9000422 	str	w2, [x1, #4]
   5c070:	b9420002 	ldr	w2, [x0, #512]
   5c074:	b9000822 	str	w2, [x1, #8]
   5c078:	b9420402 	ldr	w2, [x0, #516]
   5c07c:	b9000c22 	str	w2, [x1, #12]
   5c080:	b9420802 	ldr	w2, [x0, #520]
   5c084:	b9001022 	str	w2, [x1, #16]
   5c088:	b9420c02 	ldr	w2, [x0, #524]
   5c08c:	b9001422 	str	w2, [x1, #20]
   5c090:	b9421001 	ldr	w1, [x0, #528]
   5c094:	d2900300 	mov	x0, #0x8018                	// #32792
   5c098:	f2bff560 	movk	x0, #0xffab, lsl #16
   5c09c:	b9000001 	str	w1, [x0]
   5c0a0:	52800200 	mov	w0, #0x10                  	// #16
   5c0a4:	97fff3c7 	bl	58fc0 <pmu_power_domain_st>
   5c0a8:	35000440 	cbnz	w0, 5c130 <rockchip_soc_sys_pwr_dm_resume+0xd84>
   5c0ac:	90000060 	adrp	x0, 68000 <dist_ctx+0x1e98>
   5c0b0:	913f0000 	add	x0, x0, #0xfc0
   5c0b4:	d2bff581 	mov	x1, #0xffac0000            	// #4289462272
   5c0b8:	b9421402 	ldr	w2, [x0, #532]
   5c0bc:	b9000022 	str	w2, [x1]
   5c0c0:	b9421802 	ldr	w2, [x0, #536]
   5c0c4:	b9000422 	str	w2, [x1, #4]
   5c0c8:	b9421c02 	ldr	w2, [x0, #540]
   5c0cc:	b9000822 	str	w2, [x1, #8]
   5c0d0:	b9422002 	ldr	w2, [x0, #544]
   5c0d4:	b9000c22 	str	w2, [x1, #12]
   5c0d8:	b9422402 	ldr	w2, [x0, #548]
   5c0dc:	b9001022 	str	w2, [x1, #16]
   5c0e0:	b9422802 	ldr	w2, [x0, #552]
   5c0e4:	b9001422 	str	w2, [x1, #20]
   5c0e8:	b9422c02 	ldr	w2, [x0, #556]
   5c0ec:	b9001822 	str	w2, [x1, #24]
   5c0f0:	b9423002 	ldr	w2, [x0, #560]
   5c0f4:	b9008022 	str	w2, [x1, #128]
   5c0f8:	b9423402 	ldr	w2, [x0, #564]
   5c0fc:	b9008422 	str	w2, [x1, #132]
   5c100:	b9423802 	ldr	w2, [x0, #568]
   5c104:	b9008822 	str	w2, [x1, #136]
   5c108:	b9423c02 	ldr	w2, [x0, #572]
   5c10c:	b9008c22 	str	w2, [x1, #140]
   5c110:	b9424002 	ldr	w2, [x0, #576]
   5c114:	b9009022 	str	w2, [x1, #144]
   5c118:	b9424402 	ldr	w2, [x0, #580]
   5c11c:	b9009422 	str	w2, [x1, #148]
   5c120:	b9424801 	ldr	w1, [x0, #584]
   5c124:	d2801300 	mov	x0, #0x98                  	// #152
   5c128:	f2bff580 	movk	x0, #0xffac, lsl #16
   5c12c:	b9000001 	str	w1, [x0]
   5c130:	9400022b 	bl	5c9dc <clk_gate_con_restore>
   5c134:	940001fd 	bl	5c928 <restore_abpll>
   5c138:	d2800b81 	mov	x1, #0x5c                  	// #92
   5c13c:	5283ffa2 	mov	w2, #0x1ffd                	// #8189
   5c140:	f2bfe621 	movk	x1, #0xff31, lsl #16
   5c144:	72bebc42 	movk	w2, #0xf5e2, lsl #16
   5c148:	b9400020 	ldr	w0, [x1]
   5c14c:	0a020000 	and	w0, w0, w2
   5c150:	b9000020 	str	w0, [x1]
   5c154:	d0000040 	adrp	x0, 66000 <psci_cpu_pd_nodes+0x20>
   5c158:	9105a000 	add	x0, x0, #0x168
   5c15c:	97ffd3f7 	bl	51138 <gicv3_distif_init_restore>
   5c160:	940007aa 	bl	5e008 <plat_my_core_pos>
   5c164:	90000061 	adrp	x1, 68000 <dist_ctx+0x1e98>
   5c168:	91222021 	add	x1, x1, #0x888
   5c16c:	97ffd328 	bl	50e0c <gicv3_rdistif_init_restore>
   5c170:	97ffddac 	bl	53820 <plat_rockchip_gic_cpuif_enable>
   5c174:	97fff376 	bl	58f4c <m0_stop>
   5c178:	97fff611 	bl	599bc <restore_usbphy>
   5c17c:	97ffeb2d 	bl	56e30 <ddr_prepare_for_sys_resume>
   5c180:	52800000 	mov	w0, #0x0                   	// #0
   5c184:	a94153f3 	ldp	x19, x20, [sp, #16]
   5c188:	a8c37bfd 	ldp	x29, x30, [sp], #48
   5c18c:	d65f03c0 	ret
   5c190:	39400260 	ldrb	w0, [x19]
   5c194:	51000694 	sub	w20, w20, #0x1
   5c198:	d1002273 	sub	x19, x19, #0x8
   5c19c:	7100001f 	cmp	w0, #0x0
   5c1a0:	b9400e60 	ldr	w0, [x19, #12]
   5c1a4:	1a9f17e1 	cset	w1, eq  // eq = none
   5c1a8:	97ffd4ab 	bl	51454 <gpio_set_value>
   5c1ac:	b9400e60 	ldr	w0, [x19, #12]
   5c1b0:	52800001 	mov	w1, #0x0                   	// #0
   5c1b4:	97ffd4a3 	bl	51440 <gpio_set_direction>
   5c1b8:	52800020 	mov	w0, #0x1                   	// #1
   5c1bc:	97ffd468 	bl	5135c <udelay>
   5c1c0:	17fffcb0 	b	5b480 <rockchip_soc_sys_pwr_dm_resume+0xd4>
   5c1c4:	71000673 	subs	w19, w19, #0x1
   5c1c8:	54000121 	b.ne	5c1ec <rockchip_soc_sys_pwr_dm_resume+0xe40>  // b.any
   5c1cc:	b9400282 	ldr	w2, [x20]
   5c1d0:	90000021 	adrp	x1, 60000 <version_string+0x6c>
   5c1d4:	90000020 	adrp	x0, 60000 <version_string+0x6c>
   5c1d8:	910a3021 	add	x1, x1, #0x28c
   5c1dc:	91090400 	add	x0, x0, #0x241
   5c1e0:	9400032c 	bl	5ce90 <tf_log>
   5c1e4:	94000392 	bl	5d02c <console_flush>
   5c1e8:	940007a4 	bl	5e078 <do_panic>
   5c1ec:	52800020 	mov	w0, #0x1                   	// #1
   5c1f0:	97ffd45b 	bl	5135c <udelay>
   5c1f4:	17fffccf 	b	5b530 <rockchip_soc_sys_pwr_dm_resume+0x184>

000000000005c1f8 <rockchip_soc_soft_reset>:
   5c1f8:	a9be7bfd 	stp	x29, x30, [sp, #-32]!
   5c1fc:	910003fd 	mov	x29, sp
   5c200:	f9000bf3 	str	x19, [sp, #16]
   5c204:	97ffdc63 	bl	53390 <plat_get_rockchip_gpio_reset>
   5c208:	b4000120 	cbz	x0, 5c22c <rockchip_soc_soft_reset+0x34>
   5c20c:	aa0003f3 	mov	x19, x0
   5c210:	b9400400 	ldr	w0, [x0, #4]
   5c214:	52800001 	mov	w1, #0x0                   	// #0
   5c218:	97ffd48a 	bl	51440 <gpio_set_direction>
   5c21c:	39400261 	ldrb	w1, [x19]
   5c220:	b9400660 	ldr	w0, [x19, #4]
   5c224:	97ffd48c 	bl	51454 <gpio_set_value>
   5c228:	14000000 	b	5c228 <rockchip_soc_soft_reset+0x30>
   5c22c:	94000241 	bl	5cb30 <soc_global_soft_reset>

000000000005c230 <rockchip_soc_system_off>:
   5c230:	a9be7bfd 	stp	x29, x30, [sp, #-32]!
   5c234:	910003fd 	mov	x29, sp
   5c238:	f9000bf3 	str	x19, [sp, #16]
   5c23c:	97ffdc5b 	bl	533a8 <plat_get_rockchip_gpio_poweroff>
   5c240:	b40001e0 	cbz	x0, 5c27c <rockchip_soc_system_off+0x4c>
   5c244:	aa0003f3 	mov	x19, x0
   5c248:	b9400400 	ldr	w0, [x0, #4]
   5c24c:	7100981f 	cmp	w0, #0x26
   5c250:	540000a1 	b.ne	5c264 <rockchip_soc_system_off+0x34>  // b.any
   5c254:	d2800200 	mov	x0, #0x10                  	// #16
   5c258:	52a60001 	mov	w1, #0x30000000            	// #805306368
   5c25c:	f2bfe640 	movk	x0, #0xff32, lsl #16
   5c260:	b9000001 	str	w1, [x0]
   5c264:	b9400660 	ldr	w0, [x19, #4]
   5c268:	52800001 	mov	w1, #0x0                   	// #0
   5c26c:	97ffd475 	bl	51440 <gpio_set_direction>
   5c270:	39400261 	ldrb	w1, [x19]
   5c274:	b9400660 	ldr	w0, [x19, #4]
   5c278:	97ffd477 	bl	51454 <gpio_set_value>
   5c27c:	14000000 	b	5c27c <rockchip_soc_system_off+0x4c>

000000000005c280 <rockchip_plat_mmu_el3>:
   5c280:	a9bf7bfd 	stp	x29, x30, [sp, #-16]!
   5c284:	b07fc321 	adrp	x1, ff8c1000 <sram_func_set_ddrctl_pll>
   5c288:	d07fc322 	adrp	x2, ff8c2000 <__bl31_sram_data_end>
   5c28c:	91000021 	add	x1, x1, #0x0
   5c290:	91000042 	add	x2, x2, #0x0
   5c294:	910003fd 	mov	x29, sp
   5c298:	cb010042 	sub	x2, x2, x1
   5c29c:	aa0103e0 	mov	x0, x1
   5c2a0:	52800043 	mov	w3, #0x2                   	// #2
   5c2a4:	94000467 	bl	5d440 <mmap_add_region>
   5c2a8:	d07fc321 	adrp	x1, ff8c2000 <__bl31_sram_data_end>
   5c2ac:	d07fc322 	adrp	x2, ff8c2000 <__bl31_sram_data_end>
   5c2b0:	91000021 	add	x1, x1, #0x0
   5c2b4:	91000042 	add	x2, x2, #0x0
   5c2b8:	cb010042 	sub	x2, x2, x1
   5c2bc:	aa0103e0 	mov	x0, x1
   5c2c0:	52800143 	mov	w3, #0xa                   	// #10
   5c2c4:	9400045f 	bl	5d440 <mmap_add_region>
   5c2c8:	d07fc321 	adrp	x1, ff8c2000 <__bl31_sram_data_end>
   5c2cc:	f07fc322 	adrp	x2, ff8c3000 <__bl31_sram_stack_end>
   5c2d0:	91000021 	add	x1, x1, #0x0
   5c2d4:	91000042 	add	x2, x2, #0x0
   5c2d8:	cb010042 	sub	x2, x2, x1
   5c2dc:	aa0103e0 	mov	x0, x1
   5c2e0:	52800143 	mov	w3, #0xa                   	// #10
   5c2e4:	94000457 	bl	5d440 <mmap_add_region>
   5c2e8:	a8c17bfd 	ldp	x29, x30, [sp], #16
   5c2ec:	907fc321 	adrp	x1, ff8c0000 <rk3399m0_bin>
   5c2f0:	b07fc322 	adrp	x2, ff8c1000 <sram_func_set_ddrctl_pll>
   5c2f4:	91000021 	add	x1, x1, #0x0
   5c2f8:	91000042 	add	x2, x2, #0x0
   5c2fc:	aa0103e0 	mov	x0, x1
   5c300:	cb010042 	sub	x2, x2, x1
   5c304:	52800123 	mov	w3, #0x9                   	// #9
   5c308:	1400044e 	b	5d440 <mmap_add_region>

000000000005c30c <plat_rockchip_pmu_init>:
   5c30c:	a9ba7bfd 	stp	x29, x30, [sp, #-96]!
   5c310:	90000061 	adrp	x1, 68000 <dist_ctx+0x1e98>
   5c314:	b0000222 	adrp	x2, a1000 <psci_locks>
   5c318:	910003fd 	mov	x29, sp
   5c31c:	90ffffa0 	adrp	x0, 50000 <platform_cpu_warmboot>
   5c320:	91000000 	add	x0, x0, #0x0
   5c324:	b90f7820 	str	w0, [x1, #3960]
   5c328:	91040041 	add	x1, x2, #0x100
   5c32c:	a90153f3 	stp	x19, x20, [sp, #16]
   5c330:	53107c00 	lsr	w0, w0, #16
   5c334:	32103c00 	orr	w0, w0, #0xffff0000
   5c338:	a9025bf5 	stp	x21, x22, [sp, #32]
   5c33c:	d2800013 	mov	x19, #0x0                   	// #0
   5c340:	a90363f7 	stp	x23, x24, [sp, #48]
   5c344:	b0000237 	adrp	x23, a1000 <psci_locks>
   5c348:	9102d2f7 	add	x23, x23, #0xb4
   5c34c:	a9046bf9 	stp	x25, x26, [sp, #64]
   5c350:	d2800f99 	mov	x25, #0x7c                  	// #124
   5c354:	d280181a 	mov	x26, #0xc0                  	// #192
   5c358:	f9002bfb 	str	x27, [sp, #80]
   5c35c:	52800238 	mov	w24, #0x11                  	// #17
   5c360:	2900fc3f 	stp	wzr, wzr, [x1, #4]
   5c364:	f2bfe639 	movk	x25, #0xff31, lsl #16
   5c368:	2901fc3f 	stp	wzr, wzr, [x1, #12]
   5c36c:	f2bfe63a 	movk	x26, #0xff31, lsl #16
   5c370:	b900143f 	str	wzr, [x1, #20]
   5c374:	b0000221 	adrp	x1, a1000 <psci_locks>
   5c378:	b901005f 	str	wzr, [x2, #256]
   5c37c:	91046022 	add	x2, x1, #0x118
   5c380:	b901183f 	str	wzr, [x1, #280]
   5c384:	d2980081 	mov	x1, #0xc004                	// #49156
   5c388:	f2bfe661 	movk	x1, #0xff33, lsl #16
   5c38c:	b900045f 	str	wzr, [x2, #4]
   5c390:	52832802 	mov	w2, #0x1940                	// #6464
   5c394:	b9000020 	str	w0, [x1]
   5c398:	d2801b00 	mov	x0, #0xd8                  	// #216
   5c39c:	f2bfe620 	movk	x0, #0xff31, lsl #16
   5c3a0:	12b80001 	mov	w1, #0x3fffffff            	// #1073741823
   5c3a4:	72a00022 	movk	w2, #0x1, lsl #16
   5c3a8:	b9000001 	str	w1, [x0]
   5c3ac:	d2802400 	mov	x0, #0x120                 	// #288
   5c3b0:	f2bfe640 	movk	x0, #0xff32, lsl #16
   5c3b4:	52800021 	mov	w1, #0x1                   	// #1
   5c3b8:	72a00061 	movk	w1, #0x3, lsl #16
   5c3bc:	b9000001 	str	w1, [x0]
   5c3c0:	d2801181 	mov	x1, #0x8c                  	// #140
   5c3c4:	f2bfe621 	movk	x1, #0xff31, lsl #16
   5c3c8:	52807800 	mov	w0, #0x3c0                 	// #960
   5c3cc:	b9000020 	str	w0, [x1]
   5c3d0:	d2801001 	mov	x1, #0x80                  	// #128
   5c3d4:	f2bfe621 	movk	x1, #0xff31, lsl #16
   5c3d8:	b9000020 	str	w0, [x1]
   5c3dc:	d2801280 	mov	x0, #0x94                  	// #148
   5c3e0:	f2bfe620 	movk	x0, #0xff31, lsl #16
   5c3e4:	52800c01 	mov	w1, #0x60                  	// #96
   5c3e8:	b9000001 	str	w1, [x0]
   5c3ec:	d2801781 	mov	x1, #0xbc                  	// #188
   5c3f0:	f2bfe621 	movk	x1, #0xff31, lsl #16
   5c3f4:	528bb800 	mov	w0, #0x5dc0                	// #24000
   5c3f8:	b9000020 	str	w0, [x1]
   5c3fc:	d2801081 	mov	x1, #0x84                  	// #132
   5c400:	f2bfe621 	movk	x1, #0xff31, lsl #16
   5c404:	b9000022 	str	w2, [x1]
   5c408:	b9000c20 	str	w0, [x1, #12]
   5c40c:	b9003020 	str	w0, [x1, #48]
   5c410:	b9003420 	str	w0, [x1, #52]
   5c414:	d2801380 	mov	x0, #0x9c                  	// #156
   5c418:	f2bfe620 	movk	x0, #0xff31, lsl #16
   5c41c:	529a9801 	mov	w1, #0xd4c0                	// #54464
   5c420:	72a00021 	movk	w1, #0x1, lsl #16
   5c424:	b9000001 	str	w1, [x0]
   5c428:	d2801401 	mov	x1, #0xa0                  	// #160
   5c42c:	f2bfe621 	movk	x1, #0xff31, lsl #16
   5c430:	52800300 	mov	w0, #0x18                  	// #24
   5c434:	b9000020 	str	w0, [x1]
   5c438:	b9000420 	str	w0, [x1, #4]
   5c43c:	b9000820 	str	w0, [x1, #8]
   5c440:	b9000c20 	str	w0, [x1, #12]
   5c444:	b9001020 	str	w0, [x1, #16]
   5c448:	940006f0 	bl	5e008 <plat_my_core_pos>
   5c44c:	2a0003f6 	mov	w22, w0
   5c450:	2a1303f5 	mov	w21, w19
   5c454:	6b1302df 	cmp	w22, w19
   5c458:	54000340 	b.eq	5c4c0 <plat_rockchip_pmu_init+0x1b4>  // b.none
   5c45c:	2a1303e0 	mov	w0, w19
   5c460:	97fff2d8 	bl	58fc0 <pmu_power_domain_st>
   5c464:	7100041f 	cmp	w0, #0x1
   5c468:	540002c0 	b.eq	5c4c0 <plat_rockchip_pmu_init+0x1b4>  // b.none
   5c46c:	11000a74 	add	w20, w19, #0x2
   5c470:	71000e7f 	cmp	w19, #0x3
   5c474:	52803ebb 	mov	w27, #0x1f5                 	// #501
   5c478:	1ad42300 	lsl	w0, w24, w20
   5c47c:	11002274 	add	w20, w19, #0x8
   5c480:	1ad42314 	lsl	w20, w24, w20
   5c484:	1a808294 	csel	w20, w20, w0, hi  // hi = pmore
   5c488:	b9400320 	ldr	w0, [x25]
   5c48c:	6a14001f 	tst	w0, w20
   5c490:	54000061 	b.ne	5c49c <plat_rockchip_pmu_init+0x190>  // b.any
   5c494:	7100077b 	subs	w27, w27, #0x1
   5c498:	54000281 	b.ne	5c4e8 <plat_rockchip_pmu_init+0x1dc>  // b.any
   5c49c:	b9400320 	ldr	w0, [x25]
   5c4a0:	6a00029f 	tst	w20, w0
   5c4a4:	540000e0 	b.eq	5c4c0 <plat_rockchip_pmu_init+0x1b4>  // b.none
   5c4a8:	d37ef660 	lsl	x0, x19, #2
   5c4ac:	52800021 	mov	w1, #0x1                   	// #1
   5c4b0:	b83a681f 	str	wzr, [x0, x26]
   5c4b4:	2a1503e0 	mov	w0, w21
   5c4b8:	b8337aff 	str	wzr, [x23, x19, lsl #2]
   5c4bc:	97fff2c9 	bl	58fe0 <pmu_power_domain_ctr>
   5c4c0:	91000673 	add	x19, x19, #0x1
   5c4c4:	f1001a7f 	cmp	x19, #0x6
   5c4c8:	54fffc41 	b.ne	5c450 <plat_rockchip_pmu_init+0x144>  // b.any
   5c4cc:	a94153f3 	ldp	x19, x20, [sp, #16]
   5c4d0:	a9425bf5 	ldp	x21, x22, [sp, #32]
   5c4d4:	a94363f7 	ldp	x23, x24, [sp, #48]
   5c4d8:	a9446bf9 	ldp	x25, x26, [sp, #64]
   5c4dc:	f9402bfb 	ldr	x27, [sp, #80]
   5c4e0:	a8c67bfd 	ldp	x29, x30, [sp], #96
   5c4e4:	d65f03c0 	ret
   5c4e8:	52800020 	mov	w0, #0x1                   	// #1
   5c4ec:	97ffd39c 	bl	5135c <udelay>
   5c4f0:	17ffffe6 	b	5c488 <plat_rockchip_pmu_init+0x17c>

000000000005c4f4 <disable_pwms>:
   5c4f4:	b0000060 	adrp	x0, 69000 <pmu_slpdata+0x40>
   5c4f8:	d29c0501 	mov	x1, #0xe028                	// #57384
   5c4fc:	f2bfeee1 	movk	x1, #0xff77, lsl #16
   5c500:	b909fc1f 	str	wzr, [x0, #2556]
   5c504:	b9400022 	ldr	w2, [x1]
   5c508:	d3441442 	ubfx	x2, x2, #4, #2
   5c50c:	7100045f 	cmp	w2, #0x1
   5c510:	54000081 	b.ne	5c520 <disable_pwms+0x2c>  // b.any
   5c514:	b909fc02 	str	w2, [x0, #2556]
   5c518:	52a00602 	mov	w2, #0x300000              	// #3145728
   5c51c:	b9000022 	str	w2, [x1]
   5c520:	b9400022 	ldr	w2, [x1]
   5c524:	d34c3442 	ubfx	x2, x2, #12, #2
   5c528:	7100045f 	cmp	w2, #0x1
   5c52c:	540000c1 	b.ne	5c544 <disable_pwms+0x50>  // b.any
   5c530:	b949fc02 	ldr	w2, [x0, #2556]
   5c534:	321f0042 	orr	w2, w2, #0x2
   5c538:	b909fc02 	str	w2, [x0, #2556]
   5c53c:	52a60002 	mov	w2, #0x30000000            	// #805306368
   5c540:	b9000022 	str	w2, [x1]
   5c544:	d2800302 	mov	x2, #0x18                  	// #24
   5c548:	f2bfe642 	movk	x2, #0xff32, lsl #16
   5c54c:	b9400041 	ldr	w1, [x2]
   5c550:	d3461c21 	ubfx	x1, x1, #6, #2
   5c554:	7100043f 	cmp	w1, #0x1
   5c558:	540000c1 	b.ne	5c570 <disable_pwms+0x7c>  // b.any
   5c55c:	b949fc01 	ldr	w1, [x0, #2556]
   5c560:	321e0021 	orr	w1, w1, #0x4
   5c564:	b909fc01 	str	w1, [x0, #2556]
   5c568:	52a01801 	mov	w1, #0xc00000              	// #12582912
   5c56c:	b9000041 	str	w1, [x2]
   5c570:	d2bfe642 	mov	x2, #0xff320000            	// #4281466880
   5c574:	b9400041 	ldr	w1, [x2]
   5c578:	d34c3421 	ubfx	x1, x1, #12, #2
   5c57c:	7100043f 	cmp	w1, #0x1
   5c580:	540000c1 	b.ne	5c598 <disable_pwms+0xa4>  // b.any
   5c584:	b949fc01 	ldr	w1, [x0, #2556]
   5c588:	321d0021 	orr	w1, w1, #0x8
   5c58c:	b909fc01 	str	w1, [x0, #2556]
   5c590:	52a60001 	mov	w1, #0x30000000            	// #805306368
   5c594:	b9000041 	str	w1, [x2]
   5c598:	9127f000 	add	x0, x0, #0x9fc
   5c59c:	d2800185 	mov	x5, #0xc                   	// #12
   5c5a0:	d2800001 	mov	x1, #0x0                   	// #0
   5c5a4:	52800004 	mov	w4, #0x0                   	// #0
   5c5a8:	52800003 	mov	w3, #0x0                   	// #0
   5c5ac:	f2bfe845 	movk	x5, #0xff42, lsl #16
   5c5b0:	52800027 	mov	w7, #0x1                   	// #1
   5c5b4:	b900041f 	str	wzr, [x0, #4]
   5c5b8:	d37cec26 	lsl	x6, x1, #4
   5c5bc:	b86568c2 	ldr	w2, [x6, x5]
   5c5c0:	360000c2 	tbz	w2, #0, 5c5d8 <disable_pwms+0xe4>
   5c5c4:	1ac120e4 	lsl	w4, w7, w1
   5c5c8:	121f7842 	and	w2, w2, #0xfffffffe
   5c5cc:	2a040063 	orr	w3, w3, w4
   5c5d0:	52800024 	mov	w4, #0x1                   	// #1
   5c5d4:	b82568c2 	str	w2, [x6, x5]
   5c5d8:	91000421 	add	x1, x1, #0x1
   5c5dc:	f100103f 	cmp	x1, #0x4
   5c5e0:	54fffec1 	b.ne	5c5b8 <disable_pwms+0xc4>  // b.any
   5c5e4:	34000044 	cbz	w4, 5c5ec <disable_pwms+0xf8>
   5c5e8:	b9000403 	str	w3, [x0, #4]
   5c5ec:	d65f03c0 	ret

000000000005c5f0 <enable_pwms>:
   5c5f0:	b0000060 	adrp	x0, 69000 <pmu_slpdata+0x40>
   5c5f4:	9127f001 	add	x1, x0, #0x9fc
   5c5f8:	d2800183 	mov	x3, #0xc                   	// #12
   5c5fc:	52800026 	mov	w6, #0x1                   	// #1
   5c600:	f2bfe843 	movk	x3, #0xff42, lsl #16
   5c604:	b9400425 	ldr	w5, [x1, #4]
   5c608:	d2800001 	mov	x1, #0x0                   	// #0
   5c60c:	d37cec24 	lsl	x4, x1, #4
   5c610:	1ac120c7 	lsl	w7, w6, w1
   5c614:	6a0500ff 	tst	w7, w5
   5c618:	b8636882 	ldr	w2, [x4, x3]
   5c61c:	54000060 	b.eq	5c628 <enable_pwms+0x38>  // b.none
   5c620:	32000042 	orr	w2, w2, #0x1
   5c624:	b8236882 	str	w2, [x4, x3]
   5c628:	91000421 	add	x1, x1, #0x1
   5c62c:	f100103f 	cmp	x1, #0x4
   5c630:	54fffee1 	b.ne	5c60c <enable_pwms+0x1c>  // b.any
   5c634:	b949fc01 	ldr	w1, [x0, #2556]
   5c638:	361800a1 	tbz	w1, #3, 5c64c <enable_pwms+0x5c>
   5c63c:	d2bfe641 	mov	x1, #0xff320000            	// #4281466880
   5c640:	52820002 	mov	w2, #0x1000                	// #4096
   5c644:	72a60002 	movk	w2, #0x3000, lsl #16
   5c648:	b9000022 	str	w2, [x1]
   5c64c:	b949fc01 	ldr	w1, [x0, #2556]
   5c650:	361000c1 	tbz	w1, #2, 5c668 <enable_pwms+0x78>
   5c654:	d2800301 	mov	x1, #0x18                  	// #24
   5c658:	52800802 	mov	w2, #0x40                  	// #64
   5c65c:	f2bfe641 	movk	x1, #0xff32, lsl #16
   5c660:	72a01802 	movk	w2, #0xc0, lsl #16
   5c664:	b9000022 	str	w2, [x1]
   5c668:	b949fc01 	ldr	w1, [x0, #2556]
   5c66c:	360800c1 	tbz	w1, #1, 5c684 <enable_pwms+0x94>
   5c670:	d29c0501 	mov	x1, #0xe028                	// #57384
   5c674:	52820002 	mov	w2, #0x1000                	// #4096
   5c678:	f2bfeee1 	movk	x1, #0xff77, lsl #16
   5c67c:	72a60002 	movk	w2, #0x3000, lsl #16
   5c680:	b9000022 	str	w2, [x1]
   5c684:	b949fc00 	ldr	w0, [x0, #2556]
   5c688:	360000c0 	tbz	w0, #0, 5c6a0 <enable_pwms+0xb0>
   5c68c:	d29c0500 	mov	x0, #0xe028                	// #57384
   5c690:	52800201 	mov	w1, #0x10                  	// #16
   5c694:	f2bfeee0 	movk	x0, #0xff77, lsl #16
   5c698:	72a00601 	movk	w1, #0x30, lsl #16
   5c69c:	b9000001 	str	w1, [x0]
   5c6a0:	d65f03c0 	ret

000000000005c6a4 <secure_watchdog_gate>:
   5c6a4:	d29c0180 	mov	x0, #0xe00c                	// #57356
   5c6a8:	5280a001 	mov	w1, #0x500                 	// #1280
   5c6ac:	f2bfe660 	movk	x0, #0xff33, lsl #16
   5c6b0:	72a0a001 	movk	w1, #0x500, lsl #16
   5c6b4:	b9000001 	str	w1, [x0]
   5c6b8:	d65f03c0 	ret

000000000005c6bc <secure_timer_init>:
   5c6bc:	d2901401 	mov	x1, #0x80a0                	// #32928
   5c6c0:	12800000 	mov	w0, #0xffffffff            	// #-1
   5c6c4:	f2bff0c1 	movk	x1, #0xff86, lsl #16
   5c6c8:	b9000020 	str	w0, [x1]
   5c6cc:	b9000420 	str	w0, [x1, #4]
   5c6d0:	d2901600 	mov	x0, #0x80b0                	// #32944
   5c6d4:	f2bff0c0 	movk	x0, #0xff86, lsl #16
   5c6d8:	52800021 	mov	w1, #0x1                   	// #1
   5c6dc:	b900001f 	str	wzr, [x0]
   5c6e0:	b900001f 	str	wzr, [x0]
   5c6e4:	b9000c01 	str	w1, [x0, #12]
   5c6e8:	d65f03c0 	ret

000000000005c6ec <secure_sgrf_init>:
   5c6ec:	d29c0281 	mov	x1, #0xe014                	// #57364
   5c6f0:	12800000 	mov	w0, #0xffffffff            	// #-1
   5c6f4:	f2bfe661 	movk	x1, #0xff33, lsl #16
   5c6f8:	b9000020 	str	w0, [x1]
   5c6fc:	b9000420 	str	w0, [x1, #4]
   5c700:	b9000820 	str	w0, [x1, #8]
   5c704:	d2984800 	mov	x0, #0xc240                	// #49728
   5c708:	f2bfe660 	movk	x0, #0xff33, lsl #16
   5c70c:	52a00061 	mov	w1, #0x30000               	// #196608
   5c710:	b9000001 	str	w1, [x0]
   5c714:	129fdfe1 	mov	w1, #0xffff0100            	// #-65280
   5c718:	b9000401 	str	w1, [x0, #4]
   5c71c:	d29c7801 	mov	x1, #0xe3c0                	// #58304
   5c720:	f2bfe661 	movk	x1, #0xff33, lsl #16
   5c724:	52bfffe0 	mov	w0, #0xffff0000            	// #-65536
   5c728:	b9000020 	str	w0, [x1]
   5c72c:	b9000420 	str	w0, [x1, #4]
   5c730:	b9000820 	str	w0, [x1, #8]
   5c734:	b9000c20 	str	w0, [x1, #12]
   5c738:	d29c7a00 	mov	x0, #0xe3d0                	// #58320
   5c73c:	f2bfe660 	movk	x0, #0xff33, lsl #16
   5c740:	129bffe1 	mov	w1, #0xffff2000            	// #-57344
   5c744:	b9000001 	str	w1, [x0]
   5c748:	d65f03c0 	ret

000000000005c74c <secure_sgrf_ddr_rgn_init>:
   5c74c:	d2bfe661 	mov	x1, #0xff330000            	// #4281532416
   5c750:	52a1ffe0 	mov	w0, #0xfff0000             	// #268369920
   5c754:	b9000020 	str	w0, [x1]
   5c758:	b9002020 	str	w0, [x1, #32]
   5c75c:	d2800800 	mov	x0, #0x40                  	// #64
   5c760:	f2bfe660 	movk	x0, #0xff33, lsl #16
   5c764:	320083e1 	mov	w1, #0x10001               	// #65537
   5c768:	b9000001 	str	w1, [x0]
   5c76c:	52a04001 	mov	w1, #0x2000000             	// #33554432
   5c770:	b9000001 	str	w1, [x0]
   5c774:	d65f03c0 	ret

000000000005c778 <restore_pll.constprop.0>:
   5c778:	d2800583 	mov	x3, #0x2c                  	// #44
   5c77c:	52a06001 	mov	w1, #0x3000000             	// #50331648
   5c780:	f2bfeec3 	movk	x3, #0xff76, lsl #16
   5c784:	d2800402 	mov	x2, #0x20                  	// #32
   5c788:	f2bfeec2 	movk	x2, #0xff76, lsl #16
   5c78c:	d2800604 	mov	x4, #0x30                  	// #48
   5c790:	b9000061 	str	w1, [x3]
   5c794:	f2bfeec4 	movk	x4, #0xff76, lsl #16
   5c798:	b9400001 	ldr	w1, [x0]
   5c79c:	32103c21 	orr	w1, w1, #0xffff0000
   5c7a0:	b9000041 	str	w1, [x2]
   5c7a4:	b9400401 	ldr	w1, [x0, #4]
   5c7a8:	32103c21 	orr	w1, w1, #0xffff0000
   5c7ac:	b9000441 	str	w1, [x2, #4]
   5c7b0:	d2800501 	mov	x1, #0x28                  	// #40
   5c7b4:	f2bfeec1 	movk	x1, #0xff76, lsl #16
   5c7b8:	b9400802 	ldr	w2, [x0, #8]
   5c7bc:	b9000022 	str	w2, [x1]
   5c7c0:	b9401002 	ldr	w2, [x0, #16]
   5c7c4:	32103c42 	orr	w2, w2, #0xffff0000
   5c7c8:	b9000082 	str	w2, [x4]
   5c7cc:	b9401402 	ldr	w2, [x0, #20]
   5c7d0:	32103c42 	orr	w2, w2, #0xffff0000
   5c7d4:	b9000482 	str	w2, [x4, #4]
   5c7d8:	b9400c00 	ldr	w0, [x0, #12]
   5c7dc:	32103c00 	orr	w0, w0, #0xffff0000
   5c7e0:	b9000060 	str	w0, [x3]
   5c7e4:	b9400020 	ldr	w0, [x1]
   5c7e8:	36ffffe0 	tbz	w0, #31, 5c7e4 <restore_pll.constprop.0+0x6c>
   5c7ec:	d65f03c0 	ret

000000000005c7f0 <disable_dvfs_plls>:
   5c7f0:	d2800d82 	mov	x2, #0x6c                  	// #108
   5c7f4:	52a06001 	mov	w1, #0x3000000             	// #50331648
   5c7f8:	f2bfeec2 	movk	x2, #0xff76, lsl #16
   5c7fc:	320f83e0 	mov	w0, #0x20002               	// #131074
   5c800:	b9000041 	str	w1, [x2]
   5c804:	b9000040 	str	w0, [x2]
   5c808:	b9004041 	str	w1, [x2, #64]
   5c80c:	b9004040 	str	w0, [x2, #64]
   5c810:	b9006041 	str	w1, [x2, #96]
   5c814:	b9006040 	str	w0, [x2, #96]
   5c818:	d2801182 	mov	x2, #0x8c                  	// #140
   5c81c:	f2bfeec2 	movk	x2, #0xff76, lsl #16
   5c820:	b9000041 	str	w1, [x2]
   5c824:	b9000040 	str	w0, [x2]
   5c828:	d2800182 	mov	x2, #0xc                   	// #12
   5c82c:	f2bfeec2 	movk	x2, #0xff76, lsl #16
   5c830:	b9000041 	str	w1, [x2]
   5c834:	b9000040 	str	w0, [x2]
   5c838:	d65f03c0 	ret

000000000005c83c <disable_nodvfs_plls>:
   5c83c:	d2800180 	mov	x0, #0xc                   	// #12
   5c840:	52a06001 	mov	w1, #0x3000000             	// #50331648
   5c844:	f2bfeea0 	movk	x0, #0xff75, lsl #16
   5c848:	b9000001 	str	w1, [x0]
   5c84c:	320f83e1 	mov	w1, #0x20002               	// #131074
   5c850:	b9000001 	str	w1, [x0]
   5c854:	d65f03c0 	ret

000000000005c858 <prepare_abpll_for_ddrctrl>:
   5c858:	d2800400 	mov	x0, #0x20                  	// #32
   5c85c:	f2bfeec0 	movk	x0, #0xff76, lsl #16
   5c860:	b9400001 	ldr	w1, [x0]
   5c864:	b0000060 	adrp	x0, 69000 <pmu_slpdata+0x40>
   5c868:	91281000 	add	x0, x0, #0xa04
   5c86c:	9100c000 	add	x0, x0, #0x30
   5c870:	b81e8001 	stur	w1, [x0, #-24]
   5c874:	d2800481 	mov	x1, #0x24                  	// #36
   5c878:	f2bfeec1 	movk	x1, #0xff76, lsl #16
   5c87c:	b9400021 	ldr	w1, [x1]
   5c880:	b81ec001 	stur	w1, [x0, #-20]
   5c884:	d2800501 	mov	x1, #0x28                  	// #40
   5c888:	f2bfeec1 	movk	x1, #0xff76, lsl #16
   5c88c:	b9400021 	ldr	w1, [x1]
   5c890:	b81f0001 	stur	w1, [x0, #-16]
   5c894:	d2800581 	mov	x1, #0x2c                  	// #44
   5c898:	f2bfeec1 	movk	x1, #0xff76, lsl #16
   5c89c:	b9400021 	ldr	w1, [x1]
   5c8a0:	b81f4001 	stur	w1, [x0, #-12]
   5c8a4:	d2800601 	mov	x1, #0x30                  	// #48
   5c8a8:	f2bfeec1 	movk	x1, #0xff76, lsl #16
   5c8ac:	b9400021 	ldr	w1, [x1]
   5c8b0:	b81f8001 	stur	w1, [x0, #-8]
   5c8b4:	d2800681 	mov	x1, #0x34                  	// #52
   5c8b8:	f2bfeec1 	movk	x1, #0xff76, lsl #16
   5c8bc:	b9400021 	ldr	w1, [x1]
   5c8c0:	b81fc001 	stur	w1, [x0, #-4]
   5c8c4:	d2800801 	mov	x1, #0x40                  	// #64
   5c8c8:	f2bfeec1 	movk	x1, #0xff76, lsl #16
   5c8cc:	b9400021 	ldr	w1, [x1]
   5c8d0:	b9000001 	str	w1, [x0]
   5c8d4:	d2800881 	mov	x1, #0x44                  	// #68
   5c8d8:	f2bfeec1 	movk	x1, #0xff76, lsl #16
   5c8dc:	b9400021 	ldr	w1, [x1]
   5c8e0:	b9000401 	str	w1, [x0, #4]
   5c8e4:	d2800901 	mov	x1, #0x48                  	// #72
   5c8e8:	f2bfeec1 	movk	x1, #0xff76, lsl #16
   5c8ec:	b9400021 	ldr	w1, [x1]
   5c8f0:	b9000801 	str	w1, [x0, #8]
   5c8f4:	d2800981 	mov	x1, #0x4c                  	// #76
   5c8f8:	f2bfeec1 	movk	x1, #0xff76, lsl #16
   5c8fc:	b9400021 	ldr	w1, [x1]
   5c900:	b9000c01 	str	w1, [x0, #12]
   5c904:	d2800a01 	mov	x1, #0x50                  	// #80
   5c908:	f2bfeec1 	movk	x1, #0xff76, lsl #16
   5c90c:	b9400021 	ldr	w1, [x1]
   5c910:	b9001001 	str	w1, [x0, #16]
   5c914:	d2800a81 	mov	x1, #0x54                  	// #84
   5c918:	f2bfeec1 	movk	x1, #0xff76, lsl #16
   5c91c:	b9400021 	ldr	w1, [x1]
   5c920:	b9001401 	str	w1, [x0, #20]
   5c924:	17ffff95 	b	5c778 <restore_pll.constprop.0>

000000000005c928 <restore_abpll>:
   5c928:	b0000060 	adrp	x0, 69000 <pmu_slpdata+0x40>
   5c92c:	91281000 	add	x0, x0, #0xa04
   5c930:	91006000 	add	x0, x0, #0x18
   5c934:	17ffff91 	b	5c778 <restore_pll.constprop.0>

000000000005c938 <clk_gate_con_save>:
   5c938:	d2802000 	mov	x0, #0x100                 	// #256
   5c93c:	928047e2 	mov	x2, #0xfffffffffffffdc0    	// #-576
   5c940:	f2bfeea0 	movk	x0, #0xff75, lsl #16
   5c944:	f2a01122 	movk	x2, #0x89, lsl #16
   5c948:	b9400001 	ldr	w1, [x0]
   5c94c:	b0000060 	adrp	x0, 69000 <pmu_slpdata+0x40>
   5c950:	91281000 	add	x0, x0, #0xa04
   5c954:	b9014c01 	str	w1, [x0, #332]
   5c958:	d2802081 	mov	x1, #0x104                 	// #260
   5c95c:	f2bfeea1 	movk	x1, #0xff75, lsl #16
   5c960:	b9400021 	ldr	w1, [x1]
   5c964:	b9015001 	str	w1, [x0, #336]
   5c968:	d2802101 	mov	x1, #0x108                 	// #264
   5c96c:	f2bfeea1 	movk	x1, #0xff75, lsl #16
   5c970:	b9400021 	ldr	w1, [x1]
   5c974:	b9015401 	str	w1, [x0, #340]
   5c978:	8b020000 	add	x0, x0, x2
   5c97c:	d2806001 	mov	x1, #0x300                 	// #768
   5c980:	d2807182 	mov	x2, #0x38c                 	// #908
   5c984:	f2bfeec1 	movk	x1, #0xff76, lsl #16
   5c988:	f2bfeec2 	movk	x2, #0xff76, lsl #16
   5c98c:	b9400023 	ldr	w3, [x1]
   5c990:	b8206823 	str	w3, [x1, x0]
   5c994:	91001021 	add	x1, x1, #0x4
   5c998:	eb02003f 	cmp	x1, x2
   5c99c:	54ffff81 	b.ne	5c98c <clk_gate_con_save+0x54>  // b.any
   5c9a0:	d65f03c0 	ret

000000000005c9a4 <clk_gate_con_disable>:
   5c9a4:	d2802001 	mov	x1, #0x100                 	// #256
   5c9a8:	52bfffe0 	mov	w0, #0xffff0000            	// #-65536
   5c9ac:	f2bfeea1 	movk	x1, #0xff75, lsl #16
   5c9b0:	d2807182 	mov	x2, #0x38c                 	// #908
   5c9b4:	f2bfeec2 	movk	x2, #0xff76, lsl #16
   5c9b8:	b9000020 	str	w0, [x1]
   5c9bc:	b9000420 	str	w0, [x1, #4]
   5c9c0:	b9000820 	str	w0, [x1, #8]
   5c9c4:	d2806001 	mov	x1, #0x300                 	// #768
   5c9c8:	f2bfeec1 	movk	x1, #0xff76, lsl #16
   5c9cc:	b8004420 	str	w0, [x1], #4
   5c9d0:	eb02003f 	cmp	x1, x2
   5c9d4:	54ffffc1 	b.ne	5c9cc <clk_gate_con_disable+0x28>  // b.any
   5c9d8:	d65f03c0 	ret

000000000005c9dc <clk_gate_con_restore>:
   5c9dc:	b0000060 	adrp	x0, 69000 <pmu_slpdata+0x40>
   5c9e0:	91281000 	add	x0, x0, #0xa04
   5c9e4:	d2802002 	mov	x2, #0x100                 	// #256
   5c9e8:	d2807183 	mov	x3, #0x38c                 	// #908
   5c9ec:	f2bfeea2 	movk	x2, #0xff75, lsl #16
   5c9f0:	f2bfeec3 	movk	x3, #0xff76, lsl #16
   5c9f4:	b9414c01 	ldr	w1, [x0, #332]
   5c9f8:	32103c21 	orr	w1, w1, #0xffff0000
   5c9fc:	b9000041 	str	w1, [x2]
   5ca00:	b9415001 	ldr	w1, [x0, #336]
   5ca04:	32103c21 	orr	w1, w1, #0xffff0000
   5ca08:	b9000441 	str	w1, [x2, #4]
   5ca0c:	b9415401 	ldr	w1, [x0, #340]
   5ca10:	32103c21 	orr	w1, w1, #0xffff0000
   5ca14:	b9000841 	str	w1, [x2, #8]
   5ca18:	928047e2 	mov	x2, #0xfffffffffffffdc0    	// #-576
   5ca1c:	d2806001 	mov	x1, #0x300                 	// #768
   5ca20:	f2a01122 	movk	x2, #0x89, lsl #16
   5ca24:	8b020000 	add	x0, x0, x2
   5ca28:	f2bfeec1 	movk	x1, #0xff76, lsl #16
   5ca2c:	b8606822 	ldr	w2, [x1, x0]
   5ca30:	32103c42 	orr	w2, w2, #0xffff0000
   5ca34:	b8004422 	str	w2, [x1], #4
   5ca38:	eb03003f 	cmp	x1, x3
   5ca3c:	54ffff81 	b.ne	5ca2c <clk_gate_con_restore+0x50>  // b.any
   5ca40:	d65f03c0 	ret

000000000005ca44 <set_pmu_rsthold>:
   5ca44:	d2802401 	mov	x1, #0x120                 	// #288
   5ca48:	b07f9aa0 	adrp	x0, ff3b1000 <rk3399m0pmu_bin>
   5ca4c:	f2bfeea1 	movk	x1, #0xff75, lsl #16
   5ca50:	913d3002 	add	x2, x0, #0xf4c
   5ca54:	b9400023 	ldr	w3, [x1]
   5ca58:	b90f4c03 	str	w3, [x0, #3916]
   5ca5c:	d2802480 	mov	x0, #0x124                 	// #292
   5ca60:	f2bfeea0 	movk	x0, #0xff75, lsl #16
   5ca64:	b9400003 	ldr	w3, [x0]
   5ca68:	b9000443 	str	w3, [x2, #4]
   5ca6c:	3207d7e2 	mov	w2, #0x7e7e7e7e            	// #2122219134
   5ca70:	b9000022 	str	w2, [x1]
   5ca74:	52817e01 	mov	w1, #0xbf0                 	// #3056
   5ca78:	72a17e01 	movk	w1, #0xbf0, lsl #16
   5ca7c:	b9000001 	str	w1, [x0]
   5ca80:	d65f03c0 	ret

000000000005ca84 <pmu_sgrf_rst_hld>:
   5ca84:	d2802480 	mov	x0, #0x124                 	// #292
   5ca88:	320a83e1 	mov	w1, #0x400040              	// #4194368
   5ca8c:	f2bfeea0 	movk	x0, #0xff75, lsl #16
   5ca90:	b9000001 	str	w1, [x0]
   5ca94:	d65f03c0 	ret

000000000005ca98 <enable_dvfs_plls>:
   5ca98:	d2800182 	mov	x2, #0xc                   	// #12
   5ca9c:	52a00041 	mov	w1, #0x20000               	// #131072
   5caa0:	f2bfeec2 	movk	x2, #0xff76, lsl #16
   5caa4:	52802000 	mov	w0, #0x100                 	// #256
   5caa8:	72a06000 	movk	w0, #0x300, lsl #16
   5caac:	b9000041 	str	w1, [x2]
   5cab0:	b9000040 	str	w0, [x2]
   5cab4:	b9008041 	str	w1, [x2, #128]
   5cab8:	b9008040 	str	w0, [x2, #128]
   5cabc:	b900c041 	str	w1, [x2, #192]
   5cac0:	b900c040 	str	w0, [x2, #192]
   5cac4:	d2801582 	mov	x2, #0xac                  	// #172
   5cac8:	f2bfeec2 	movk	x2, #0xff76, lsl #16
   5cacc:	b9000041 	str	w1, [x2]
   5cad0:	b9000040 	str	w0, [x2]
   5cad4:	d2800d82 	mov	x2, #0x6c                  	// #108
   5cad8:	f2bfeec2 	movk	x2, #0xff76, lsl #16
   5cadc:	b9000041 	str	w1, [x2]
   5cae0:	b9000040 	str	w0, [x2]
   5cae4:	d65f03c0 	ret

000000000005cae8 <enable_nodvfs_plls>:
   5cae8:	d2800180 	mov	x0, #0xc                   	// #12
   5caec:	52a00041 	mov	w1, #0x20000               	// #131072
   5caf0:	f2bfeea0 	movk	x0, #0xff75, lsl #16
   5caf4:	b9000001 	str	w1, [x0]
   5caf8:	52802001 	mov	w1, #0x100                 	// #256
   5cafc:	72a06001 	movk	w1, #0x300, lsl #16
   5cb00:	b9000001 	str	w1, [x0]
   5cb04:	d65f03c0 	ret

000000000005cb08 <soc_global_soft_reset_init>:
   5cb08:	d2802480 	mov	x0, #0x124                 	// #292
   5cb0c:	52a00801 	mov	w1, #0x400000              	// #4194304
   5cb10:	f2bfeea0 	movk	x0, #0xff75, lsl #16
   5cb14:	b9000001 	str	w1, [x0]
   5cb18:	d280a201 	mov	x1, #0x510                 	// #1296
   5cb1c:	f2bfeec1 	movk	x1, #0xff76, lsl #16
   5cb20:	b9400020 	ldr	w0, [x1]
   5cb24:	121b7000 	and	w0, w0, #0xffffffe3
   5cb28:	b9000020 	str	w0, [x1]
   5cb2c:	d65f03c0 	ret

000000000005cb30 <soc_global_soft_reset>:
   5cb30:	a9bf7bfd 	stp	x29, x30, [sp, #-16]!
   5cb34:	910003fd 	mov	x29, sp
   5cb38:	97fff206 	bl	59350 <pmu_power_domains_on>
   5cb3c:	d2801981 	mov	x1, #0xcc                  	// #204
   5cb40:	52a06000 	mov	w0, #0x3000000             	// #50331648
   5cb44:	f2bfeec1 	movk	x1, #0xff76, lsl #16
   5cb48:	b9000020 	str	w0, [x1]
   5cb4c:	d2801581 	mov	x1, #0xac                  	// #172
   5cb50:	f2bfeec1 	movk	x1, #0xff76, lsl #16
   5cb54:	b9000020 	str	w0, [x1]
   5cb58:	d2801181 	mov	x1, #0x8c                  	// #140
   5cb5c:	f2bfeec1 	movk	x1, #0xff76, lsl #16
   5cb60:	b9000020 	str	w0, [x1]
   5cb64:	d2800d81 	mov	x1, #0x6c                  	// #108
   5cb68:	f2bfeec1 	movk	x1, #0xff76, lsl #16
   5cb6c:	b9000020 	str	w0, [x1]
   5cb70:	d2800181 	mov	x1, #0xc                   	// #12
   5cb74:	f2bfeea1 	movk	x1, #0xff75, lsl #16
   5cb78:	b9000020 	str	w0, [x1]
   5cb7c:	d2800581 	mov	x1, #0x2c                  	// #44
   5cb80:	f2bfeec1 	movk	x1, #0xff76, lsl #16
   5cb84:	b9000020 	str	w0, [x1]
   5cb88:	d2800181 	mov	x1, #0xc                   	// #12
   5cb8c:	f2bfeec1 	movk	x1, #0xff76, lsl #16
   5cb90:	b9000020 	str	w0, [x1]
   5cb94:	d5033f9f 	dsb	sy
   5cb98:	d280a000 	mov	x0, #0x500                 	// #1280
   5cb9c:	529fb721 	mov	w1, #0xfdb9                	// #64953
   5cba0:	f2bfeec0 	movk	x0, #0xff76, lsl #16
   5cba4:	b9000001 	str	w1, [x0]
   5cba8:	14000000 	b	5cba8 <soc_global_soft_reset+0x78>

000000000005cbac <plat_rockchip_soc_init>:
   5cbac:	a9bf7bfd 	stp	x29, x30, [sp, #-16]!
   5cbb0:	910003fd 	mov	x29, sp
   5cbb4:	97fffec2 	bl	5c6bc <secure_timer_init>
   5cbb8:	97fffecd 	bl	5c6ec <secure_sgrf_init>
   5cbbc:	97fffee4 	bl	5c74c <secure_sgrf_ddr_rgn_init>
   5cbc0:	97ffffd2 	bl	5cb08 <soc_global_soft_reset_init>
   5cbc4:	97fff0a8 	bl	58e64 <plat_rockchip_gpio_init>
   5cbc8:	97fff0aa 	bl	58e70 <m0_init>
   5cbcc:	97ffe8be 	bl	56ec4 <dram_init>
   5cbd0:	a8c17bfd 	ldp	x29, x30, [sp], #16
   5cbd4:	17ffe670 	b	56594 <dram_dfs_init>

000000000005cbd8 <ddr_smc_handler>:
   5cbd8:	d1000444 	sub	x4, x2, #0x1
   5cbdc:	f1001c9f 	cmp	x4, #0x7
   5cbe0:	54000268 	b.hi	5cc2c <ddr_smc_handler+0x54>  // b.pmore
   5cbe4:	71001c9f 	cmp	w4, #0x7
   5cbe8:	54000228 	b.hi	5cc2c <ddr_smc_handler+0x54>  // b.pmore
   5cbec:	f0000002 	adrp	x2, 5f000 <fdt_ro_probe_+0x20>
   5cbf0:	913c2042 	add	x2, x2, #0xf08
   5cbf4:	38644842 	ldrb	w2, [x2, w4, uxtw]
   5cbf8:	10000064 	adr	x4, 5cc04 <ddr_smc_handler+0x2c>
   5cbfc:	8b228882 	add	x2, x4, w2, sxtb #2
   5cc00:	d61f0040 	br	x2
   5cc04:	17ffe7ef 	b	56bc0 <ddr_set_rate>
   5cc08:	17ffe85d 	b	56d7c <ddr_round_rate>
   5cc0c:	17ffe5c6 	b	56324 <ddr_get_rate>
   5cc10:	a9bf7bfd 	stp	x29, x30, [sp, #-16]!
   5cc14:	2a0303e2 	mov	w2, w3
   5cc18:	910003fd 	mov	x29, sp
   5cc1c:	97ffe79f 	bl	56a98 <dram_set_odt_pd>
   5cc20:	52800000 	mov	w0, #0x0                   	// #0
   5cc24:	a8c17bfd 	ldp	x29, x30, [sp], #16
   5cc28:	d65f03c0 	ret
   5cc2c:	52800000 	mov	w0, #0x0                   	// #0
   5cc30:	d65f03c0 	ret

000000000005cc34 <rockchip_plat_sip_handler>:
   5cc34:	a9be7bfd 	stp	x29, x30, [sp, #-32]!
   5cc38:	2a0003e5 	mov	w5, w0
   5cc3c:	aa0103e0 	mov	x0, x1
   5cc40:	910003fd 	mov	x29, sp
   5cc44:	f9000bf3 	str	x19, [sp, #16]
   5cc48:	aa0203e1 	mov	x1, x2
   5cc4c:	aa0303e2 	mov	x2, x3
   5cc50:	aa0403e3 	mov	x3, x4
   5cc54:	52800104 	mov	w4, #0x8                   	// #8
   5cc58:	aa0603f3 	mov	x19, x6
   5cc5c:	72b04004 	movk	w4, #0x8200, lsl #16
   5cc60:	6b0400bf 	cmp	w5, w4
   5cc64:	54000101 	b.ne	5cc84 <rockchip_plat_sip_handler+0x50>  // b.any
   5cc68:	97ffffdc 	bl	5cbd8 <ddr_smc_handler>
   5cc6c:	2a0003e0 	mov	w0, w0
   5cc70:	f9000260 	str	x0, [x19]
   5cc74:	aa1303e0 	mov	x0, x19
   5cc78:	f9400bf3 	ldr	x19, [sp, #16]
   5cc7c:	a8c27bfd 	ldp	x29, x30, [sp], #32
   5cc80:	d65f03c0 	ret
   5cc84:	2a0503e2 	mov	w2, w5
   5cc88:	90000021 	adrp	x1, 60000 <version_string+0x6c>
   5cc8c:	90000020 	adrp	x0, 60000 <version_string+0x6c>
   5cc90:	910b2821 	add	x1, x1, #0x2ca
   5cc94:	910abc00 	add	x0, x0, #0x2af
   5cc98:	9400007e 	bl	5ce90 <tf_log>
   5cc9c:	92800000 	mov	x0, #0xffffffffffffffff    	// #-1
   5cca0:	17fffff4 	b	5cc70 <rockchip_plat_sip_handler+0x3c>

000000000005cca4 <arm_arch_svc_smc_handler>:
   5cca4:	a9be7bfd 	stp	x29, x30, [sp, #-32]!
   5cca8:	2a0003e2 	mov	w2, w0
   5ccac:	aa0103e0 	mov	x0, x1
   5ccb0:	910003fd 	mov	x29, sp
   5ccb4:	f9000bf3 	str	x19, [sp, #16]
   5ccb8:	52800041 	mov	w1, #0x2                   	// #2
   5ccbc:	72b00001 	movk	w1, #0x8000, lsl #16
   5ccc0:	aa0603f3 	mov	x19, x6
   5ccc4:	6b01005f 	cmp	w2, w1
   5ccc8:	540006c0 	b.eq	5cda0 <arm_arch_svc_smc_handler+0xfc>  // b.none
   5cccc:	32010be1 	mov	w1, #0x80000003            	// #-2147483645
   5ccd0:	6b01005f 	cmp	w2, w1
   5ccd4:	54000122 	b.cs	5ccf8 <arm_arch_svc_smc_handler+0x54>  // b.hs, b.nlast
   5ccd8:	52b00001 	mov	w1, #0x80000000            	// #-2147483648
   5ccdc:	6b01005f 	cmp	w2, w1
   5cce0:	540001e0 	b.eq	5cd1c <arm_arch_svc_smc_handler+0x78>  // b.none
   5cce4:	320107e1 	mov	w1, #0x80000001            	// #-2147483647
   5cce8:	6b01005f 	cmp	w2, w1
   5ccec:	54000200 	b.eq	5cd2c <arm_arch_svc_smc_handler+0x88>  // b.none
   5ccf0:	92800000 	mov	x0, #0xffffffffffffffff    	// #-1
   5ccf4:	1400000c 	b	5cd24 <arm_arch_svc_smc_handler+0x80>
   5ccf8:	52900020 	mov	w0, #0x8001                	// #32769
   5ccfc:	72afffe0 	movk	w0, #0x7fff, lsl #16
   5cd00:	0b000042 	add	w2, w2, w0
   5cd04:	7100045f 	cmp	w2, #0x1
   5cd08:	54ffff48 	b.hi	5ccf0 <arm_arch_svc_smc_handler+0x4c>  // b.pmore
   5cd0c:	aa1303e0 	mov	x0, x19
   5cd10:	f9400bf3 	ldr	x19, [sp, #16]
   5cd14:	a8c27bfd 	ldp	x29, x30, [sp], #32
   5cd18:	d65f03c0 	ret
   5cd1c:	d2800040 	mov	x0, #0x2                   	// #2
   5cd20:	f2a00020 	movk	x0, #0x1, lsl #16
   5cd24:	f9000260 	str	x0, [x19]
   5cd28:	17fffff9 	b	5cd0c <arm_arch_svc_smc_handler+0x68>
   5cd2c:	32013fe1 	mov	w1, #0x80007fff            	// #-2147450881
   5cd30:	eb01001f 	cmp	x0, x1
   5cd34:	54000320 	b.eq	5cd98 <arm_arch_svc_smc_handler+0xf4>  // b.none
   5cd38:	540001e8 	b.hi	5cd74 <arm_arch_svc_smc_handler+0xd0>  // b.pmore
   5cd3c:	320107e1 	mov	w1, #0x80000001            	// #-2147483647
   5cd40:	eb01001f 	cmp	x0, x1
   5cd44:	540000c8 	b.hi	5cd5c <arm_arch_svc_smc_handler+0xb8>  // b.pmore
   5cd48:	b2407be1 	mov	x1, #0x7fffffff            	// #2147483647
   5cd4c:	eb01001f 	cmp	x0, x1
   5cd50:	5a9f83e0 	csetm	w0, ls  // ls = plast
   5cd54:	93407c00 	sxtw	x0, w0
   5cd58:	17fffff3 	b	5cd24 <arm_arch_svc_smc_handler+0x80>
   5cd5c:	d2800041 	mov	x1, #0x2                   	// #2
   5cd60:	f2b00001 	movk	x1, #0x8000, lsl #16
   5cd64:	eb01001f 	cmp	x0, x1
   5cd68:	54000140 	b.eq	5cd90 <arm_arch_svc_smc_handler+0xec>  // b.none
   5cd6c:	12800000 	mov	w0, #0xffffffff            	// #-1
   5cd70:	17fffff9 	b	5cd54 <arm_arch_svc_smc_handler+0xb0>
   5cd74:	320183e1 	mov	w1, #0x80008000            	// #-2147450880
   5cd78:	eb01001f 	cmp	x0, x1
   5cd7c:	54ffff81 	b.ne	5cd6c <arm_arch_svc_smc_handler+0xc8>  // b.any
   5cd80:	940003e1 	bl	5dd04 <check_wa_cve_2017_5715>
   5cd84:	7100001f 	cmp	w0, #0x0
   5cd88:	1a9f17e0 	cset	w0, eq  // eq = none
   5cd8c:	17fffff2 	b	5cd54 <arm_arch_svc_smc_handler+0xb0>
   5cd90:	940000c0 	bl	5d090 <plat_is_smccc_feature_available>
   5cd94:	17fffff0 	b	5cd54 <arm_arch_svc_smc_handler+0xb0>
   5cd98:	12800020 	mov	w0, #0xfffffffe            	// #-2
   5cd9c:	17ffffee 	b	5cd54 <arm_arch_svc_smc_handler+0xb0>
   5cda0:	f100041f 	cmp	x0, #0x1
   5cda4:	54000061 	b.ne	5cdb0 <arm_arch_svc_smc_handler+0x10c>  // b.any
   5cda8:	940000b8 	bl	5d088 <plat_get_soc_revision>
   5cdac:	17ffffea 	b	5cd54 <arm_arch_svc_smc_handler+0xb0>
   5cdb0:	b5000060 	cbnz	x0, 5cdbc <arm_arch_svc_smc_handler+0x118>
   5cdb4:	940000b3 	bl	5d080 <plat_get_soc_version>
   5cdb8:	17ffffe7 	b	5cd54 <arm_arch_svc_smc_handler+0xb0>
   5cdbc:	12800040 	mov	w0, #0xfffffffd            	// #-3
   5cdc0:	17ffffe5 	b	5cd54 <arm_arch_svc_smc_handler+0xb0>

000000000005cdc4 <std_svc_setup>:
   5cdc4:	a9bf7bfd 	stp	x29, x30, [sp, #-16]!
   5cdc8:	529ffc00 	mov	w0, #0xffe0                	// #65504
   5cdcc:	910003fd 	mov	x29, sp
   5cdd0:	97ffccc2 	bl	500d8 <get_arm_std_svc_args>
   5cdd4:	97ffd709 	bl	529f8 <psci_setup>
   5cdd8:	7100001f 	cmp	w0, #0x0
   5cddc:	1a9f07e0 	cset	w0, ne  // ne = any
   5cde0:	a8c17bfd 	ldp	x29, x30, [sp], #16
   5cde4:	d65f03c0 	ret

000000000005cde8 <std_svc_smc_handler>:
   5cde8:	a9be7bfd 	stp	x29, x30, [sp, #-32]!
   5cdec:	721b281f 	tst	w0, #0xffe0
   5cdf0:	910003fd 	mov	x29, sp
   5cdf4:	f9000bf3 	str	x19, [sp, #16]
   5cdf8:	aa0603f3 	mov	x19, x6
   5cdfc:	540000e1 	b.ne	5ce18 <std_svc_smc_handler+0x30>  // b.any
   5ce00:	97ffd5ac 	bl	524b0 <psci_smc_handler>
   5ce04:	f9000260 	str	x0, [x19]
   5ce08:	aa1303e0 	mov	x0, x19
   5ce0c:	f9400bf3 	ldr	x19, [sp, #16]
   5ce10:	a8c27bfd 	ldp	x29, x30, [sp], #32
   5ce14:	d65f03c0 	ret
   5ce18:	2a0003e8 	mov	w8, w0
   5ce1c:	529fe020 	mov	w0, #0xff01                	// #65281
   5ce20:	72b08000 	movk	w0, #0x8400, lsl #16
   5ce24:	6b00011f 	cmp	w8, w0
   5ce28:	54000140 	b.eq	5ce50 <std_svc_smc_handler+0x68>  // b.none
   5ce2c:	11000800 	add	w0, w0, #0x2
   5ce30:	6b00011f 	cmp	w8, w0
   5ce34:	54000260 	b.eq	5ce80 <std_svc_smc_handler+0x98>  // b.none
   5ce38:	529fe000 	mov	w0, #0xff00                	// #65280
   5ce3c:	72b08000 	movk	w0, #0x8400, lsl #16
   5ce40:	6b00011f 	cmp	w8, w0
   5ce44:	d2800240 	mov	x0, #0x12                  	// #18
   5ce48:	da9f0000 	csinv	x0, x0, xzr, eq  // eq = none
   5ce4c:	17ffffee 	b	5ce04 <std_svc_smc_handler+0x1c>
   5ce50:	d2882ac0 	mov	x0, #0x4156                	// #16726
   5ce54:	f2bc5ec0 	movk	x0, #0xe2f6, lsl #16
   5ce58:	f9000cc0 	str	x0, [x6, #24]
   5ce5c:	d285b5c0 	mov	x0, #0x2dae                	// #11694
   5ce60:	f2bf7800 	movk	x0, #0xfbc0, lsl #16
   5ce64:	f90008c0 	str	x0, [x6, #16]
   5ce68:	d29f0c60 	mov	x0, #0xf863                	// #63587
   5ce6c:	f2a8fd00 	movk	x0, #0x47e8, lsl #16
   5ce70:	f90004c0 	str	x0, [x6, #8]
   5ce74:	d2920b60 	mov	x0, #0x905b                	// #36955
   5ce78:	f2a211a0 	movk	x0, #0x108d, lsl #16
   5ce7c:	17ffffe2 	b	5ce04 <std_svc_smc_handler+0x1c>
   5ce80:	d2800020 	mov	x0, #0x1                   	// #1
   5ce84:	a90000df 	stp	xzr, x0, [x6]
   5ce88:	17ffffe0 	b	5ce08 <std_svc_smc_handler+0x20>

000000000005ce8c <print_entry_point_info>:
   5ce8c:	d65f03c0 	ret

000000000005ce90 <tf_log>:
   5ce90:	a9b67bfd 	stp	x29, x30, [sp, #-160]!
   5ce94:	910003fd 	mov	x29, sp
   5ce98:	a90153f3 	stp	x19, x20, [sp, #16]
   5ce9c:	aa0003f4 	mov	x20, x0
   5cea0:	a9068be1 	stp	x1, x2, [sp, #104]
   5cea4:	d0000021 	adrp	x1, 62000 <__RO_END__>
   5cea8:	a90793e3 	stp	x3, x4, [sp, #120]
   5ceac:	b9405821 	ldr	w1, [x1, #88]
   5ceb0:	a9089be5 	stp	x5, x6, [sp, #136]
   5ceb4:	f9004fe7 	str	x7, [sp, #152]
   5ceb8:	39400000 	ldrb	w0, [x0]
   5cebc:	6b00003f 	cmp	w1, w0
   5cec0:	54000263 	b.cc	5cf0c <tf_log+0x7c>  // b.lo, b.ul, b.last
   5cec4:	94000075 	bl	5d098 <plat_log_get_prefix>
   5cec8:	aa0003f3 	mov	x19, x0
   5cecc:	39400260 	ldrb	w0, [x19]
   5ced0:	35000240 	cbnz	w0, 5cf18 <tf_log+0x88>
   5ced4:	910283e0 	add	x0, sp, #0xa0
   5ced8:	a90403e0 	stp	x0, x0, [sp, #64]
   5cedc:	910183e0 	add	x0, sp, #0x60
   5cee0:	f9002be0 	str	x0, [sp, #80]
   5cee4:	128006e0 	mov	w0, #0xffffffc8            	// #-56
   5cee8:	b9005be0 	str	w0, [sp, #88]
   5ceec:	b9005fff 	str	wzr, [sp, #92]
   5cef0:	a94407e0 	ldp	x0, x1, [sp, #64]
   5cef4:	a90207e0 	stp	x0, x1, [sp, #32]
   5cef8:	a94507e0 	ldp	x0, x1, [sp, #80]
   5cefc:	a90307e0 	stp	x0, x1, [sp, #48]
   5cf00:	910083e1 	add	x1, sp, #0x20
   5cf04:	91000680 	add	x0, x20, #0x1
   5cf08:	940009ad 	bl	5f5bc <vprintf>
   5cf0c:	a94153f3 	ldp	x19, x20, [sp, #16]
   5cf10:	a8ca7bfd 	ldp	x29, x30, [sp], #160
   5cf14:	d65f03c0 	ret
   5cf18:	91000673 	add	x19, x19, #0x1
   5cf1c:	94000aa8 	bl	5f9bc <putchar>
   5cf20:	17ffffeb 	b	5cecc <tf_log+0x3c>

000000000005cf24 <console_is_registered>:
   5cf24:	90000061 	adrp	x1, 68000 <dist_ctx+0x1e98>
   5cf28:	f9447021 	ldr	x1, [x1, #2272]
   5cf2c:	b5000061 	cbnz	x1, 5cf38 <console_is_registered+0x14>
   5cf30:	52800000 	mov	w0, #0x0                   	// #0
   5cf34:	d65f03c0 	ret
   5cf38:	eb00003f 	cmp	x1, x0
   5cf3c:	54000060 	b.eq	5cf48 <console_is_registered+0x24>  // b.none
   5cf40:	f9400021 	ldr	x1, [x1]
   5cf44:	17fffffa 	b	5cf2c <console_is_registered+0x8>
   5cf48:	52800020 	mov	w0, #0x1                   	// #1
   5cf4c:	17fffffa 	b	5cf34 <console_is_registered+0x10>

000000000005cf50 <console_register>:
   5cf50:	aa0003e2 	mov	x2, x0
   5cf54:	a9bf7bfd 	stp	x29, x30, [sp, #-16]!
   5cf58:	910003fd 	mov	x29, sp
   5cf5c:	97fffff2 	bl	5cf24 <console_is_registered>
   5cf60:	7100041f 	cmp	w0, #0x1
   5cf64:	540000a0 	b.eq	5cf78 <console_register+0x28>  // b.none
   5cf68:	90000060 	adrp	x0, 68000 <dist_ctx+0x1e98>
   5cf6c:	f9447001 	ldr	x1, [x0, #2272]
   5cf70:	f9000041 	str	x1, [x2]
   5cf74:	f9047002 	str	x2, [x0, #2272]
   5cf78:	52800020 	mov	w0, #0x1                   	// #1
   5cf7c:	a8c17bfd 	ldp	x29, x30, [sp], #16
   5cf80:	d65f03c0 	ret

000000000005cf84 <console_switch_state>:
   5cf84:	d0000021 	adrp	x1, 62000 <__RO_END__>
   5cf88:	39018020 	strb	w0, [x1, #96]
   5cf8c:	d65f03c0 	ret

000000000005cf90 <console_putc>:
   5cf90:	a9bd7bfd 	stp	x29, x30, [sp, #-48]!
   5cf94:	910003fd 	mov	x29, sp
   5cf98:	a9025bf5 	stp	x21, x22, [sp, #32]
   5cf9c:	2a0003f5 	mov	w21, w0
   5cfa0:	90000060 	adrp	x0, 68000 <dist_ctx+0x1e98>
   5cfa4:	a90153f3 	stp	x19, x20, [sp, #16]
   5cfa8:	d0000036 	adrp	x22, 62000 <__RO_END__>
   5cfac:	910182d6 	add	x22, x22, #0x60
   5cfb0:	f9447013 	ldr	x19, [x0, #2272]
   5cfb4:	12800ff4 	mov	w20, #0xffffff80            	// #-128
   5cfb8:	b50000d3 	cbnz	x19, 5cfd0 <console_putc+0x40>
   5cfbc:	2a1403e0 	mov	w0, w20
   5cfc0:	a94153f3 	ldp	x19, x20, [sp, #16]
   5cfc4:	a9425bf5 	ldp	x21, x22, [sp, #32]
   5cfc8:	a8c37bfd 	ldp	x29, x30, [sp], #48
   5cfcc:	d65f03c0 	ret
   5cfd0:	f9400660 	ldr	x0, [x19, #8]
   5cfd4:	394002c1 	ldrb	w1, [x22]
   5cfd8:	ea00003f 	tst	x1, x0
   5cfdc:	54000180 	b.eq	5d00c <console_putc+0x7c>  // b.none
   5cfe0:	f9400a62 	ldr	x2, [x19, #16]
   5cfe4:	b4000142 	cbz	x2, 5d00c <console_putc+0x7c>
   5cfe8:	71002abf 	cmp	w21, #0xa
   5cfec:	54000140 	b.eq	5d014 <console_putc+0x84>  // b.none
   5cff0:	f9400a62 	ldr	x2, [x19, #16]
   5cff4:	aa1303e1 	mov	x1, x19
   5cff8:	2a1503e0 	mov	w0, w21
   5cffc:	d63f0040 	blr	x2
   5d000:	3102029f 	cmn	w20, #0x80
   5d004:	7a401280 	ccmp	w20, w0, #0x0, ne  // ne = any
   5d008:	1a80d294 	csel	w20, w20, w0, le
   5d00c:	f9400273 	ldr	x19, [x19]
   5d010:	17ffffea 	b	5cfb8 <console_putc+0x28>
   5d014:	3647fee0 	tbz	w0, #8, 5cff0 <console_putc+0x60>
   5d018:	aa1303e1 	mov	x1, x19
   5d01c:	528001a0 	mov	w0, #0xd                   	// #13
   5d020:	d63f0040 	blr	x2
   5d024:	36fffe60 	tbz	w0, #31, 5cff0 <console_putc+0x60>
   5d028:	17fffff6 	b	5d000 <console_putc+0x70>

000000000005d02c <console_flush>:
   5d02c:	a9be7bfd 	stp	x29, x30, [sp, #-32]!
   5d030:	f0000040 	adrp	x0, 68000 <dist_ctx+0x1e98>
   5d034:	910003fd 	mov	x29, sp
   5d038:	a90153f3 	stp	x19, x20, [sp, #16]
   5d03c:	b0000034 	adrp	x20, 62000 <__RO_END__>
   5d040:	91018294 	add	x20, x20, #0x60
   5d044:	f9447013 	ldr	x19, [x0, #2272]
   5d048:	b5000093 	cbnz	x19, 5d058 <console_flush+0x2c>
   5d04c:	a94153f3 	ldp	x19, x20, [sp, #16]
   5d050:	a8c27bfd 	ldp	x29, x30, [sp], #32
   5d054:	d65f03c0 	ret
   5d058:	f9400660 	ldr	x0, [x19, #8]
   5d05c:	39400281 	ldrb	w1, [x20]
   5d060:	ea00003f 	tst	x1, x0
   5d064:	540000a0 	b.eq	5d078 <console_flush+0x4c>  // b.none
   5d068:	f9401261 	ldr	x1, [x19, #32]
   5d06c:	b4000061 	cbz	x1, 5d078 <console_flush+0x4c>
   5d070:	aa1303e0 	mov	x0, x19
   5d074:	d63f0020 	blr	x1
   5d078:	f9400273 	ldr	x19, [x19]
   5d07c:	17fffff3 	b	5d048 <console_flush+0x1c>

000000000005d080 <plat_get_soc_version>:
   5d080:	12800000 	mov	w0, #0xffffffff            	// #-1
   5d084:	d65f03c0 	ret

000000000005d088 <plat_get_soc_revision>:
   5d088:	12800000 	mov	w0, #0xffffffff            	// #-1
   5d08c:	d65f03c0 	ret

000000000005d090 <plat_is_smccc_feature_available>:
   5d090:	12800000 	mov	w0, #0xffffffff            	// #-1
   5d094:	d65f03c0 	ret

000000000005d098 <plat_log_get_prefix>:
   5d098:	7100c81f 	cmp	w0, #0x32
   5d09c:	52800641 	mov	w1, #0x32                  	// #50
   5d0a0:	1a819000 	csel	w0, w0, w1, ls  // ls = plast
   5d0a4:	52800141 	mov	w1, #0xa                   	// #10
   5d0a8:	6b01001f 	cmp	w0, w1
   5d0ac:	1a812000 	csel	w0, w0, w1, cs  // cs = hs, nlast
   5d0b0:	1ac10800 	udiv	w0, w0, w1
   5d0b4:	d0000001 	adrp	x1, 5f000 <fdt_ro_probe_+0x20>
   5d0b8:	91300021 	add	x1, x1, #0xc00
   5d0bc:	51000400 	sub	w0, w0, #0x1
   5d0c0:	f8607820 	ldr	x0, [x1, x0, lsl #3]
   5d0c4:	d65f03c0 	ret

000000000005d0c8 <bl31_plat_runtime_setup>:
   5d0c8:	52800040 	mov	w0, #0x2                   	// #2
   5d0cc:	17ffffae 	b	5cf84 <console_switch_state>

000000000005d0d0 <plat_ea_handler>:
   5d0d0:	a9be7bfd 	stp	x29, x30, [sp, #-32]!
   5d0d4:	910003fd 	mov	x29, sp
   5d0d8:	a90153f3 	stp	x19, x20, [sp, #16]
   5d0dc:	2a0003f3 	mov	w19, w0
   5d0e0:	aa0103f4 	mov	x20, x1
   5d0e4:	d53e4003 	mrs	x3, spsr_el3
   5d0e8:	53020c63 	ubfx	w3, w3, #2, #2
   5d0ec:	d53800a1 	mrs	x1, mpidr_el1
   5d0f0:	71000c7f 	cmp	w3, #0x3
   5d0f4:	54000220 	b.eq	5d138 <plat_ea_handler+0x68>  // b.none
   5d0f8:	7100087f 	cmp	w3, #0x2
   5d0fc:	f0000000 	adrp	x0, 60000 <version_string+0x6c>
   5d100:	f0000002 	adrp	x2, 60000 <version_string+0x6c>
   5d104:	910cd400 	add	x0, x0, #0x335
   5d108:	910cbc42 	add	x2, x2, #0x32f
   5d10c:	9a801042 	csel	x2, x2, x0, ne  // ne = any
   5d110:	f0000000 	adrp	x0, 60000 <version_string+0x6c>
   5d114:	910ce400 	add	x0, x0, #0x339
   5d118:	97ffff5e 	bl	5ce90 <tf_log>
   5d11c:	aa1403e2 	mov	x2, x20
   5d120:	2a1303e1 	mov	w1, w19
   5d124:	f0000000 	adrp	x0, 60000 <version_string+0x6c>
   5d128:	910db800 	add	x0, x0, #0x36e
   5d12c:	97ffff59 	bl	5ce90 <tf_log>
   5d130:	97ffffbf 	bl	5d02c <console_flush>
   5d134:	940003d1 	bl	5e078 <do_panic>
   5d138:	f0000002 	adrp	x2, 60000 <version_string+0x6c>
   5d13c:	910cac42 	add	x2, x2, #0x32b
   5d140:	17fffff4 	b	5d110 <plat_ea_handler+0x40>

000000000005d144 <plat_arm_set_twedel_scr_el3>:
   5d144:	12800000 	mov	w0, #0xffffffff            	// #-1
   5d148:	d65f03c0 	ret

000000000005d14c <bl31_params_parse_helper>:
   5d14c:	a9bd7bfd 	stp	x29, x30, [sp, #-48]!
   5d150:	910003fd 	mov	x29, sp
   5d154:	a90153f3 	stp	x19, x20, [sp, #16]
   5d158:	aa0003f3 	mov	x19, x0
   5d15c:	aa0103f4 	mov	x20, x1
   5d160:	f90013f5 	str	x21, [sp, #32]
   5d164:	aa0203f5 	mov	x21, x2
   5d168:	39400400 	ldrb	w0, [x0, #1]
   5d16c:	7100041f 	cmp	w0, #0x1
   5d170:	540001e1 	b.ne	5d1ac <bl31_params_parse_helper+0x60>  // b.any
   5d174:	b40000a1 	cbz	x1, 5d188 <bl31_params_parse_helper+0x3c>
   5d178:	aa0103e0 	mov	x0, x1
   5d17c:	d2800b02 	mov	x2, #0x58                  	// #88
   5d180:	f9400a61 	ldr	x1, [x19, #16]
   5d184:	940008a7 	bl	5f420 <memcpy>
   5d188:	b40000b5 	cbz	x21, 5d19c <bl31_params_parse_helper+0x50>
   5d18c:	f9401261 	ldr	x1, [x19, #32]
   5d190:	aa1503e0 	mov	x0, x21
   5d194:	d2800b02 	mov	x2, #0x58                  	// #88
   5d198:	940008a2 	bl	5f420 <memcpy>
   5d19c:	a94153f3 	ldp	x19, x20, [sp, #16]
   5d1a0:	f94013f5 	ldr	x21, [sp, #32]
   5d1a4:	a8c37bfd 	ldp	x29, x30, [sp], #48
   5d1a8:	d65f03c0 	ret
   5d1ac:	f9400673 	ldr	x19, [x19, #8]
   5d1b0:	b4ffff73 	cbz	x19, 5d19c <bl31_params_parse_helper+0x50>
   5d1b4:	b9400260 	ldr	w0, [x19]
   5d1b8:	7100101f 	cmp	w0, #0x4
   5d1bc:	54000101 	b.ne	5d1dc <bl31_params_parse_helper+0x90>  // b.any
   5d1c0:	b40000b4 	cbz	x20, 5d1d4 <bl31_params_parse_helper+0x88>
   5d1c4:	f9400a61 	ldr	x1, [x19, #16]
   5d1c8:	aa1403e0 	mov	x0, x20
   5d1cc:	d2800b02 	mov	x2, #0x58                  	// #88
   5d1d0:	94000894 	bl	5f420 <memcpy>
   5d1d4:	f9400e73 	ldr	x19, [x19, #24]
   5d1d8:	17fffff6 	b	5d1b0 <bl31_params_parse_helper+0x64>
   5d1dc:	7100141f 	cmp	w0, #0x5
   5d1e0:	54ffffa1 	b.ne	5d1d4 <bl31_params_parse_helper+0x88>  // b.any
   5d1e4:	b4ffff95 	cbz	x21, 5d1d4 <bl31_params_parse_helper+0x88>
   5d1e8:	aa1503e0 	mov	x0, x21
   5d1ec:	d2800b02 	mov	x2, #0x58                  	// #88
   5d1f0:	f9400a61 	ldr	x1, [x19, #16]
   5d1f4:	17fffff7 	b	5d1d0 <bl31_params_parse_helper+0x84>

000000000005d1f8 <bl_aux_params_parse>:
   5d1f8:	a9bd7bfd 	stp	x29, x30, [sp, #-48]!
   5d1fc:	910003fd 	mov	x29, sp
   5d200:	a90153f3 	stp	x19, x20, [sp, #16]
   5d204:	aa0103f4 	mov	x20, x1
   5d208:	aa0003f3 	mov	x19, x0
   5d20c:	f90013f5 	str	x21, [sp, #32]
   5d210:	f0000015 	adrp	x21, 60000 <version_string+0x6c>
   5d214:	910e52b5 	add	x21, x21, #0x394
   5d218:	b50000b3 	cbnz	x19, 5d22c <bl_aux_params_parse+0x34>
   5d21c:	a94153f3 	ldp	x19, x20, [sp, #16]
   5d220:	f94013f5 	ldr	x21, [sp, #32]
   5d224:	a8c37bfd 	ldp	x29, x30, [sp], #48
   5d228:	d65f03c0 	ret
   5d22c:	b50000d4 	cbnz	x20, 5d244 <bl_aux_params_parse+0x4c>
   5d230:	f9400261 	ldr	x1, [x19]
   5d234:	aa1503e0 	mov	x0, x21
   5d238:	97ffff16 	bl	5ce90 <tf_log>
   5d23c:	f9400673 	ldr	x19, [x19, #8]
   5d240:	17fffff6 	b	5d218 <bl_aux_params_parse+0x20>
   5d244:	aa1303e0 	mov	x0, x19
   5d248:	d63f0280 	blr	x20
   5d24c:	72001c1f 	tst	w0, #0xff
   5d250:	54ffff00 	b.eq	5d230 <bl_aux_params_parse+0x38>  // b.none
   5d254:	17fffffa 	b	5d23c <bl_aux_params_parse+0x44>

000000000005d258 <init_xlation_table_inner>:
   5d258:	a9ba7bfd 	stp	x29, x30, [sp, #-96]!
   5d25c:	910003fd 	mov	x29, sp
   5d260:	a90153f3 	stp	x19, x20, [sp, #16]
   5d264:	aa0203f4 	mov	x20, x2
   5d268:	0b030c62 	add	w2, w3, w3, lsl #3
   5d26c:	a9025bf5 	stp	x21, x22, [sp, #32]
   5d270:	2a0303f5 	mov	w21, w3
   5d274:	71000ebf 	cmp	w21, #0x3
   5d278:	a90363f7 	stp	x23, x24, [sp, #48]
   5d27c:	528004f8 	mov	w24, #0x27                  	// #39
   5d280:	4b020302 	sub	w2, w24, w2
   5d284:	d2800023 	mov	x3, #0x1                   	// #1
   5d288:	d2803ff8 	mov	x24, #0x1ff                 	// #511
   5d28c:	90000077 	adrp	x23, 69000 <pmu_slpdata+0x40>
   5d290:	912d72f7 	add	x23, x23, #0xb5c
   5d294:	a9046bf9 	stp	x25, x26, [sp, #64]
   5d298:	d2800079 	mov	x25, #0x3                   	// #3
   5d29c:	9000019a 	adrp	x26, 8d000 <xlat_tables>
   5d2a0:	9a830339 	csel	x25, x25, x3, eq  // eq = none
   5d2a4:	9100035a 	add	x26, x26, #0x0
   5d2a8:	9ac22318 	lsl	x24, x24, x2
   5d2ac:	a90573fb 	stp	x27, x28, [sp, #80]
   5d2b0:	9ac2207c 	lsl	x28, x3, x2
   5d2b4:	a940cc02 	ldp	x2, x19, [x0, #8]
   5d2b8:	b4000293 	cbz	x19, 5d308 <init_xlation_table_inner+0xb0>
   5d2bc:	8b020273 	add	x19, x19, x2
   5d2c0:	d1000673 	sub	x19, x19, #0x1
   5d2c4:	eb01027f 	cmp	x19, x1
   5d2c8:	540001e2 	b.cs	5d304 <init_xlation_table_inner+0xac>  // b.hs, b.nlast
   5d2cc:	91008000 	add	x0, x0, #0x20
   5d2d0:	ea18003f 	tst	x1, x24
   5d2d4:	540000a0 	b.eq	5d2e8 <init_xlation_table_inner+0x90>  // b.none
   5d2d8:	d1000423 	sub	x3, x1, #0x1
   5d2dc:	b27f7be2 	mov	x2, #0xfffffffe            	// #4294967294
   5d2e0:	eb02007f 	cmp	x3, x2
   5d2e4:	54fffe89 	b.ls	5d2b4 <init_xlation_table_inner+0x5c>  // b.plast
   5d2e8:	a94153f3 	ldp	x19, x20, [sp, #16]
   5d2ec:	a9425bf5 	ldp	x21, x22, [sp, #32]
   5d2f0:	a94363f7 	ldp	x23, x24, [sp, #48]
   5d2f4:	a9446bf9 	ldp	x25, x26, [sp, #64]
   5d2f8:	a94573fb 	ldp	x27, x28, [sp, #80]
   5d2fc:	a8c67bfd 	ldp	x29, x30, [sp], #96
   5d300:	d65f03c0 	ret
   5d304:	92800013 	mov	x19, #0xffffffffffffffff    	// #-1
   5d308:	8b1c003b 	add	x27, x1, x28
   5d30c:	d1000766 	sub	x6, x27, #0x1
   5d310:	eb0200df 	cmp	x6, x2
   5d314:	54000903 	b.cc	5d434 <init_xlation_table_inner+0x1dc>  // b.lo, b.ul, b.last
   5d318:	340005d5 	cbz	w21, 5d3d0 <init_xlation_table_inner+0x178>
   5d31c:	aa0003e4 	mov	x4, x0
   5d320:	12800005 	mov	w5, #0xffffffff            	// #-1
   5d324:	f9400883 	ldr	x3, [x4, #16]
   5d328:	b4000283 	cbz	x3, 5d378 <init_xlation_table_inner+0x120>
   5d32c:	f9400487 	ldr	x7, [x4, #8]
   5d330:	eb0700df 	cmp	x6, x7
   5d334:	54000223 	b.cc	5d378 <init_xlation_table_inner+0x120>  // b.lo, b.ul, b.last
   5d338:	8b070063 	add	x3, x3, x7
   5d33c:	d1000463 	sub	x3, x3, #0x1
   5d340:	eb03003f 	cmp	x1, x3
   5d344:	54000168 	b.hi	5d370 <init_xlation_table_inner+0x118>  // b.pmore
   5d348:	35000085 	cbnz	w5, 5d358 <init_xlation_table_inner+0x100>
   5d34c:	b9401888 	ldr	w8, [x4, #24]
   5d350:	6b16011f 	cmp	w8, w22
   5d354:	540000e0 	b.eq	5d370 <init_xlation_table_inner+0x118>  // b.none
   5d358:	eb07003f 	cmp	x1, x7
   5d35c:	540003a3 	b.cc	5d3d0 <init_xlation_table_inner+0x178>  // b.lo, b.ul, b.last
   5d360:	eb0300df 	cmp	x6, x3
   5d364:	54000368 	b.hi	5d3d0 <init_xlation_table_inner+0x178>  // b.pmore
   5d368:	b9401896 	ldr	w22, [x4, #24]
   5d36c:	52800005 	mov	w5, #0x0                   	// #0
   5d370:	91008084 	add	x4, x4, #0x20
   5d374:	17ffffec 	b	5d324 <init_xlation_table_inner+0xcc>
   5d378:	350002c5 	cbnz	w5, 5d3d0 <init_xlation_table_inner+0x178>
   5d37c:	f9400013 	ldr	x19, [x0]
   5d380:	f0000044 	adrp	x4, 68000 <dist_ctx+0x1e98>
   5d384:	f27d02df 	tst	x22, #0x8
   5d388:	8b130033 	add	x19, x1, x19
   5d38c:	cb020273 	sub	x19, x19, x2
   5d390:	aa190262 	orr	x2, x19, x25
   5d394:	d37f7ed3 	ubfiz	x19, x22, #1, #32
   5d398:	f9447484 	ldr	x4, [x4, #2280]
   5d39c:	927b0273 	and	x19, x19, #0x20
   5d3a0:	b2760263 	orr	x3, x19, #0x400
   5d3a4:	9a9f17f3 	cset	x19, eq  // eq = none
   5d3a8:	aa131c93 	orr	x19, x4, x19, lsl #7
   5d3ac:	aa020273 	orr	x19, x19, x2
   5d3b0:	aa030273 	orr	x19, x19, x3
   5d3b4:	72000ac3 	ands	w3, w22, #0x7
   5d3b8:	54000261 	b.ne	5d404 <init_xlation_table_inner+0x1ac>  // b.any
   5d3bc:	f0000042 	adrp	x2, 68000 <dist_ctx+0x1e98>
   5d3c0:	f9447842 	ldr	x2, [x2, #2288]
   5d3c4:	aa020273 	orr	x19, x19, x2
   5d3c8:	d2804082 	mov	x2, #0x204                 	// #516
   5d3cc:	aa020273 	orr	x19, x19, x2
   5d3d0:	b100067f 	cmn	x19, #0x1
   5d3d4:	54000121 	b.ne	5d3f8 <init_xlation_table_inner+0x1a0>  // b.any
   5d3d8:	b94002e3 	ldr	w3, [x23]
   5d3dc:	d3747c62 	ubfiz	x2, x3, #12, #32
   5d3e0:	11000463 	add	w3, w3, #0x1
   5d3e4:	8b1a0042 	add	x2, x2, x26
   5d3e8:	b90002e3 	str	w3, [x23]
   5d3ec:	b2400453 	orr	x19, x2, #0x3
   5d3f0:	110006a3 	add	w3, w21, #0x1
   5d3f4:	97ffff99 	bl	5d258 <init_xlation_table_inner>
   5d3f8:	aa1b03e1 	mov	x1, x27
   5d3fc:	f8008693 	str	x19, [x20], #8
   5d400:	17ffffb4 	b	5d2d0 <init_xlation_table_inner+0x78>
   5d404:	52800502 	mov	w2, #0x28                  	// #40
   5d408:	6a0202df 	tst	w22, w2
   5d40c:	54000080 	b.eq	5d41c <init_xlation_table_inner+0x1c4>  // b.none
   5d410:	f0000042 	adrp	x2, 68000 <dist_ctx+0x1e98>
   5d414:	f9447842 	ldr	x2, [x2, #2288]
   5d418:	aa020273 	orr	x19, x19, x2
   5d41c:	b2780662 	orr	x2, x19, #0x300
   5d420:	7100087f 	cmp	w3, #0x2
   5d424:	d2804104 	mov	x4, #0x208                 	// #520
   5d428:	aa040273 	orr	x19, x19, x4
   5d42c:	9a821273 	csel	x19, x19, x2, ne  // ne = any
   5d430:	17ffffe8 	b	5d3d0 <init_xlation_table_inner+0x178>
   5d434:	d2800013 	mov	x19, #0x0                   	// #0
   5d438:	17fffff0 	b	5d3f8 <init_xlation_table_inner+0x1a0>

000000000005d43c <print_mmap>:
   5d43c:	d65f03c0 	ret

000000000005d440 <mmap_add_region>:
   5d440:	b4000722 	cbz	x2, 5d524 <mmap_add_region+0xe4>
   5d444:	a9bc7bfd 	stp	x29, x30, [sp, #-64]!
   5d448:	910003fd 	mov	x29, sp
   5d44c:	a90153f3 	stp	x19, x20, [sp, #16]
   5d450:	aa0103f3 	mov	x19, x1
   5d454:	f0000041 	adrp	x1, 68000 <dist_ctx+0x1e98>
   5d458:	9123e021 	add	x1, x1, #0x8f8
   5d45c:	a9025bf5 	stp	x21, x22, [sp, #32]
   5d460:	aa0203f5 	mov	x21, x2
   5d464:	aa0103e2 	mov	x2, x1
   5d468:	a90363f7 	stp	x23, x24, [sp, #48]
   5d46c:	aa0003f7 	mov	x23, x0
   5d470:	2a0303f8 	mov	w24, w3
   5d474:	f9400420 	ldr	x0, [x1, #8]
   5d478:	aa0103e4 	mov	x4, x1
   5d47c:	91008021 	add	x1, x1, #0x20
   5d480:	eb13001f 	cmp	x0, x19
   5d484:	540003e2 	b.cs	5d500 <mmap_add_region+0xc0>  // b.hs, b.nlast
   5d488:	f85f0020 	ldur	x0, [x1, #-16]
   5d48c:	b5ffff40 	cbnz	x0, 5d474 <mmap_add_region+0x34>
   5d490:	aa0403f4 	mov	x20, x4
   5d494:	910c8042 	add	x2, x2, #0x320
   5d498:	aa1403e1 	mov	x1, x20
   5d49c:	cb140042 	sub	x2, x2, x20
   5d4a0:	91008280 	add	x0, x20, #0x20
   5d4a4:	940007e7 	bl	5f440 <memmove>
   5d4a8:	d10006b6 	sub	x22, x21, #0x1
   5d4ac:	f0000040 	adrp	x0, 68000 <dist_ctx+0x1e98>
   5d4b0:	a9004e97 	stp	x23, x19, [x20]
   5d4b4:	8b1702d6 	add	x22, x22, x23
   5d4b8:	f9461c01 	ldr	x1, [x0, #3128]
   5d4bc:	f9000a95 	str	x21, [x20, #16]
   5d4c0:	b9001a98 	str	w24, [x20, #24]
   5d4c4:	eb16003f 	cmp	x1, x22
   5d4c8:	54000042 	b.cs	5d4d0 <mmap_add_region+0x90>  // b.hs, b.nlast
   5d4cc:	f9061c16 	str	x22, [x0, #3128]
   5d4d0:	f0000040 	adrp	x0, 68000 <dist_ctx+0x1e98>
   5d4d4:	d1000673 	sub	x19, x19, #0x1
   5d4d8:	8b150273 	add	x19, x19, x21
   5d4dc:	f9462001 	ldr	x1, [x0, #3136]
   5d4e0:	eb13003f 	cmp	x1, x19
   5d4e4:	54000042 	b.cs	5d4ec <mmap_add_region+0xac>  // b.hs, b.nlast
   5d4e8:	f9062013 	str	x19, [x0, #3136]
   5d4ec:	a94153f3 	ldp	x19, x20, [sp, #16]
   5d4f0:	a9425bf5 	ldp	x21, x22, [sp, #32]
   5d4f4:	a94363f7 	ldp	x23, x24, [sp, #48]
   5d4f8:	a8c47bfd 	ldp	x29, x30, [sp], #64
   5d4fc:	d65f03c0 	ret
   5d500:	f9400480 	ldr	x0, [x4, #8]
   5d504:	aa0403f4 	mov	x20, x4
   5d508:	91008084 	add	x4, x4, #0x20
   5d50c:	eb13001f 	cmp	x0, x19
   5d510:	54fffc21 	b.ne	5d494 <mmap_add_region+0x54>  // b.any
   5d514:	f85f0080 	ldur	x0, [x4, #-16]
   5d518:	eb15001f 	cmp	x0, x21
   5d51c:	54ffff28 	b.hi	5d500 <mmap_add_region+0xc0>  // b.pmore
   5d520:	17ffffdd 	b	5d494 <mmap_add_region+0x54>
   5d524:	d65f03c0 	ret

000000000005d528 <mmap_add>:
   5d528:	a9be7bfd 	stp	x29, x30, [sp, #-32]!
   5d52c:	910003fd 	mov	x29, sp
   5d530:	f9000bf3 	str	x19, [sp, #16]
   5d534:	aa0003f3 	mov	x19, x0
   5d538:	f9400a62 	ldr	x2, [x19, #16]
   5d53c:	b9401a63 	ldr	w3, [x19, #24]
   5d540:	b50000a2 	cbnz	x2, 5d554 <mmap_add+0x2c>
   5d544:	35000083 	cbnz	w3, 5d554 <mmap_add+0x2c>
   5d548:	f9400bf3 	ldr	x19, [sp, #16]
   5d54c:	a8c27bfd 	ldp	x29, x30, [sp], #32
   5d550:	d65f03c0 	ret
   5d554:	f9400661 	ldr	x1, [x19, #8]
   5d558:	f8420660 	ldr	x0, [x19], #32
   5d55c:	97ffffb9 	bl	5d440 <mmap_add_region>
   5d560:	17fffff6 	b	5d538 <mmap_add+0x10>

000000000005d564 <init_xlation_table>:
   5d564:	a9bc7bfd 	stp	x29, x30, [sp, #-64]!
   5d568:	910003fd 	mov	x29, sp
   5d56c:	a90153f3 	stp	x19, x20, [sp, #16]
   5d570:	aa0403f3 	mov	x19, x4
   5d574:	aa0303f4 	mov	x20, x3
   5d578:	a9025bf5 	stp	x21, x22, [sp, #32]
   5d57c:	aa0103f6 	mov	x22, x1
   5d580:	aa0003f5 	mov	x21, x0
   5d584:	a90363f7 	stp	x23, x24, [sp, #48]
   5d588:	2a0203f7 	mov	w23, w2
   5d58c:	9400001b 	bl	5d5f8 <xlat_arch_current_el>
   5d590:	2a0003f8 	mov	w24, w0
   5d594:	9400001c 	bl	5d604 <xlat_arch_get_xn_desc>
   5d598:	f0000041 	adrp	x1, 68000 <dist_ctx+0x1e98>
   5d59c:	71000f1f 	cmp	w24, #0x3
   5d5a0:	2a1703e3 	mov	w3, w23
   5d5a4:	aa1603e2 	mov	x2, x22
   5d5a8:	f9047820 	str	x0, [x1, #2288]
   5d5ac:	9a9f17e0 	cset	x0, eq  // eq = none
   5d5b0:	f0000041 	adrp	x1, 68000 <dist_ctx+0x1e98>
   5d5b4:	d37ae400 	lsl	x0, x0, #6
   5d5b8:	f9047420 	str	x0, [x1, #2280]
   5d5bc:	aa1503e1 	mov	x1, x21
   5d5c0:	f0000040 	adrp	x0, 68000 <dist_ctx+0x1e98>
   5d5c4:	9123e000 	add	x0, x0, #0x8f8
   5d5c8:	97ffff24 	bl	5d258 <init_xlation_table_inner>
   5d5cc:	f0000040 	adrp	x0, 68000 <dist_ctx+0x1e98>
   5d5d0:	a9425bf5 	ldp	x21, x22, [sp, #32]
   5d5d4:	f9462000 	ldr	x0, [x0, #3136]
   5d5d8:	a94363f7 	ldp	x23, x24, [sp, #48]
   5d5dc:	f9000280 	str	x0, [x20]
   5d5e0:	f0000040 	adrp	x0, 68000 <dist_ctx+0x1e98>
   5d5e4:	f9461c00 	ldr	x0, [x0, #3128]
   5d5e8:	f9000260 	str	x0, [x19]
   5d5ec:	a94153f3 	ldp	x19, x20, [sp, #16]
   5d5f0:	a8c47bfd 	ldp	x29, x30, [sp], #64
   5d5f4:	d65f03c0 	ret

000000000005d5f8 <xlat_arch_current_el>:
   5d5f8:	d5384240 	mrs	x0, currentel
   5d5fc:	53020c00 	ubfx	w0, w0, #2, #2
   5d600:	d65f03c0 	ret

000000000005d604 <xlat_arch_get_xn_desc>:
   5d604:	71000c1f 	cmp	w0, #0x3
   5d608:	d2e00801 	mov	x1, #0x40000000000000      	// #18014398509481984
   5d60c:	d2e00400 	mov	x0, #0x20000000000000      	// #9007199254740992
   5d610:	9a800020 	csel	x0, x1, x0, eq  // eq = none
   5d614:	d65f03c0 	ret

000000000005d618 <init_xlat_tables>:
   5d618:	a9be7bfd 	stp	x29, x30, [sp, #-32]!
   5d61c:	910003fd 	mov	x29, sp
   5d620:	97ffff87 	bl	5d43c <print_mmap>
   5d624:	d2800000 	mov	x0, #0x0                   	// #0
   5d628:	910043e4 	add	x4, sp, #0x10
   5d62c:	910063e3 	add	x3, sp, #0x18
   5d630:	52800022 	mov	w2, #0x1                   	// #1
   5d634:	90000041 	adrp	x1, 65000 <__STACKS_START__+0x2f80>
   5d638:	91080021 	add	x1, x1, #0x200
   5d63c:	97ffffca 	bl	5d564 <init_xlation_table>
   5d640:	f9400be0 	ldr	x0, [sp, #16]
   5d644:	f2540c1f 	tst	x0, #0xf00000000000
   5d648:	540001a1 	b.ne	5d67c <init_xlat_tables+0x64>  // b.any
   5d64c:	f256041f 	tst	x0, #0xc0000000000
   5d650:	540001a1 	b.ne	5d684 <init_xlat_tables+0x6c>  // b.any
   5d654:	f258041f 	tst	x0, #0x30000000000
   5d658:	540001a1 	b.ne	5d68c <init_xlat_tables+0x74>  // b.any
   5d65c:	f25c0c1f 	tst	x0, #0xf000000000
   5d660:	540001a1 	b.ne	5d694 <init_xlat_tables+0x7c>  // b.any
   5d664:	f2600c1f 	tst	x0, #0xf00000000
   5d668:	9a9f07e0 	cset	x0, ne  // ne = any
   5d66c:	f0000041 	adrp	x1, 68000 <dist_ctx+0x1e98>
   5d670:	f9062420 	str	x0, [x1, #3144]
   5d674:	a8c27bfd 	ldp	x29, x30, [sp], #32
   5d678:	d65f03c0 	ret
   5d67c:	d28000a0 	mov	x0, #0x5                   	// #5
   5d680:	17fffffb 	b	5d66c <init_xlat_tables+0x54>
   5d684:	d2800080 	mov	x0, #0x4                   	// #4
   5d688:	17fffff9 	b	5d66c <init_xlat_tables+0x54>
   5d68c:	d2800060 	mov	x0, #0x3                   	// #3
   5d690:	17fffff7 	b	5d66c <init_xlat_tables+0x54>
   5d694:	d2800040 	mov	x0, #0x2                   	// #2
   5d698:	17fffff5 	b	5d66c <init_xlat_tables+0x54>

000000000005d69c <enable_mmu_el3>:
   5d69c:	d2809fe1 	mov	x1, #0x4ff                 	// #1279
   5d6a0:	f2a00881 	movk	x1, #0x44, lsl #16
   5d6a4:	d51ea201 	msr	mair_el3, x1
   5d6a8:	d50e871f 	tlbi	alle3
   5d6ac:	d2800401 	mov	x1, #0x20                  	// #32
   5d6b0:	f27f001f 	tst	x0, #0x2
   5d6b4:	d286a402 	mov	x2, #0x3520                	// #13600
   5d6b8:	9a821022 	csel	x2, x1, x2, ne  // ne = any
   5d6bc:	f0000041 	adrp	x1, 68000 <dist_ctx+0x1e98>
   5d6c0:	f9462421 	ldr	x1, [x1, #3144]
   5d6c4:	aa014041 	orr	x1, x2, x1, lsl #16
   5d6c8:	d2b01002 	mov	x2, #0x80800000            	// #2155872256
   5d6cc:	aa020021 	orr	x1, x1, x2
   5d6d0:	d51e2041 	msr	tcr_el3, x1
   5d6d4:	90000041 	adrp	x1, 65000 <__STACKS_START__+0x2f80>
   5d6d8:	91080021 	add	x1, x1, #0x200
   5d6dc:	d51e2001 	msr	ttbr0_el3, x1
   5d6e0:	d5033b9f 	dsb	ish
   5d6e4:	d5033fdf 	isb
   5d6e8:	d53e1003 	mrs	x3, sctlr_el3
   5d6ec:	52800021 	mov	w1, #0x1                   	// #1
   5d6f0:	121d7862 	and	w2, w3, #0xfffffffb
   5d6f4:	72a00101 	movk	w1, #0x8, lsl #16
   5d6f8:	2a010042 	orr	w2, w2, w1
   5d6fc:	11001021 	add	w1, w1, #0x4
   5d700:	f240001f 	tst	x0, #0x1
   5d704:	2a030021 	orr	w1, w1, w3
   5d708:	1a820020 	csel	w0, w1, w2, eq  // eq = none
   5d70c:	d51e1000 	msr	sctlr_el3, x0
   5d710:	d5033fdf 	isb
   5d714:	d65f03c0 	ret

000000000005d718 <enable_mmu_direct_el3>:
   5d718:	17ffffe1 	b	5d69c <enable_mmu_el3>

000000000005d71c <plat_get_target_pwr_state>:
   5d71c:	d2800003 	mov	x3, #0x0                   	// #0
   5d720:	52800040 	mov	w0, #0x2                   	// #2
   5d724:	38636824 	ldrb	w4, [x1, x3]
   5d728:	91000463 	add	x3, x3, #0x1
   5d72c:	6b00009f 	cmp	w4, w0
   5d730:	1a809080 	csel	w0, w4, w0, ls  // ls = plast
   5d734:	6b03005f 	cmp	w2, w3
   5d738:	12001c00 	and	w0, w0, #0xff
   5d73c:	54ffff41 	b.ne	5d724 <plat_get_target_pwr_state+0x8>  // b.any
   5d740:	d65f03c0 	ret

000000000005d744 <report_unhandled_exception>:
   5d744:	94000236 	bl	5e01c <plat_panic_handler>

000000000005d748 <enter_lower_el_sync_ea>:
   5d748:	f9007bfe 	str	x30, [sp, #240]
   5d74c:	d53e521e 	mrs	x30, esr_el3
   5d750:	d35a7fde 	ubfx	x30, x30, #26, #6
   5d754:	f10083df 	cmp	x30, #0x20
   5d758:	540001a0 	b.eq	5d78c <enter_lower_el_sync_ea+0x44>  // b.none
   5d75c:	f10093df 	cmp	x30, #0x24
   5d760:	54000160 	b.eq	5d78c <enter_lower_el_sync_ea+0x44>  // b.none
   5d764:	a90007e0 	stp	x0, x1, [sp]
   5d768:	a9010fe2 	stp	x2, x3, [sp, #16]
   5d76c:	a90217e4 	stp	x4, x5, [sp, #32]
   5d770:	94000147 	bl	5dc8c <get_cpu_ops_ptr>
   5d774:	f9401000 	ldr	x0, [x0, #32]
   5d778:	b40001a0 	cbz	x0, 5d7ac <enter_lower_el_sync_ea+0x64>
   5d77c:	d53e5201 	mrs	x1, esr_el3
   5d780:	d35a7c21 	ubfx	x1, x1, #26, #6
   5d784:	d63f0000 	blr	x0
   5d788:	14000009 	b	5d7ac <enter_lower_el_sync_ea+0x64>
   5d78c:	d53e521e 	mrs	x30, esr_el3
   5d790:	3648015e 	tbz	w30, #9, 5d7b8 <enter_lower_el_sync_ea+0x70>
   5d794:	9400018f 	bl	5ddd0 <save_gp_pmcr_pauth_regs>
   5d798:	d2800020 	mov	x0, #0x1                   	// #1
   5d79c:	d53e5201 	mrs	x1, esr_el3
   5d7a0:	9400000f 	bl	5d7dc <delegate_sync_ea>
   5d7a4:	d50040bf 	msr	spsel, #0x0
   5d7a8:	140001c1 	b	5deac <el3_exit>
   5d7ac:	a94007e0 	ldp	x0, x1, [sp]
   5d7b0:	a9410fe2 	ldp	x2, x3, [sp, #16]
   5d7b4:	a94217e4 	ldp	x4, x5, [sp, #32]
   5d7b8:	f9407bfe 	ldr	x30, [sp, #240]
   5d7bc:	97ffffe2 	bl	5d744 <report_unhandled_exception>

000000000005d7c0 <enter_lower_el_async_ea>:
   5d7c0:	f9007bfe 	str	x30, [sp, #240]

000000000005d7c4 <handle_lower_el_async_ea>:
   5d7c4:	94000183 	bl	5ddd0 <save_gp_pmcr_pauth_regs>
   5d7c8:	d2800000 	mov	x0, #0x0                   	// #0
   5d7cc:	d53e5201 	mrs	x1, esr_el3
   5d7d0:	94000004 	bl	5d7e0 <delegate_async_ea>
   5d7d4:	d50040bf 	msr	spsel, #0x0
   5d7d8:	140001b5 	b	5deac <el3_exit>

000000000005d7dc <delegate_sync_ea>:
   5d7dc:	14000002 	b	5d7e4 <ea_proceed>

000000000005d7e0 <delegate_async_ea>:
   5d7e0:	14000001 	b	5d7e4 <ea_proceed>

000000000005d7e4 <ea_proceed>:
   5d7e4:	f94087e5 	ldr	x5, [sp, #264]
   5d7e8:	b4000045 	cbz	x5, 5d7f0 <ea_proceed+0xc>
   5d7ec:	940002d6 	bl	5e344 <plat_handle_double_fault>
   5d7f0:	d53e4002 	mrs	x2, spsr_el3
   5d7f4:	d53e4023 	mrs	x3, elr_el3
   5d7f8:	a9118fe2 	stp	x2, x3, [sp, #280]
   5d7fc:	d53e1104 	mrs	x4, scr_el3
   5d800:	d53e5205 	mrs	x5, esr_el3
   5d804:	a91017e4 	stp	x4, x5, [sp, #256]
   5d808:	aa1f03e2 	mov	x2, xzr
   5d80c:	910003e3 	mov	x3, sp
   5d810:	d3400084 	ubfx	x4, x4, #0, #1
   5d814:	f9408be5 	ldr	x5, [sp, #272]
   5d818:	d50040bf 	msr	spsel, #0x0
   5d81c:	910000bf 	mov	sp, x5
   5d820:	aa1e03fd 	mov	x29, x30
   5d824:	97fffe2b 	bl	5d0d0 <plat_ea_handler>
   5d828:	d50041bf 	msr	spsel, #0x1
   5d82c:	a9518be1 	ldp	x1, x2, [sp, #280]
   5d830:	d51e4001 	msr	spsr_el3, x1
   5d834:	d51e4022 	msr	elr_el3, x2
   5d838:	a95013e3 	ldp	x3, x4, [sp, #256]
   5d83c:	d51e1103 	msr	scr_el3, x3
   5d840:	d51e5204 	msr	esr_el3, x4
   5d844:	f90087ff 	str	xzr, [sp, #264]
   5d848:	d65f03a0 	ret	x29

000000000005d84c <smc_handler>:
   5d84c:	37f00380 	tbnz	w0, #30, 5d8bc <smc_prohibited>

000000000005d850 <smc_handler64>:
   5d850:	94000160 	bl	5ddd0 <save_gp_pmcr_pauth_regs>
   5d854:	aa1f03e5 	mov	x5, xzr
   5d858:	910003e6 	mov	x6, sp
   5d85c:	f94088cc 	ldr	x12, [x6, #272]
   5d860:	d50040bf 	msr	spsel, #0x0
   5d864:	d53e4010 	mrs	x16, spsr_el3
   5d868:	d53e4031 	mrs	x17, elr_el3
   5d86c:	d53e1112 	mrs	x18, scr_el3
   5d870:	a911c4d0 	stp	x16, x17, [x6, #280]
   5d874:	f90080d2 	str	x18, [x6, #256]
   5d878:	b3400247 	bfxil	x7, x18, #0, #1
   5d87c:	9100019f 	mov	sp, x12
   5d880:	d3587410 	ubfx	x16, x0, #24, #6
   5d884:	d35f7c0f 	ubfx	x15, x0, #31, #1
   5d888:	aa0f1a10 	orr	x16, x16, x15, lsl #6
   5d88c:	9000006e 	adrp	x14, 69000 <pmu_slpdata+0x40>
   5d890:	912d81ce 	add	x14, x14, #0xb60
   5d894:	387069cf 	ldrb	w15, [x14, x16]
   5d898:	373800cf 	tbnz	w15, #7, 5d8b0 <smc_unknown>
   5d89c:	10015aeb 	adr	x11, 603f8 <__svc_desc_rockchip_sip_svc+0x18>
   5d8a0:	531b69ea 	lsl	w10, w15, #5
   5d8a4:	f86a496f 	ldr	x15, [x11, w10, uxtw]
   5d8a8:	d63f01e0 	blr	x15
   5d8ac:	14000180 	b	5deac <el3_exit>

000000000005d8b0 <smc_unknown>:
   5d8b0:	92800000 	mov	x0, #0xffffffffffffffff    	// #-1
   5d8b4:	f90000c0 	str	x0, [x6]
   5d8b8:	1400017d 	b	5deac <el3_exit>

000000000005d8bc <smc_prohibited>:
   5d8bc:	a94e77fc 	ldp	x28, x29, [sp, #224]
   5d8c0:	f9407bfe 	ldr	x30, [sp, #240]
   5d8c4:	92800000 	mov	x0, #0xffffffffffffffff    	// #-1
   5d8c8:	d69f03e0 	eret
   5d8cc:	d503379f 	dsb	nsh
   5d8d0:	d5033fdf 	isb

000000000005d8d4 <console_16550_core_init>:
   5d8d4:	b4000340 	cbz	x0, 5d93c <init_fail>
   5d8d8:	34000321 	cbz	w1, 5d93c <init_fail>
   5d8dc:	34000302 	cbz	w2, 5d93c <init_fail>
   5d8e0:	531c6c42 	lsl	w2, w2, #4
   5d8e4:	1ac20822 	udiv	w2, w1, w2
   5d8e8:	12001c41 	and	w1, w2, #0xff
   5d8ec:	53087c42 	lsr	w2, w2, #8
   5d8f0:	12001c42 	and	w2, w2, #0xff
   5d8f4:	b9400c03 	ldr	w3, [x0, #12]
   5d8f8:	32190063 	orr	w3, w3, #0x80
   5d8fc:	b9000c03 	str	w3, [x0, #12]
   5d900:	b9000001 	str	w1, [x0]
   5d904:	b9000402 	str	w2, [x0, #4]
   5d908:	12801002 	mov	w2, #0xffffff7f            	// #-129
   5d90c:	0a020063 	and	w3, w3, w2
   5d910:	b9000c03 	str	w3, [x0, #12]
   5d914:	52800063 	mov	w3, #0x3                   	// #3
   5d918:	b9000c03 	str	w3, [x0, #12]
   5d91c:	52800003 	mov	w3, #0x0                   	// #0
   5d920:	b9000403 	str	w3, [x0, #4]
   5d924:	52800123 	mov	w3, #0x9                   	// #9
   5d928:	b9000803 	str	w3, [x0, #8]
   5d92c:	52800063 	mov	w3, #0x3                   	// #3
   5d930:	b9001003 	str	w3, [x0, #16]
   5d934:	52800020 	mov	w0, #0x1                   	// #1
   5d938:	d65f03c0 	ret

000000000005d93c <init_fail>:
   5d93c:	52800000 	mov	w0, #0x0                   	// #0
   5d940:	d65f03c0 	ret

000000000005d944 <console_16550_register>:
   5d944:	aa1e03e7 	mov	x7, x30
   5d948:	aa0303e6 	mov	x6, x3
   5d94c:	b4000266 	cbz	x6, 5d998 <register_fail>
   5d950:	f90014c0 	str	x0, [x6, #40]
   5d954:	34000061 	cbz	w1, 5d960 <register_16550>
   5d958:	97ffffdf 	bl	5d8d4 <console_16550_core_init>
   5d95c:	b40001e0 	cbz	x0, 5d998 <register_fail>

000000000005d960 <register_16550>:
   5d960:	aa0603e0 	mov	x0, x6
   5d964:	aa0703fe 	mov	x30, x7
   5d968:	90000001 	adrp	x1, 5d000 <console_putc+0x70>
   5d96c:	91275021 	add	x1, x1, #0x9d4
   5d970:	f9000801 	str	x1, [x0, #16]
   5d974:	90000001 	adrp	x1, 5d000 <console_putc+0x70>
   5d978:	9127d021 	add	x1, x1, #0x9f4
   5d97c:	f9000c01 	str	x1, [x0, #24]
   5d980:	90000001 	adrp	x1, 5d000 <console_putc+0x70>
   5d984:	91284021 	add	x1, x1, #0xa10
   5d988:	f9001001 	str	x1, [x0, #32]
   5d98c:	d28000a1 	mov	x1, #0x5                   	// #5
   5d990:	f9000401 	str	x1, [x0, #8]
   5d994:	17fffd6f 	b	5cf50 <console_register>

000000000005d998 <register_fail>:
   5d998:	d65f00e0 	ret	x7

000000000005d99c <console_16550_core_putc>:
   5d99c:	7100281f 	cmp	w0, #0xa
   5d9a0:	540000e1 	b.ne	5d9bc <console_16550_core_putc+0x20>  // b.any
   5d9a4:	b9401422 	ldr	w2, [x1, #20]
   5d9a8:	121b0442 	and	w2, w2, #0x60
   5d9ac:	7101805f 	cmp	w2, #0x60
   5d9b0:	54ffffa1 	b.ne	5d9a4 <console_16550_core_putc+0x8>  // b.any
   5d9b4:	528001a2 	mov	w2, #0xd                   	// #13
   5d9b8:	b9000022 	str	w2, [x1]
   5d9bc:	b9401422 	ldr	w2, [x1, #20]
   5d9c0:	121b0442 	and	w2, w2, #0x60
   5d9c4:	7101805f 	cmp	w2, #0x60
   5d9c8:	54ffffa1 	b.ne	5d9bc <console_16550_core_putc+0x20>  // b.any
   5d9cc:	b9000020 	str	w0, [x1]
   5d9d0:	d65f03c0 	ret

000000000005d9d4 <console_16550_putc>:
   5d9d4:	f9401421 	ldr	x1, [x1, #40]
   5d9d8:	17fffff1 	b	5d99c <console_16550_core_putc>

000000000005d9dc <console_16550_core_getc>:
   5d9dc:	b9401401 	ldr	w1, [x0, #20]
   5d9e0:	36000061 	tbz	w1, #0, 5d9ec <no_char>
   5d9e4:	b9400000 	ldr	w0, [x0]
   5d9e8:	d65f03c0 	ret

000000000005d9ec <no_char>:
   5d9ec:	12800000 	mov	w0, #0xffffffff            	// #-1
   5d9f0:	d65f03c0 	ret

000000000005d9f4 <console_16550_getc>:
   5d9f4:	f9401400 	ldr	x0, [x0, #40]
   5d9f8:	17fffff9 	b	5d9dc <console_16550_core_getc>

000000000005d9fc <console_16550_core_flush>:
   5d9fc:	b9401401 	ldr	w1, [x0, #20]
   5da00:	121b0421 	and	w1, w1, #0x60
   5da04:	7101803f 	cmp	w1, #0x60
   5da08:	54ffffa1 	b.ne	5d9fc <console_16550_core_flush>  // b.any
   5da0c:	d65f03c0 	ret

000000000005da10 <console_16550_flush>:
   5da10:	f9401400 	ldr	x0, [x0, #40]
   5da14:	17fffffa 	b	5d9fc <console_16550_core_flush>

000000000005da18 <cortex_a53_disable_dcache>:
   5da18:	d53e1001 	mrs	x1, sctlr_el3
   5da1c:	927df821 	and	x1, x1, #0xfffffffffffffffb
   5da20:	d51e1001 	msr	sctlr_el3, x1
   5da24:	d5033fdf 	isb
   5da28:	d65f03c0 	ret

000000000005da2c <cortex_a53_disable_smp>:
   5da2c:	d539f220 	mrs	x0, s3_1_c15_c2_1
   5da30:	9279f800 	and	x0, x0, #0xffffffffffffffbf
   5da34:	d519f220 	msr	s3_1_c15_c2_1, x0
   5da38:	d5033fdf 	isb
   5da3c:	d5033f9f 	dsb	sy
   5da40:	d65f03c0 	ret

000000000005da44 <a53_disable_non_temporal_hint>:
   5da44:	aa1e03f1 	mov	x17, x30
   5da48:	94000006 	bl	5da60 <check_errata_disable_non_temporal_hint>
   5da4c:	b4000080 	cbz	x0, 5da5c <a53_disable_non_temporal_hint+0x18>
   5da50:	d539f201 	mrs	x1, s3_1_c15_c2_0
   5da54:	b2680021 	orr	x1, x1, #0x1000000
   5da58:	d519f201 	msr	s3_1_c15_c2_0, x1
   5da5c:	d65f0220 	ret	x17

000000000005da60 <check_errata_disable_non_temporal_hint>:
   5da60:	d2800061 	mov	x1, #0x3                   	// #3
   5da64:	1400009e 	b	5dcdc <cpu_rev_var_ls>

000000000005da68 <errata_a53_855873_wa>:
   5da68:	aa1e03f1 	mov	x17, x30
   5da6c:	94000006 	bl	5da84 <check_errata_855873>
   5da70:	b4000080 	cbz	x0, 5da80 <errata_a53_855873_wa+0x18>
   5da74:	d539f201 	mrs	x1, s3_1_c15_c2_0
   5da78:	b2540021 	orr	x1, x1, #0x100000000000
   5da7c:	d519f201 	msr	s3_1_c15_c2_0, x1
   5da80:	d65f0220 	ret	x17

000000000005da84 <check_errata_855873>:
   5da84:	d2800061 	mov	x1, #0x3                   	// #3
   5da88:	1400009a 	b	5dcf0 <cpu_rev_var_hs>

000000000005da8c <cortex_a53_reset_func>:
   5da8c:	aa1e03f3 	mov	x19, x30
   5da90:	9400008f 	bl	5dccc <cpu_get_rev_var>
   5da94:	aa0003f2 	mov	x18, x0
   5da98:	aa1203e0 	mov	x0, x18
   5da9c:	97ffffea 	bl	5da44 <a53_disable_non_temporal_hint>
   5daa0:	aa1203e0 	mov	x0, x18
   5daa4:	97fffff1 	bl	5da68 <errata_a53_855873_wa>
   5daa8:	d539f220 	mrs	x0, s3_1_c15_c2_1
   5daac:	b27a0000 	orr	x0, x0, #0x40
   5dab0:	d519f220 	msr	s3_1_c15_c2_1, x0
   5dab4:	d5033fdf 	isb
   5dab8:	d65f0260 	ret	x19

000000000005dabc <cortex_a53_core_pwr_dwn>:
   5dabc:	aa1e03f2 	mov	x18, x30
   5dac0:	97ffffd6 	bl	5da18 <cortex_a53_disable_dcache>
   5dac4:	d2800020 	mov	x0, #0x1                   	// #1
   5dac8:	940001d9 	bl	5e22c <dcsw_op_level1>
   5dacc:	aa1203fe 	mov	x30, x18
   5dad0:	17ffffd7 	b	5da2c <cortex_a53_disable_smp>

000000000005dad4 <cortex_a53_cluster_pwr_dwn>:
   5dad4:	aa1e03f2 	mov	x18, x30
   5dad8:	97ffffd0 	bl	5da18 <cortex_a53_disable_dcache>
   5dadc:	d2800020 	mov	x0, #0x1                   	// #1
   5dae0:	940001d3 	bl	5e22c <dcsw_op_level1>
   5dae4:	94000216 	bl	5e33c <plat_disable_acp>
   5dae8:	d2800020 	mov	x0, #0x1                   	// #1
   5daec:	940001d4 	bl	5e23c <dcsw_op_level2>
   5daf0:	aa1203fe 	mov	x30, x18
   5daf4:	17ffffce 	b	5da2c <cortex_a53_disable_smp>

000000000005daf8 <cortex_a72_disable_dcache>:
   5daf8:	d53e1001 	mrs	x1, sctlr_el3
   5dafc:	927df821 	and	x1, x1, #0xfffffffffffffffb
   5db00:	d51e1001 	msr	sctlr_el3, x1
   5db04:	d5033fdf 	isb
   5db08:	d65f03c0 	ret

000000000005db0c <cortex_a72_disable_l2_prefetch>:
   5db0c:	d539f220 	mrs	x0, s3_1_c15_c2_1
   5db10:	b25a0000 	orr	x0, x0, #0x4000000000
   5db14:	d2c00301 	mov	x1, #0x1800000000          	// #103079215104
   5db18:	b2600421 	orr	x1, x1, #0x300000000
   5db1c:	8a210000 	bic	x0, x0, x1
   5db20:	d519f220 	msr	s3_1_c15_c2_1, x0
   5db24:	d5033fdf 	isb
   5db28:	d65f03c0 	ret

000000000005db2c <cortex_a72_disable_hw_prefetcher>:
   5db2c:	d539f200 	mrs	x0, s3_1_c15_c2_0
   5db30:	b2480000 	orr	x0, x0, #0x100000000000000
   5db34:	d519f200 	msr	s3_1_c15_c2_0, x0
   5db38:	d5033fdf 	isb
   5db3c:	d5033b9f 	dsb	ish
   5db40:	d65f03c0 	ret

000000000005db44 <cortex_a72_disable_smp>:
   5db44:	d539f220 	mrs	x0, s3_1_c15_c2_1
   5db48:	9279f800 	and	x0, x0, #0xffffffffffffffbf
   5db4c:	d519f220 	msr	s3_1_c15_c2_1, x0
   5db50:	d65f03c0 	ret

000000000005db54 <cortex_a72_disable_ext_debug>:
   5db54:	d2800020 	mov	x0, #0x1                   	// #1
   5db58:	d5101380 	msr	osdlr_el1, x0
   5db5c:	d5033fdf 	isb
   5db60:	d5033f9f 	dsb	sy
   5db64:	d65f03c0 	ret

000000000005db68 <check_errata_cve_2017_5715>:
   5db68:	d5380400 	mrs	x0, id_aa64pfr0_el1
   5db6c:	d378ec00 	ubfx	x0, x0, #56, #4
   5db70:	f100001f 	cmp	x0, #0x0
   5db74:	54000061 	b.ne	5db80 <check_errata_cve_2017_5715+0x18>  // b.any
   5db78:	d2800020 	mov	x0, #0x1                   	// #1
   5db7c:	d65f03c0 	ret
   5db80:	d2800000 	mov	x0, #0x0                   	// #0
   5db84:	d65f03c0 	ret

000000000005db88 <cortex_a72_reset_func>:
   5db88:	aa1e03f3 	mov	x19, x30
   5db8c:	94000050 	bl	5dccc <cpu_get_rev_var>
   5db90:	aa0003f2 	mov	x18, x0
   5db94:	d5380400 	mrs	x0, id_aa64pfr0_el1
   5db98:	d378ec00 	ubfx	x0, x0, #56, #4
   5db9c:	f100001f 	cmp	x0, #0x0
   5dba0:	54000061 	b.ne	5dbac <cortex_a72_reset_func+0x24>  // b.any
   5dba4:	1001a2e0 	adr	x0, 61000 <mmu_sync_exception_sp_el0>
   5dba8:	d51ec000 	msr	vbar_el3, x0
   5dbac:	d539f200 	mrs	x0, s3_1_c15_c2_0
   5dbb0:	b2490000 	orr	x0, x0, #0x80000000000000
   5dbb4:	d519f200 	msr	s3_1_c15_c2_0, x0
   5dbb8:	d5033fdf 	isb
   5dbbc:	d5033f9f 	dsb	sy
   5dbc0:	d539f220 	mrs	x0, s3_1_c15_c2_1
   5dbc4:	b27a0000 	orr	x0, x0, #0x40
   5dbc8:	d519f220 	msr	s3_1_c15_c2_1, x0
   5dbcc:	d5033fdf 	isb
   5dbd0:	d65f0260 	ret	x19

000000000005dbd4 <cortex_a72_core_pwr_dwn>:
   5dbd4:	aa1e03f2 	mov	x18, x30
   5dbd8:	97ffffc8 	bl	5daf8 <cortex_a72_disable_dcache>
   5dbdc:	97ffffcc 	bl	5db0c <cortex_a72_disable_l2_prefetch>
   5dbe0:	97ffffd3 	bl	5db2c <cortex_a72_disable_hw_prefetcher>
   5dbe4:	d2800020 	mov	x0, #0x1                   	// #1
   5dbe8:	94000191 	bl	5e22c <dcsw_op_level1>
   5dbec:	97ffffd6 	bl	5db44 <cortex_a72_disable_smp>
   5dbf0:	aa1203fe 	mov	x30, x18
   5dbf4:	17ffffd8 	b	5db54 <cortex_a72_disable_ext_debug>

000000000005dbf8 <cortex_a72_cluster_pwr_dwn>:
   5dbf8:	aa1e03f2 	mov	x18, x30
   5dbfc:	97ffffbf 	bl	5daf8 <cortex_a72_disable_dcache>
   5dc00:	97ffffc3 	bl	5db0c <cortex_a72_disable_l2_prefetch>
   5dc04:	97ffffca 	bl	5db2c <cortex_a72_disable_hw_prefetcher>
   5dc08:	d2800020 	mov	x0, #0x1                   	// #1
   5dc0c:	94000188 	bl	5e22c <dcsw_op_level1>
   5dc10:	940001cb 	bl	5e33c <plat_disable_acp>
   5dc14:	d2800020 	mov	x0, #0x1                   	// #1
   5dc18:	94000189 	bl	5e23c <dcsw_op_level2>
   5dc1c:	97ffffca 	bl	5db44 <cortex_a72_disable_smp>
   5dc20:	aa1203fe 	mov	x30, x18
   5dc24:	17ffffcc 	b	5db54 <cortex_a72_disable_ext_debug>

000000000005dc28 <reset_handler>:
   5dc28:	aa1e03f3 	mov	x19, x30
   5dc2c:	940000ee 	bl	5dfe4 <plat_reset_handler>
   5dc30:	94000017 	bl	5dc8c <get_cpu_ops_ptr>
   5dc34:	f9400402 	ldr	x2, [x0, #8]
   5dc38:	aa1303fe 	mov	x30, x19
   5dc3c:	b4000042 	cbz	x2, 5dc44 <reset_handler+0x1c>
   5dc40:	d61f0040 	br	x2
   5dc44:	d65f03c0 	ret

000000000005dc48 <prepare_cpu_pwr_dwn>:
   5dc48:	d2800022 	mov	x2, #0x1                   	// #1
   5dc4c:	eb02001f 	cmp	x0, x2
   5dc50:	9a808042 	csel	x2, x2, x0, hi  // hi = pmore
   5dc54:	d53ed041 	mrs	x1, tpidr_el3
   5dc58:	f9400820 	ldr	x0, [x1, #16]
   5dc5c:	d2800501 	mov	x1, #0x28                  	// #40
   5dc60:	8b020c21 	add	x1, x1, x2, lsl #3
   5dc64:	f8616801 	ldr	x1, [x0, x1]
   5dc68:	d61f0020 	br	x1

000000000005dc6c <init_cpu_ops>:
   5dc6c:	d53ed046 	mrs	x6, tpidr_el3
   5dc70:	f94008c0 	ldr	x0, [x6, #16]
   5dc74:	b50000a0 	cbnz	x0, 5dc88 <init_cpu_ops+0x1c>
   5dc78:	aa1e03ea 	mov	x10, x30
   5dc7c:	94000004 	bl	5dc8c <get_cpu_ops_ptr>
   5dc80:	f8010cc0 	str	x0, [x6, #16]!
   5dc84:	aa0a03fe 	mov	x30, x10
   5dc88:	d65f03c0 	ret

000000000005dc8c <get_cpu_ops_ptr>:
   5dc8c:	d5380002 	mrs	x2, midr_el1
   5dc90:	d29ffe03 	mov	x3, #0xfff0                	// #65520
   5dc94:	f2bfe003 	movk	x3, #0xff00, lsl #16
   5dc98:	0a030042 	and	w2, w2, w3
   5dc9c:	100140a5 	adr	x5, 604b0 <__cb_func_spe_drain_buffers_hookcm_entering_secure_world>
   5dca0:	d2800000 	mov	x0, #0x0                   	// #0
   5dca4:	10013ce4 	adr	x4, 60440 <__CPU_OPS_START__>
   5dca8:	eb05009f 	cmp	x4, x5
   5dcac:	540000e0 	b.eq	5dcc8 <search_def_ptr>  // b.none
   5dcb0:	f8438481 	ldr	x1, [x4], #56
   5dcb4:	0a030021 	and	w1, w1, w3
   5dcb8:	6b02003f 	cmp	w1, w2
   5dcbc:	54ffff61 	b.ne	5dca8 <get_cpu_ops_ptr+0x1c>  // b.any
   5dcc0:	d100e080 	sub	x0, x4, #0x38
   5dcc4:	d65f03c0 	ret

000000000005dcc8 <search_def_ptr>:
   5dcc8:	d65f03c0 	ret

000000000005dccc <cpu_get_rev_var>:
   5dccc:	d5380001 	mrs	x1, midr_el1
   5dcd0:	d3505c20 	ubfx	x0, x1, #16, #8
   5dcd4:	b3400c20 	bfxil	x0, x1, #0, #4
   5dcd8:	d65f03c0 	ret

000000000005dcdc <cpu_rev_var_ls>:
   5dcdc:	d2800022 	mov	x2, #0x1                   	// #1
   5dce0:	d2800003 	mov	x3, #0x0                   	// #0
   5dce4:	eb01001f 	cmp	x0, x1
   5dce8:	9a839040 	csel	x0, x2, x3, ls  // ls = plast
   5dcec:	d65f03c0 	ret

000000000005dcf0 <cpu_rev_var_hs>:
   5dcf0:	d2800022 	mov	x2, #0x1                   	// #1
   5dcf4:	d2800003 	mov	x3, #0x0                   	// #0
   5dcf8:	eb01001f 	cmp	x0, x1
   5dcfc:	9a832040 	csel	x0, x2, x3, cs  // cs = hs, nlast
   5dd00:	d65f03c0 	ret

000000000005dd04 <check_wa_cve_2017_5715>:
   5dd04:	d53ed040 	mrs	x0, tpidr_el3
   5dd08:	f9400800 	ldr	x0, [x0, #16]
   5dd0c:	f9400800 	ldr	x0, [x0, #16]
   5dd10:	f100001f 	cmp	x0, #0x0
   5dd14:	54000040 	b.eq	5dd1c <check_wa_cve_2017_5715+0x18>  // b.none
   5dd18:	d61f0000 	br	x0
   5dd1c:	d2800000 	mov	x0, #0x0                   	// #0
   5dd20:	d65f03c0 	ret

000000000005dd24 <el1_sysregs_context_restore>:
   5dd24:	a9402809 	ldp	x9, x10, [x0]
   5dd28:	d5184009 	msr	spsr_el1, x9
   5dd2c:	d518402a 	msr	elr_el1, x10
   5dd30:	a941400f 	ldp	x15, x16, [x0, #16]
   5dd34:	d518100f 	msr	sctlr_el1, x15
   5dd38:	d5182050 	msr	tcr_el1, x16
   5dd3c:	a9422411 	ldp	x17, x9, [x0, #32]
   5dd40:	d5181051 	msr	cpacr_el1, x17
   5dd44:	d51a0009 	msr	csselr_el1, x9
   5dd48:	a9432c0a 	ldp	x10, x11, [x0, #48]
   5dd4c:	d51c410a 	msr	sp_el1, x10
   5dd50:	d518520b 	msr	esr_el1, x11
   5dd54:	a944340c 	ldp	x12, x13, [x0, #64]
   5dd58:	d518200c 	msr	ttbr0_el1, x12
   5dd5c:	d518202d 	msr	ttbr1_el1, x13
   5dd60:	a9453c0e 	ldp	x14, x15, [x0, #80]
   5dd64:	d518a20e 	msr	mair_el1, x14
   5dd68:	d518a30f 	msr	amair_el1, x15
   5dd6c:	a9464410 	ldp	x16, x17, [x0, #96]
   5dd70:	d5181030 	msr	actlr_el1, x16
   5dd74:	d518d091 	msr	tpidr_el1, x17
   5dd78:	a9472809 	ldp	x9, x10, [x0, #112]
   5dd7c:	d51bd049 	msr	tpidr_el0, x9
   5dd80:	d51bd06a 	msr	tpidrro_el0, x10
   5dd84:	a948380d 	ldp	x13, x14, [x0, #128]
   5dd88:	d518740d 	msr	par_el1, x13
   5dd8c:	d518600e 	msr	far_el1, x14
   5dd90:	a949400f 	ldp	x15, x16, [x0, #144]
   5dd94:	d518510f 	msr	afsr0_el1, x15
   5dd98:	d5185130 	msr	afsr1_el1, x16
   5dd9c:	a94a2411 	ldp	x17, x9, [x0, #160]
   5dda0:	d518d031 	msr	contextidr_el1, x17
   5dda4:	d518c009 	msr	vbar_el1, x9
   5dda8:	a94b300b 	ldp	x11, x12, [x0, #176]
   5ddac:	d51c432b 	msr	spsr_abt, x11
   5ddb0:	d51c434c 	msr	spsr_und, x12
   5ddb4:	a94c380d 	ldp	x13, x14, [x0, #192]
   5ddb8:	d51c430d 	msr	spsr_irq, x13
   5ddbc:	d51c436e 	msr	spsr_fiq, x14
   5ddc0:	a94d400f 	ldp	x15, x16, [x0, #208]
   5ddc4:	d51c300f 	msr	dacr32_el2, x15
   5ddc8:	d51c5030 	msr	ifsr32_el2, x16
   5ddcc:	d65f03c0 	ret

000000000005ddd0 <save_gp_pmcr_pauth_regs>:
   5ddd0:	a90007e0 	stp	x0, x1, [sp]
   5ddd4:	a9010fe2 	stp	x2, x3, [sp, #16]
   5ddd8:	a90217e4 	stp	x4, x5, [sp, #32]
   5dddc:	a9031fe6 	stp	x6, x7, [sp, #48]
   5dde0:	a90427e8 	stp	x8, x9, [sp, #64]
   5dde4:	a9052fea 	stp	x10, x11, [sp, #80]
   5dde8:	a90637ec 	stp	x12, x13, [sp, #96]
   5ddec:	a9073fee 	stp	x14, x15, [sp, #112]
   5ddf0:	a90847f0 	stp	x16, x17, [sp, #128]
   5ddf4:	a9094ff2 	stp	x18, x19, [sp, #144]
   5ddf8:	a90a57f4 	stp	x20, x21, [sp, #160]
   5ddfc:	a90b5ff6 	stp	x22, x23, [sp, #176]
   5de00:	a90c67f8 	stp	x24, x25, [sp, #192]
   5de04:	a90d6ffa 	stp	x26, x27, [sp, #208]
   5de08:	a90e77fc 	stp	x28, x29, [sp, #224]
   5de0c:	d5384112 	mrs	x18, sp_el0
   5de10:	f9007ff2 	str	x18, [sp, #248]
   5de14:	d53e1329 	mrs	x9, mdcr_el3
   5de18:	f269013f 	tst	x9, #0x800000
   5de1c:	54000121 	b.ne	5de40 <save_gp_pmcr_pauth_regs+0x70>  // b.any
   5de20:	d53b9c09 	mrs	x9, pmcr_el0
   5de24:	d53e110a 	mrs	x10, scr_el3
   5de28:	f240015f 	tst	x10, #0x1
   5de2c:	54000040 	b.eq	5de34 <save_gp_pmcr_pauth_regs+0x64>  // b.none
   5de30:	f90097e9 	str	x9, [sp, #296]
   5de34:	b27b0129 	orr	x9, x9, #0x20
   5de38:	d51b9c09 	msr	pmcr_el0, x9
   5de3c:	d5033fdf 	isb
   5de40:	d65f03c0 	ret

000000000005de44 <restore_gp_pmcr_pauth_regs>:
   5de44:	d53e1100 	mrs	x0, scr_el3
   5de48:	f240001f 	tst	x0, #0x1
   5de4c:	540000c0 	b.eq	5de64 <restore_gp_pmcr_pauth_regs+0x20>  // b.none
   5de50:	d53e1320 	mrs	x0, mdcr_el3
   5de54:	f269001f 	tst	x0, #0x800000
   5de58:	54000061 	b.ne	5de64 <restore_gp_pmcr_pauth_regs+0x20>  // b.any
   5de5c:	f94097e0 	ldr	x0, [sp, #296]
   5de60:	d51b9c00 	msr	pmcr_el0, x0
   5de64:	a94007e0 	ldp	x0, x1, [sp]
   5de68:	a9410fe2 	ldp	x2, x3, [sp, #16]
   5de6c:	a94217e4 	ldp	x4, x5, [sp, #32]
   5de70:	a9431fe6 	ldp	x6, x7, [sp, #48]
   5de74:	a94427e8 	ldp	x8, x9, [sp, #64]
   5de78:	a9452fea 	ldp	x10, x11, [sp, #80]
   5de7c:	a94637ec 	ldp	x12, x13, [sp, #96]
   5de80:	a9473fee 	ldp	x14, x15, [sp, #112]
   5de84:	a94847f0 	ldp	x16, x17, [sp, #128]
   5de88:	a9494ff2 	ldp	x18, x19, [sp, #144]
   5de8c:	a94a57f4 	ldp	x20, x21, [sp, #160]
   5de90:	a94b5ff6 	ldp	x22, x23, [sp, #176]
   5de94:	a94c67f8 	ldp	x24, x25, [sp, #192]
   5de98:	a94d6ffa 	ldp	x26, x27, [sp, #208]
   5de9c:	f9407ffc 	ldr	x28, [sp, #248]
   5dea0:	d518411c 	msr	sp_el0, x28
   5dea4:	a94e77fc 	ldp	x28, x29, [sp, #224]
   5dea8:	d65f03c0 	ret

000000000005deac <el3_exit>:
   5deac:	910003f1 	mov	x17, sp
   5deb0:	d50041bf 	msr	spsel, #0x1
   5deb4:	f9008bf1 	str	x17, [sp, #272]
   5deb8:	f94083f2 	ldr	x18, [sp, #256]
   5debc:	a951c7f0 	ldp	x16, x17, [sp, #280]
   5dec0:	d51e1112 	msr	scr_el3, x18
   5dec4:	d51e4010 	msr	spsr_el3, x16
   5dec8:	d51e4031 	msr	elr_el3, x17
   5decc:	97ffffde 	bl	5de44 <restore_gp_pmcr_pauth_regs>
   5ded0:	f9407bfe 	ldr	x30, [sp, #240]
   5ded4:	d5033f9f 	dsb	sy
   5ded8:	f9009bff 	str	xzr, [sp, #304]
   5dedc:	d69f03e0 	eret
   5dee0:	d503379f 	dsb	nsh
   5dee4:	d5033fdf 	isb

000000000005dee8 <init_cpu_data_ptr>:
   5dee8:	aa1e03ea 	mov	x10, x30
   5deec:	94000047 	bl	5e008 <plat_my_core_pos>
   5def0:	94000003 	bl	5defc <_cpu_data_by_index>
   5def4:	d51ed040 	msr	tpidr_el3, x0
   5def8:	d65f0140 	ret	x10

000000000005defc <_cpu_data_by_index>:
   5defc:	d2800801 	mov	x1, #0x40                  	// #64
   5df00:	9b017c00 	mul	x0, x0, x1
   5df04:	90000041 	adrp	x1, 65000 <__STACKS_START__+0x2f80>
   5df08:	91020021 	add	x1, x1, #0x80
   5df0c:	8b010000 	add	x0, x0, x1
   5df10:	d65f03c0 	ret

000000000005df14 <spin_lock>:
   5df14:	52800022 	mov	w2, #0x1                   	// #1
   5df18:	d50320bf 	sevl

000000000005df1c <l1>:
   5df1c:	d503205f 	wfe

000000000005df20 <l2>:
   5df20:	885ffc01 	ldaxr	w1, [x0]
   5df24:	35ffffc1 	cbnz	w1, 5df1c <l1>
   5df28:	88017c02 	stxr	w1, w2, [x0]
   5df2c:	35ffffa1 	cbnz	w1, 5df20 <l2>
   5df30:	d65f03c0 	ret

000000000005df34 <spin_unlock>:
   5df34:	889ffc1f 	stlr	wzr, [x0]
   5df38:	d65f03c0 	ret

000000000005df3c <psci_do_pwrdown_cache_maintenance>:
   5df3c:	a9bf7bfd 	stp	x29, x30, [sp, #-16]!
   5df40:	a9bf53f3 	stp	x19, x20, [sp, #-16]!
   5df44:	97ffff41 	bl	5dc48 <prepare_cpu_pwr_dwn>
   5df48:	9400001c 	bl	5dfb8 <plat_get_my_stack>
   5df4c:	aa0003f3 	mov	x19, x0
   5df50:	910003e1 	mov	x1, sp
   5df54:	cb010001 	sub	x1, x0, x1
   5df58:	910003e0 	mov	x0, sp
   5df5c:	94000053 	bl	5e0a8 <flush_dcache_range>
   5df60:	d1200260 	sub	x0, x19, #0x800
   5df64:	cb2063e1 	sub	x1, sp, x0
   5df68:	9400006c 	bl	5e118 <inv_dcache_range>
   5df6c:	a8c153f3 	ldp	x19, x20, [sp], #16
   5df70:	a8c17bfd 	ldp	x29, x30, [sp], #16
   5df74:	d65f03c0 	ret

000000000005df78 <psci_do_pwrup_cache_maintenance>:
   5df78:	a9bf7bfd 	stp	x29, x30, [sp, #-16]!
   5df7c:	d5033ebf 	dmb	st
   5df80:	9400000e 	bl	5dfb8 <plat_get_my_stack>
   5df84:	910003e1 	mov	x1, sp
   5df88:	cb010001 	sub	x1, x0, x1
   5df8c:	910003e0 	mov	x0, sp
   5df90:	94000062 	bl	5e118 <inv_dcache_range>
   5df94:	d53e1000 	mrs	x0, sctlr_el3
   5df98:	b27e0000 	orr	x0, x0, #0x4
   5df9c:	d51e1000 	msr	sctlr_el3, x0
   5dfa0:	d5033fdf 	isb
   5dfa4:	a8c17bfd 	ldp	x29, x30, [sp], #16
   5dfa8:	d65f03c0 	ret

000000000005dfac <psci_power_down_wfi>:
   5dfac:	d5033f9f 	dsb	sy
   5dfb0:	d503207f 	wfi
   5dfb4:	9400001a 	bl	5e01c <plat_panic_handler>

000000000005dfb8 <plat_get_my_stack>:
   5dfb8:	aa1e03ea 	mov	x10, x30
   5dfbc:	94000013 	bl	5e008 <plat_my_core_pos>
   5dfc0:	b0000022 	adrp	x2, 62000 <__RO_END__>
   5dfc4:	91220042 	add	x2, x2, #0x880
   5dfc8:	d2810001 	mov	x1, #0x800                 	// #2048
   5dfcc:	9b010800 	madd	x0, x0, x1, x2
   5dfd0:	d65f0140 	ret	x10

000000000005dfd4 <plat_set_my_stack>:
   5dfd4:	aa1e03e9 	mov	x9, x30
   5dfd8:	97fffff8 	bl	5dfb8 <plat_get_my_stack>
   5dfdc:	9100001f 	mov	sp, x0
   5dfe0:	d65f0120 	ret	x9

000000000005dfe4 <plat_reset_handler>:
   5dfe4:	d5380000 	mrs	x0, midr_el1
   5dfe8:	d3443c00 	ubfx	x0, x0, #4, #12
   5dfec:	7134201f 	cmp	w0, #0xd08
   5dff0:	54000040 	b.eq	5dff8 <handler_a72>  // b.none
   5dff4:	14000004 	b	5e004 <handler_end>

000000000005dff8 <handler_a72>:
   5dff8:	d28004a0 	mov	x0, #0x25                  	// #37
   5dffc:	d519b040 	msr	s3_1_c11_c0_2, x0
   5e000:	d5033fdf 	isb

000000000005e004 <handler_end>:
   5e004:	d65f03c0 	ret

000000000005e008 <plat_my_core_pos>:
   5e008:	d53800a0 	mrs	x0, mpidr_el1
   5e00c:	92401c01 	and	x1, x0, #0xff
   5e010:	92781c00 	and	x0, x0, #0xff00
   5e014:	8b401820 	add	x0, x1, x0, lsr #6
   5e018:	d65f03c0 	ret

000000000005e01c <plat_panic_handler>:
   5e01c:	d50040bf 	msr	spsel, #0x0
   5e020:	97ffffed 	bl	5dfd4 <plat_set_my_stack>
   5e024:	17fff875 	b	5c1f8 <rockchip_soc_soft_reset>

000000000005e028 <asm_print_str>:
   5e028:	aa1e03e3 	mov	x3, x30
   5e02c:	38401480 	ldrb	w0, [x4], #1
   5e030:	b4000060 	cbz	x0, 5e03c <asm_print_str+0x14>
   5e034:	940000d8 	bl	5e394 <plat_crash_console_putc>
   5e038:	17fffffd 	b	5e02c <asm_print_str+0x4>
   5e03c:	d65f0060 	ret	x3

000000000005e040 <asm_print_hex>:
   5e040:	d2800805 	mov	x5, #0x40                  	// #64

000000000005e044 <asm_print_hex_bits>:
   5e044:	aa1e03e3 	mov	x3, x30
   5e048:	d10010a5 	sub	x5, x5, #0x4
   5e04c:	9ac52480 	lsr	x0, x4, x5
   5e050:	92400c00 	and	x0, x0, #0xf
   5e054:	f100281f 	cmp	x0, #0xa
   5e058:	54000043 	b.cc	5e060 <asm_print_hex_bits+0x1c>  // b.lo, b.ul, b.last
   5e05c:	91009c00 	add	x0, x0, #0x27
   5e060:	9100c000 	add	x0, x0, #0x30
   5e064:	940000cc 	bl	5e394 <plat_crash_console_putc>
   5e068:	b5ffff05 	cbnz	x5, 5e048 <asm_print_hex_bits+0x4>
   5e06c:	d65f0060 	ret	x3

000000000005e070 <asm_print_newline>:
   5e070:	d2800140 	mov	x0, #0xa                   	// #10
   5e074:	140000c8 	b	5e394 <plat_crash_console_putc>

000000000005e078 <do_panic>:
   5e078:	aa1e03e6 	mov	x6, x30
   5e07c:	940000b4 	bl	5e34c <plat_crash_console_init>
   5e080:	b4000100 	cbz	x0, 5e0a0 <_panic_handler>
   5e084:	700119c4 	adr	x4, 603bf <panic_msg>
   5e088:	97ffffe8 	bl	5e028 <asm_print_str>
   5e08c:	aa0603e4 	mov	x4, x6
   5e090:	d1001084 	sub	x4, x4, #0x4
   5e094:	97ffffeb 	bl	5e040 <asm_print_hex>
   5e098:	97fffff6 	bl	5e070 <asm_print_newline>
   5e09c:	940000df 	bl	5e418 <plat_crash_console_flush>

000000000005e0a0 <_panic_handler>:
   5e0a0:	aa0603fe 	mov	x30, x6
   5e0a4:	17ffffde 	b	5e01c <plat_panic_handler>

000000000005e0a8 <flush_dcache_range>:
   5e0a8:	b40001a1 	cbz	x1, 5e0dc <exit_loop_civac>
   5e0ac:	d53b0023 	mrs	x3, ctr_el0
   5e0b0:	d3504c63 	ubfx	x3, x3, #16, #4
   5e0b4:	d2800082 	mov	x2, #0x4                   	// #4
   5e0b8:	9ac32042 	lsl	x2, x2, x3
   5e0bc:	8b010001 	add	x1, x0, x1
   5e0c0:	d1000443 	sub	x3, x2, #0x1
   5e0c4:	8a230000 	bic	x0, x0, x3

000000000005e0c8 <loop_civac>:
   5e0c8:	d50b7e20 	dc	civac, x0
   5e0cc:	8b020000 	add	x0, x0, x2
   5e0d0:	eb01001f 	cmp	x0, x1
   5e0d4:	54ffffa3 	b.cc	5e0c8 <loop_civac>  // b.lo, b.ul, b.last
   5e0d8:	d5033f9f 	dsb	sy

000000000005e0dc <exit_loop_civac>:
   5e0dc:	d65f03c0 	ret

000000000005e0e0 <clean_dcache_range>:
   5e0e0:	b40001a1 	cbz	x1, 5e114 <exit_loop_cvac>
   5e0e4:	d53b0023 	mrs	x3, ctr_el0
   5e0e8:	d3504c63 	ubfx	x3, x3, #16, #4
   5e0ec:	d2800082 	mov	x2, #0x4                   	// #4
   5e0f0:	9ac32042 	lsl	x2, x2, x3
   5e0f4:	8b010001 	add	x1, x0, x1
   5e0f8:	d1000443 	sub	x3, x2, #0x1
   5e0fc:	8a230000 	bic	x0, x0, x3

000000000005e100 <loop_cvac>:
   5e100:	d50b7a20 	dc	cvac, x0
   5e104:	8b020000 	add	x0, x0, x2
   5e108:	eb01001f 	cmp	x0, x1
   5e10c:	54ffffa3 	b.cc	5e100 <loop_cvac>  // b.lo, b.ul, b.last
   5e110:	d5033f9f 	dsb	sy

000000000005e114 <exit_loop_cvac>:
   5e114:	d65f03c0 	ret

000000000005e118 <inv_dcache_range>:
   5e118:	b40001a1 	cbz	x1, 5e14c <exit_loop_ivac>
   5e11c:	d53b0023 	mrs	x3, ctr_el0
   5e120:	d3504c63 	ubfx	x3, x3, #16, #4
   5e124:	d2800082 	mov	x2, #0x4                   	// #4
   5e128:	9ac32042 	lsl	x2, x2, x3
   5e12c:	8b010001 	add	x1, x0, x1
   5e130:	d1000443 	sub	x3, x2, #0x1
   5e134:	8a230000 	bic	x0, x0, x3

000000000005e138 <loop_ivac>:
   5e138:	d5087620 	dc	ivac, x0
   5e13c:	8b020000 	add	x0, x0, x2
   5e140:	eb01001f 	cmp	x0, x1
   5e144:	54ffffa3 	b.cc	5e138 <loop_ivac>  // b.lo, b.ul, b.last
   5e148:	d5033f9f 	dsb	sy

000000000005e14c <exit_loop_ivac>:
   5e14c:	d65f03c0 	ret

000000000005e150 <do_dcsw_op>:
   5e150:	b40003c3 	cbz	x3, 5e1c8 <exit>
   5e154:	100003ce 	adr	x14, 5e1cc <dcsw_loop_table>
   5e158:	8b0015ce 	add	x14, x14, x0, lsl #5
   5e15c:	aa0903e0 	mov	x0, x9
   5e160:	52800028 	mov	w8, #0x1                   	// #1

000000000005e164 <loop1>:
   5e164:	8b4a0542 	add	x2, x10, x10, lsr #1
   5e168:	9ac22401 	lsr	x1, x0, x2
   5e16c:	92400821 	and	x1, x1, #0x7
   5e170:	f100083f 	cmp	x1, #0x2
   5e174:	540001e3 	b.cc	5e1b0 <level_done>  // b.lo, b.ul, b.last
   5e178:	d51a000a 	msr	csselr_el1, x10
   5e17c:	d5033fdf 	isb
   5e180:	d5390001 	mrs	x1, ccsidr_el1
   5e184:	92400822 	and	x2, x1, #0x7
   5e188:	91001042 	add	x2, x2, #0x4
   5e18c:	d3433024 	ubfx	x4, x1, #3, #10
   5e190:	5ac01085 	clz	w5, w4
   5e194:	1ac52089 	lsl	w9, w4, w5
   5e198:	1ac52110 	lsl	w16, w8, w5
   5e19c:	2a090149 	orr	w9, w10, w9
   5e1a0:	530d6c26 	ubfx	w6, w1, #13, #15
   5e1a4:	1ac22111 	lsl	w17, w8, w2
   5e1a8:	d5033f9f 	dsb	sy
   5e1ac:	d61f01c0 	br	x14

000000000005e1b0 <level_done>:
   5e1b0:	9100094a 	add	x10, x10, #0x2
   5e1b4:	eb0a007f 	cmp	x3, x10
   5e1b8:	54fffd68 	b.hi	5e164 <loop1>  // b.pmore
   5e1bc:	d51a001f 	msr	csselr_el1, xzr
   5e1c0:	d5033f9f 	dsb	sy
   5e1c4:	d5033fdf 	isb

000000000005e1c8 <exit>:
   5e1c8:	d65f03c0 	ret

000000000005e1cc <dcsw_loop_table>:
   5e1cc:	1ac220c7 	lsl	w7, w6, w2

000000000005e1d0 <loop3_isw>:
   5e1d0:	2a07012b 	orr	w11, w9, w7
   5e1d4:	d508764b 	dc	isw, x11
   5e1d8:	6b1100e7 	subs	w7, w7, w17
   5e1dc:	54ffffa2 	b.cs	5e1d0 <loop3_isw>  // b.hs, b.nlast
   5e1e0:	eb100129 	subs	x9, x9, x16
   5e1e4:	54ffff42 	b.cs	5e1cc <dcsw_loop_table>  // b.hs, b.nlast
   5e1e8:	17fffff2 	b	5e1b0 <level_done>

000000000005e1ec <loop2_cisw>:
   5e1ec:	1ac220c7 	lsl	w7, w6, w2

000000000005e1f0 <loop3_cisw>:
   5e1f0:	2a07012b 	orr	w11, w9, w7
   5e1f4:	d5087e4b 	dc	cisw, x11
   5e1f8:	6b1100e7 	subs	w7, w7, w17
   5e1fc:	54ffffa2 	b.cs	5e1f0 <loop3_cisw>  // b.hs, b.nlast
   5e200:	eb100129 	subs	x9, x9, x16
   5e204:	54ffff42 	b.cs	5e1ec <loop2_cisw>  // b.hs, b.nlast
   5e208:	17ffffea 	b	5e1b0 <level_done>

000000000005e20c <loop2_csw>:
   5e20c:	1ac220c7 	lsl	w7, w6, w2

000000000005e210 <loop3_csw>:
   5e210:	2a07012b 	orr	w11, w9, w7
   5e214:	d5087a4b 	dc	csw, x11
   5e218:	6b1100e7 	subs	w7, w7, w17
   5e21c:	54ffffa2 	b.cs	5e210 <loop3_csw>  // b.hs, b.nlast
   5e220:	eb100129 	subs	x9, x9, x16
   5e224:	54ffff42 	b.cs	5e20c <loop2_csw>  // b.hs, b.nlast
   5e228:	17ffffe2 	b	5e1b0 <level_done>

000000000005e22c <dcsw_op_level1>:
   5e22c:	d5390029 	mrs	x9, clidr_el1
   5e230:	d2800043 	mov	x3, #0x2                   	// #2
   5e234:	d100086a 	sub	x10, x3, #0x2
   5e238:	17ffffc6 	b	5e150 <do_dcsw_op>

000000000005e23c <dcsw_op_level2>:
   5e23c:	d5390029 	mrs	x9, clidr_el1
   5e240:	d2800083 	mov	x3, #0x4                   	// #4
   5e244:	d100086a 	sub	x10, x3, #0x2
   5e248:	17ffffc2 	b	5e150 <do_dcsw_op>

000000000005e24c <zeromem>:
   5e24c:	8b010002 	add	x2, x0, x1
   5e250:	14000030 	b	5e310 <zero_normalmem+0xbc>

000000000005e254 <zero_normalmem>:
   5e254:	8b010002 	add	x2, x0, x1
   5e258:	d53b00e3 	mrs	x3, dczid_el0
   5e25c:	d3400c63 	ubfx	x3, x3, #0, #4
   5e260:	d2800085 	mov	x5, #0x4                   	// #4
   5e264:	9ac320a3 	lsl	x3, x5, x3
   5e268:	eb03003f 	cmp	x1, x3
   5e26c:	54000523 	b.cc	5e310 <zero_normalmem+0xbc>  // b.lo, b.ul, b.last
   5e270:	d1000461 	sub	x1, x3, #0x1
   5e274:	ea01001f 	tst	x0, x1
   5e278:	54000260 	b.eq	5e2c4 <zero_normalmem+0x70>  // b.none
   5e27c:	aa010004 	orr	x4, x0, x1
   5e280:	91000484 	add	x4, x4, #0x1
   5e284:	b4000464 	cbz	x4, 5e310 <zero_normalmem+0xbc>
   5e288:	eb02009f 	cmp	x4, x2
   5e28c:	54000428 	b.hi	5e310 <zero_normalmem+0xbc>  // b.pmore
   5e290:	f2400c1f 	tst	x0, #0xf
   5e294:	540000e0 	b.eq	5e2b0 <zero_normalmem+0x5c>  // b.none
   5e298:	b2400c05 	orr	x5, x0, #0xf
   5e29c:	910004a5 	add	x5, x5, #0x1
   5e2a0:	b4000385 	cbz	x5, 5e310 <zero_normalmem+0xbc>
   5e2a4:	3800141f 	strb	wzr, [x0], #1
   5e2a8:	eb05001f 	cmp	x0, x5
   5e2ac:	54ffffc1 	b.ne	5e2a4 <zero_normalmem+0x50>  // b.any
   5e2b0:	eb04001f 	cmp	x0, x4
   5e2b4:	54000082 	b.cs	5e2c4 <zero_normalmem+0x70>  // b.hs, b.nlast
   5e2b8:	a8817c1f 	stp	xzr, xzr, [x0], #16
   5e2bc:	eb04001f 	cmp	x0, x4
   5e2c0:	54ffffc3 	b.cc	5e2b8 <zero_normalmem+0x64>  // b.lo, b.ul, b.last
   5e2c4:	8a210044 	bic	x4, x2, x1
   5e2c8:	eb04001f 	cmp	x0, x4
   5e2cc:	540000a2 	b.cs	5e2e0 <zero_normalmem+0x8c>  // b.hs, b.nlast
   5e2d0:	d50b7420 	dc	zva, x0
   5e2d4:	8b030000 	add	x0, x0, x3
   5e2d8:	eb04001f 	cmp	x0, x4
   5e2dc:	54ffffa3 	b.cc	5e2d0 <zero_normalmem+0x7c>  // b.lo, b.ul, b.last
   5e2e0:	927cec44 	and	x4, x2, #0xfffffffffffffff0
   5e2e4:	eb04001f 	cmp	x0, x4
   5e2e8:	54000082 	b.cs	5e2f8 <zero_normalmem+0xa4>  // b.hs, b.nlast
   5e2ec:	a8817c1f 	stp	xzr, xzr, [x0], #16
   5e2f0:	eb04001f 	cmp	x0, x4
   5e2f4:	54ffffc3 	b.cc	5e2ec <zero_normalmem+0x98>  // b.lo, b.ul, b.last
   5e2f8:	eb02001f 	cmp	x0, x2
   5e2fc:	54000080 	b.eq	5e30c <zero_normalmem+0xb8>  // b.none
   5e300:	3800141f 	strb	wzr, [x0], #1
   5e304:	eb02001f 	cmp	x0, x2
   5e308:	54ffffc1 	b.ne	5e300 <zero_normalmem+0xac>  // b.any
   5e30c:	d65f03c0 	ret
   5e310:	f2400c1f 	tst	x0, #0xf
   5e314:	54fffe60 	b.eq	5e2e0 <zero_normalmem+0x8c>  // b.none
   5e318:	b2400c04 	orr	x4, x0, #0xf
   5e31c:	91000484 	add	x4, x4, #0x1
   5e320:	b4fffec4 	cbz	x4, 5e2f8 <zero_normalmem+0xa4>
   5e324:	eb02009f 	cmp	x4, x2
   5e328:	54fffe82 	b.cs	5e2f8 <zero_normalmem+0xa4>  // b.hs, b.nlast
   5e32c:	3800141f 	strb	wzr, [x0], #1
   5e330:	eb04001f 	cmp	x0, x4
   5e334:	54ffffc1 	b.ne	5e32c <zero_normalmem+0xd8>  // b.any
   5e338:	17ffffea 	b	5e2e0 <zero_normalmem+0x8c>

000000000005e33c <plat_disable_acp>:
   5e33c:	d65f03c0 	ret

000000000005e340 <bl31_plat_enable_mmu>:
   5e340:	17fffcf6 	b	5d718 <enable_mmu_direct_el3>

000000000005e344 <plat_handle_double_fault>:
   5e344:	17fffd00 	b	5d744 <report_unhandled_exception>

000000000005e348 <plat_handle_el3_ea>:
   5e348:	17fffcff 	b	5d744 <report_unhandled_exception>

000000000005e34c <plat_crash_console_init>:
   5e34c:	aa1e03e4 	mov	x4, x30
   5e350:	d2800003 	mov	x3, #0x0                   	// #0
   5e354:	d53e1001 	mrs	x1, sctlr_el3
   5e358:	f27e003f 	tst	x1, #0x4
   5e35c:	54000080 	b.eq	5e36c <skip_spinlock>  // b.none
   5e360:	90000020 	adrp	x0, 62000 <__RO_END__>
   5e364:	91017000 	add	x0, x0, #0x5c
   5e368:	97fffeeb 	bl	5df14 <spin_lock>

000000000005e36c <skip_spinlock>:
   5e36c:	90000021 	adrp	x1, 62000 <__RO_END__>
   5e370:	91018421 	add	x1, x1, #0x61
   5e374:	08dffc22 	ldarb	w2, [x1]
   5e378:	7100005f 	cmp	w2, #0x0
   5e37c:	54000061 	b.ne	5e388 <init_error>  // b.any
   5e380:	d2800023 	mov	x3, #0x1                   	// #1
   5e384:	089ffc23 	stlrb	w3, [x1]

000000000005e388 <init_error>:
   5e388:	97fffeeb 	bl	5df34 <spin_unlock>
   5e38c:	aa0303e0 	mov	x0, x3
   5e390:	d65f0080 	ret	x4

000000000005e394 <plat_crash_console_putc>:
   5e394:	90000021 	adrp	x1, 62000 <__RO_END__>
   5e398:	91000021 	add	x1, x1, #0x0
   5e39c:	a9003c2e 	stp	x14, x15, [x1]
   5e3a0:	a9014430 	stp	x16, x17, [x1, #16]
   5e3a4:	f900103e 	str	x30, [x1, #32]
   5e3a8:	2a0003ee 	mov	w14, w0
   5e3ac:	d000004f 	adrp	x15, 68000 <dist_ctx+0x1e98>
   5e3b0:	f94471ef 	ldr	x15, [x15, #2272]

000000000005e3b4 <putc_loop>:
   5e3b4:	b400026f 	cbz	x15, 5e400 <putc_done>
   5e3b8:	b94009e1 	ldr	w1, [x15, #8]
   5e3bc:	721e003f 	tst	w1, #0x4
   5e3c0:	540001c0 	b.eq	5e3f8 <putc_continue>  // b.none
   5e3c4:	f94009e2 	ldr	x2, [x15, #16]
   5e3c8:	b4000182 	cbz	x2, 5e3f8 <putc_continue>
   5e3cc:	710029df 	cmp	w14, #0xa
   5e3d0:	540000e1 	b.ne	5e3ec <putc>  // b.any
   5e3d4:	7218003f 	tst	w1, #0x100
   5e3d8:	540000a0 	b.eq	5e3ec <putc>  // b.none
   5e3dc:	aa0f03e1 	mov	x1, x15
   5e3e0:	528001a0 	mov	w0, #0xd                   	// #13
   5e3e4:	d63f0040 	blr	x2
   5e3e8:	f94009e2 	ldr	x2, [x15, #16]

000000000005e3ec <putc>:
   5e3ec:	aa0f03e1 	mov	x1, x15
   5e3f0:	2a0e03e0 	mov	w0, w14
   5e3f4:	d63f0040 	blr	x2

000000000005e3f8 <putc_continue>:
   5e3f8:	f94001ef 	ldr	x15, [x15]
   5e3fc:	17ffffee 	b	5e3b4 <putc_loop>

000000000005e400 <putc_done>:
   5e400:	90000021 	adrp	x1, 62000 <__RO_END__>
   5e404:	91000021 	add	x1, x1, #0x0
   5e408:	a9403c2e 	ldp	x14, x15, [x1]
   5e40c:	a9414430 	ldp	x16, x17, [x1, #16]
   5e410:	f940103e 	ldr	x30, [x1, #32]
   5e414:	d65f03c0 	ret

000000000005e418 <plat_crash_console_flush>:
   5e418:	90000021 	adrp	x1, 62000 <__RO_END__>
   5e41c:	91000021 	add	x1, x1, #0x0
   5e420:	a9003c3e 	stp	x30, x15, [x1]
   5e424:	a9014430 	stp	x16, x17, [x1, #16]
   5e428:	d000004f 	adrp	x15, 68000 <dist_ctx+0x1e98>
   5e42c:	f94471ef 	ldr	x15, [x15, #2272]

000000000005e430 <flush_loop>:
   5e430:	b400014f 	cbz	x15, 5e458 <flush_done>
   5e434:	b94009e1 	ldr	w1, [x15, #8]
   5e438:	721e003f 	tst	w1, #0x4
   5e43c:	540000a0 	b.eq	5e450 <flush_continue>  // b.none
   5e440:	f94011e2 	ldr	x2, [x15, #32]
   5e444:	b4000062 	cbz	x2, 5e450 <flush_continue>
   5e448:	aa0f03e0 	mov	x0, x15
   5e44c:	d63f0040 	blr	x2

000000000005e450 <flush_continue>:
   5e450:	f94001ef 	ldr	x15, [x15]
   5e454:	17fffff7 	b	5e430 <flush_loop>

000000000005e458 <flush_done>:
   5e458:	90000021 	adrp	x1, 62000 <__RO_END__>
   5e45c:	91000021 	add	x1, x1, #0x0
   5e460:	a9403c3e 	ldp	x30, x15, [x1]
   5e464:	a9414430 	ldp	x16, x17, [x1, #16]
   5e468:	d65f03c0 	ret

000000000005e46c <fdt32_ld>:
   5e46c:	39400401 	ldrb	w1, [x0, #1]
   5e470:	39400002 	ldrb	w2, [x0]
   5e474:	aa012042 	orr	x2, x2, x1, lsl #8
   5e478:	39400801 	ldrb	w1, [x0, #2]
   5e47c:	39400c00 	ldrb	w0, [x0, #3]
   5e480:	aa014041 	orr	x1, x2, x1, lsl #16
   5e484:	aa006020 	orr	x0, x1, x0, lsl #24
   5e488:	5ac00800 	rev	w0, w0
   5e48c:	d65f03c0 	ret

000000000005e490 <fdt64_ld>:
   5e490:	39400401 	ldrb	w1, [x0, #1]
   5e494:	39400002 	ldrb	w2, [x0]
   5e498:	aa012042 	orr	x2, x2, x1, lsl #8
   5e49c:	39400801 	ldrb	w1, [x0, #2]
   5e4a0:	aa014041 	orr	x1, x2, x1, lsl #16
   5e4a4:	39400c02 	ldrb	w2, [x0, #3]
   5e4a8:	aa026021 	orr	x1, x1, x2, lsl #24
   5e4ac:	39401002 	ldrb	w2, [x0, #4]
   5e4b0:	aa028022 	orr	x2, x1, x2, lsl #32
   5e4b4:	39401401 	ldrb	w1, [x0, #5]
   5e4b8:	aa01a042 	orr	x2, x2, x1, lsl #40
   5e4bc:	39401801 	ldrb	w1, [x0, #6]
   5e4c0:	39401c00 	ldrb	w0, [x0, #7]
   5e4c4:	aa01c041 	orr	x1, x2, x1, lsl #48
   5e4c8:	aa00e020 	orr	x0, x1, x0, lsl #56
   5e4cc:	dac00c00 	rev	x0, x0
   5e4d0:	d65f03c0 	ret

000000000005e4d4 <fdt_mem_rsv>:
   5e4d4:	aa0003e3 	mov	x3, x0
   5e4d8:	2a0103e5 	mov	w5, w1
   5e4dc:	a9bf7bfd 	stp	x29, x30, [sp, #-16]!
   5e4e0:	91004000 	add	x0, x0, #0x10
   5e4e4:	910003fd 	mov	x29, sp
   5e4e8:	97ffffe1 	bl	5e46c <fdt32_ld>
   5e4ec:	2a0003e4 	mov	w4, w0
   5e4f0:	531c6ca0 	lsl	w0, w5, #4
   5e4f4:	2b000086 	adds	w6, w4, w0
   5e4f8:	54000162 	b.cs	5e524 <fdt_mem_rsv+0x50>  // b.hs, b.nlast
   5e4fc:	91001060 	add	x0, x3, #0x4
   5e500:	97ffffdb 	bl	5e46c <fdt32_ld>
   5e504:	2a0003e1 	mov	w1, w0
   5e508:	8b25d080 	add	x0, x4, w5, sxtw #4
   5e50c:	d1004021 	sub	x1, x1, #0x10
   5e510:	8b000060 	add	x0, x3, x0
   5e514:	eb26403f 	cmp	x1, w6, uxtw
   5e518:	9a9f2000 	csel	x0, x0, xzr, cs  // cs = hs, nlast
   5e51c:	a8c17bfd 	ldp	x29, x30, [sp], #16
   5e520:	d65f03c0 	ret
   5e524:	d2800000 	mov	x0, #0x0                   	// #0
   5e528:	17fffffd 	b	5e51c <fdt_mem_rsv+0x48>

000000000005e52c <nextprop_>:
   5e52c:	a9bd7bfd 	stp	x29, x30, [sp, #-48]!
   5e530:	910003fd 	mov	x29, sp
   5e534:	a90153f3 	stp	x19, x20, [sp, #16]
   5e538:	aa0003f4 	mov	x20, x0
   5e53c:	2a0103f3 	mov	w19, w1
   5e540:	9100b3e2 	add	x2, sp, #0x2c
   5e544:	2a1303e1 	mov	w1, w19
   5e548:	aa1403e0 	mov	x0, x20
   5e54c:	940002ee 	bl	5f104 <fdt_next_tag>
   5e550:	71000c1f 	cmp	w0, #0x3
   5e554:	540000e0 	b.eq	5e570 <nextprop_+0x44>  // b.none
   5e558:	b9402ff3 	ldr	w19, [sp, #44]
   5e55c:	7100241f 	cmp	w0, #0x9
   5e560:	54000101 	b.ne	5e580 <nextprop_+0x54>  // b.any
   5e564:	7100027f 	cmp	w19, #0x0
   5e568:	12800141 	mov	w1, #0xfffffff5            	// #-11
   5e56c:	1a81b273 	csel	w19, w19, w1, lt  // lt = tstop
   5e570:	2a1303e0 	mov	w0, w19
   5e574:	a94153f3 	ldp	x19, x20, [sp, #16]
   5e578:	a8c37bfd 	ldp	x29, x30, [sp], #48
   5e57c:	d65f03c0 	ret
   5e580:	7100101f 	cmp	w0, #0x4
   5e584:	54fffde0 	b.eq	5e540 <nextprop_+0x14>  // b.none
   5e588:	12800013 	mov	w19, #0xffffffff            	// #-1
   5e58c:	17fffff9 	b	5e570 <nextprop_+0x44>

000000000005e590 <fdt_get_property_by_offset_>:
   5e590:	a9bd7bfd 	stp	x29, x30, [sp, #-48]!
   5e594:	910003fd 	mov	x29, sp
   5e598:	a90153f3 	stp	x19, x20, [sp, #16]
   5e59c:	aa0003f3 	mov	x19, x0
   5e5a0:	aa0203f4 	mov	x20, x2
   5e5a4:	f90013f5 	str	x21, [sp, #32]
   5e5a8:	93407c35 	sxtw	x21, w1
   5e5ac:	94000332 	bl	5f274 <fdt_check_prop_offset_>
   5e5b0:	36f800a0 	tbz	w0, #31, 5e5c4 <fdt_get_property_by_offset_+0x34>
   5e5b4:	b4000054 	cbz	x20, 5e5bc <fdt_get_property_by_offset_+0x2c>
   5e5b8:	b9000280 	str	w0, [x20]
   5e5bc:	d2800013 	mov	x19, #0x0                   	// #0
   5e5c0:	14000009 	b	5e5e4 <fdt_get_property_by_offset_+0x54>
   5e5c4:	91002260 	add	x0, x19, #0x8
   5e5c8:	97ffffa9 	bl	5e46c <fdt32_ld>
   5e5cc:	8b2042b5 	add	x21, x21, w0, uxtw
   5e5d0:	8b150273 	add	x19, x19, x21
   5e5d4:	b4000094 	cbz	x20, 5e5e4 <fdt_get_property_by_offset_+0x54>
   5e5d8:	91001260 	add	x0, x19, #0x4
   5e5dc:	97ffffa4 	bl	5e46c <fdt32_ld>
   5e5e0:	b9000280 	str	w0, [x20]
   5e5e4:	aa1303e0 	mov	x0, x19
   5e5e8:	a94153f3 	ldp	x19, x20, [sp, #16]
   5e5ec:	f94013f5 	ldr	x21, [sp, #32]
   5e5f0:	a8c37bfd 	ldp	x29, x30, [sp], #48
   5e5f4:	d65f03c0 	ret

000000000005e5f8 <fdt_get_string>:
   5e5f8:	a9bd7bfd 	stp	x29, x30, [sp, #-48]!
   5e5fc:	910003fd 	mov	x29, sp
   5e600:	a90153f3 	stp	x19, x20, [sp, #16]
   5e604:	2a0103f4 	mov	w20, w1
   5e608:	a9025bf5 	stp	x21, x22, [sp, #32]
   5e60c:	aa0003f5 	mov	x21, x0
   5e610:	aa0203f6 	mov	x22, x2
   5e614:	94000273 	bl	5efe0 <fdt_ro_probe_>
   5e618:	2a0003e3 	mov	w3, w0
   5e61c:	37f806c0 	tbnz	w0, #31, 5e6f4 <fdt_get_string+0xfc>
   5e620:	910032a0 	add	x0, x21, #0xc
   5e624:	97ffff92 	bl	5e46c <fdt32_ld>
   5e628:	0b140013 	add	w19, w0, w20
   5e62c:	6b13007f 	cmp	w3, w19
   5e630:	540005c9 	b.ls	5e6e8 <fdt_get_string+0xf0>  // b.plast
   5e634:	4b130064 	sub	w4, w3, w19
   5e638:	4b130063 	sub	w3, w3, w19
   5e63c:	aa1503e0 	mov	x0, x21
   5e640:	97ffff8b 	bl	5e46c <fdt32_ld>
   5e644:	529fdda1 	mov	w1, #0xfeed                	// #65261
   5e648:	72ba01a1 	movk	w1, #0xd00d, lsl #16
   5e64c:	6b01001f 	cmp	w0, w1
   5e650:	54000381 	b.ne	5e6c0 <fdt_get_string+0xc8>  // b.any
   5e654:	37f804b4 	tbnz	w20, #31, 5e6e8 <fdt_get_string+0xf0>
   5e658:	910052a0 	add	x0, x21, #0x14
   5e65c:	97ffff84 	bl	5e46c <fdt32_ld>
   5e660:	7100401f 	cmp	w0, #0x10
   5e664:	54000129 	b.ls	5e688 <fdt_get_string+0x90>  // b.plast
   5e668:	910082a0 	add	x0, x21, #0x20
   5e66c:	97ffff80 	bl	5e46c <fdt32_ld>
   5e670:	6b00029f 	cmp	w20, w0
   5e674:	540003a2 	b.cs	5e6e8 <fdt_get_string+0xf0>  // b.hs, b.nlast
   5e678:	4b140014 	sub	w20, w0, w20
   5e67c:	6b14009f 	cmp	w4, w20
   5e680:	54000049 	b.ls	5e688 <fdt_get_string+0x90>  // b.plast
   5e684:	2a1403e3 	mov	w3, w20
   5e688:	8b3342b3 	add	x19, x21, w19, uxtw
   5e68c:	aa0303e2 	mov	x2, x3
   5e690:	aa1303e0 	mov	x0, x19
   5e694:	52800001 	mov	w1, #0x0                   	// #0
   5e698:	9400034a 	bl	5f3c0 <memchr>
   5e69c:	b4000340 	cbz	x0, 5e704 <fdt_get_string+0x10c>
   5e6a0:	b4000076 	cbz	x22, 5e6ac <fdt_get_string+0xb4>
   5e6a4:	cb130000 	sub	x0, x0, x19
   5e6a8:	b90002c0 	str	w0, [x22]
   5e6ac:	aa1303e0 	mov	x0, x19
   5e6b0:	a94153f3 	ldp	x19, x20, [sp, #16]
   5e6b4:	a9425bf5 	ldp	x21, x22, [sp, #32]
   5e6b8:	a8c37bfd 	ldp	x29, x30, [sp], #48
   5e6bc:	d65f03c0 	ret
   5e6c0:	52802241 	mov	w1, #0x112                 	// #274
   5e6c4:	72a5fe41 	movk	w1, #0x2ff2, lsl #16
   5e6c8:	6b01001f 	cmp	w0, w1
   5e6cc:	54000121 	b.ne	5e6f0 <fdt_get_string+0xf8>  // b.any
   5e6d0:	36f800d4 	tbz	w20, #31, 5e6e8 <fdt_get_string+0xf0>
   5e6d4:	4b1403f4 	neg	w20, w20
   5e6d8:	910082a0 	add	x0, x21, #0x20
   5e6dc:	97ffff64 	bl	5e46c <fdt32_ld>
   5e6e0:	6b14001f 	cmp	w0, w20
   5e6e4:	54fffcc2 	b.cs	5e67c <fdt_get_string+0x84>  // b.hs, b.nlast
   5e6e8:	12800063 	mov	w3, #0xfffffffc            	// #-4
   5e6ec:	14000002 	b	5e6f4 <fdt_get_string+0xfc>
   5e6f0:	12800183 	mov	w3, #0xfffffff3            	// #-13
   5e6f4:	b4000056 	cbz	x22, 5e6fc <fdt_get_string+0x104>
   5e6f8:	b90002c3 	str	w3, [x22]
   5e6fc:	d2800013 	mov	x19, #0x0                   	// #0
   5e700:	17ffffeb 	b	5e6ac <fdt_get_string+0xb4>
   5e704:	128000e3 	mov	w3, #0xfffffff8            	// #-8
   5e708:	17fffffb 	b	5e6f4 <fdt_get_string+0xfc>

000000000005e70c <fdt_num_mem_rsv>:
   5e70c:	aa0003e8 	mov	x8, x0
   5e710:	a9bf7bfd 	stp	x29, x30, [sp, #-16]!
   5e714:	52800007 	mov	w7, #0x0                   	// #0
   5e718:	910003fd 	mov	x29, sp
   5e71c:	2a0703e1 	mov	w1, w7
   5e720:	aa0803e0 	mov	x0, x8
   5e724:	97ffff6c 	bl	5e4d4 <fdt_mem_rsv>
   5e728:	b50000a0 	cbnz	x0, 5e73c <fdt_num_mem_rsv+0x30>
   5e72c:	128000e7 	mov	w7, #0xfffffff8            	// #-8
   5e730:	2a0703e0 	mov	w0, w7
   5e734:	a8c17bfd 	ldp	x29, x30, [sp], #16
   5e738:	d65f03c0 	ret
   5e73c:	91002000 	add	x0, x0, #0x8
   5e740:	97ffff54 	bl	5e490 <fdt64_ld>
   5e744:	b4ffff60 	cbz	x0, 5e730 <fdt_num_mem_rsv+0x24>
   5e748:	110004e7 	add	w7, w7, #0x1
   5e74c:	17fffff4 	b	5e71c <fdt_num_mem_rsv+0x10>

000000000005e750 <fdt_get_name>:
   5e750:	a9bd7bfd 	stp	x29, x30, [sp, #-48]!
   5e754:	910003fd 	mov	x29, sp
   5e758:	a90153f3 	stp	x19, x20, [sp, #16]
   5e75c:	aa0203f4 	mov	x20, x2
   5e760:	a9025bf5 	stp	x21, x22, [sp, #32]
   5e764:	aa0003f5 	mov	x21, x0
   5e768:	93407c36 	sxtw	x22, w1
   5e76c:	91002000 	add	x0, x0, #0x8
   5e770:	97ffff3f 	bl	5e46c <fdt32_ld>
   5e774:	2a0003f3 	mov	w19, w0
   5e778:	aa1503e0 	mov	x0, x21
   5e77c:	94000219 	bl	5efe0 <fdt_ro_probe_>
   5e780:	37f80360 	tbnz	w0, #31, 5e7ec <fdt_get_name+0x9c>
   5e784:	2a1603e1 	mov	w1, w22
   5e788:	aa1503e0 	mov	x0, x21
   5e78c:	940002aa 	bl	5f234 <fdt_check_node_offset_>
   5e790:	37f802e0 	tbnz	w0, #31, 5e7ec <fdt_get_name+0x9c>
   5e794:	8b3342d3 	add	x19, x22, w19, uxtw
   5e798:	910052a0 	add	x0, x21, #0x14
   5e79c:	8b1302b3 	add	x19, x21, x19
   5e7a0:	97ffff33 	bl	5e46c <fdt32_ld>
   5e7a4:	91001273 	add	x19, x19, #0x4
   5e7a8:	71003c1f 	cmp	w0, #0xf
   5e7ac:	540000c8 	b.hi	5e7c4 <fdt_get_name+0x74>  // b.pmore
   5e7b0:	aa1303e0 	mov	x0, x19
   5e7b4:	528005e1 	mov	w1, #0x2f                  	// #47
   5e7b8:	940004aa 	bl	5fa60 <strrchr>
   5e7bc:	b4000160 	cbz	x0, 5e7e8 <fdt_get_name+0x98>
   5e7c0:	91000413 	add	x19, x0, #0x1
   5e7c4:	b4000094 	cbz	x20, 5e7d4 <fdt_get_name+0x84>
   5e7c8:	aa1303e0 	mov	x0, x19
   5e7cc:	94000490 	bl	5fa0c <strlen>
   5e7d0:	b9000280 	str	w0, [x20]
   5e7d4:	aa1303e0 	mov	x0, x19
   5e7d8:	a94153f3 	ldp	x19, x20, [sp, #16]
   5e7dc:	a9425bf5 	ldp	x21, x22, [sp, #32]
   5e7e0:	a8c37bfd 	ldp	x29, x30, [sp], #48
   5e7e4:	d65f03c0 	ret
   5e7e8:	12800140 	mov	w0, #0xfffffff5            	// #-11
   5e7ec:	b4000054 	cbz	x20, 5e7f4 <fdt_get_name+0xa4>
   5e7f0:	b9000280 	str	w0, [x20]
   5e7f4:	d2800013 	mov	x19, #0x0                   	// #0
   5e7f8:	17fffff7 	b	5e7d4 <fdt_get_name+0x84>

000000000005e7fc <fdt_subnode_offset_namelen>:
   5e7fc:	a9bb7bfd 	stp	x29, x30, [sp, #-80]!
   5e800:	910003fd 	mov	x29, sp
   5e804:	a90153f3 	stp	x19, x20, [sp, #16]
   5e808:	2a0103f4 	mov	w20, w1
   5e80c:	a9025bf5 	stp	x21, x22, [sp, #32]
   5e810:	aa0003f5 	mov	x21, x0
   5e814:	aa0203f6 	mov	x22, x2
   5e818:	a90363f7 	stp	x23, x24, [sp, #48]
   5e81c:	2a0303f7 	mov	w23, w3
   5e820:	940001f0 	bl	5efe0 <fdt_ro_probe_>
   5e824:	2a0003f3 	mov	w19, w0
   5e828:	37f80140 	tbnz	w0, #31, 5e850 <fdt_subnode_offset_namelen+0x54>
   5e82c:	2a1403f3 	mov	w19, w20
   5e830:	93407ef8 	sxtw	x24, w23
   5e834:	b9004bff 	str	wzr, [sp, #72]
   5e838:	b9404be0 	ldr	w0, [sp, #72]
   5e83c:	7100027f 	cmp	w19, #0x0
   5e840:	7a40a801 	ccmp	w0, #0x0, #0x1, ge  // ge = tcont
   5e844:	5400012a 	b.ge	5e868 <fdt_subnode_offset_namelen+0x6c>  // b.tcont
   5e848:	7100001f 	cmp	w0, #0x0
   5e84c:	5a9fa273 	csinv	w19, w19, wzr, ge  // ge = tcont
   5e850:	2a1303e0 	mov	w0, w19
   5e854:	a94153f3 	ldp	x19, x20, [sp, #16]
   5e858:	a9425bf5 	ldp	x21, x22, [sp, #32]
   5e85c:	a94363f7 	ldp	x23, x24, [sp, #48]
   5e860:	a8c57bfd 	ldp	x29, x30, [sp], #80
   5e864:	d65f03c0 	ret
   5e868:	7100041f 	cmp	w0, #0x1
   5e86c:	54000301 	b.ne	5e8cc <fdt_subnode_offset_namelen+0xd0>  // b.any
   5e870:	910133e2 	add	x2, sp, #0x4c
   5e874:	2a1303e1 	mov	w1, w19
   5e878:	aa1503e0 	mov	x0, x21
   5e87c:	97ffffb5 	bl	5e750 <fdt_get_name>
   5e880:	aa0003f4 	mov	x20, x0
   5e884:	b4000240 	cbz	x0, 5e8cc <fdt_subnode_offset_namelen+0xd0>
   5e888:	b9404fe1 	ldr	w1, [sp, #76]
   5e88c:	6b0102ff 	cmp	w23, w1
   5e890:	540001ec 	b.gt	5e8cc <fdt_subnode_offset_namelen+0xd0>
   5e894:	aa1803e2 	mov	x2, x24
   5e898:	aa1603e1 	mov	x1, x22
   5e89c:	940002d4 	bl	5f3ec <memcmp>
   5e8a0:	35000160 	cbnz	w0, 5e8cc <fdt_subnode_offset_namelen+0xd0>
   5e8a4:	38786a80 	ldrb	w0, [x20, x24]
   5e8a8:	34fffd40 	cbz	w0, 5e850 <fdt_subnode_offset_namelen+0x54>
   5e8ac:	aa1803e2 	mov	x2, x24
   5e8b0:	aa1603e0 	mov	x0, x22
   5e8b4:	52800801 	mov	w1, #0x40                  	// #64
   5e8b8:	940002c2 	bl	5f3c0 <memchr>
   5e8bc:	b5000080 	cbnz	x0, 5e8cc <fdt_subnode_offset_namelen+0xd0>
   5e8c0:	38786a80 	ldrb	w0, [x20, x24]
   5e8c4:	7101001f 	cmp	w0, #0x40
   5e8c8:	54fffc40 	b.eq	5e850 <fdt_subnode_offset_namelen+0x54>  // b.none
   5e8cc:	2a1303e1 	mov	w1, w19
   5e8d0:	910123e2 	add	x2, sp, #0x48
   5e8d4:	aa1503e0 	mov	x0, x21
   5e8d8:	94000277 	bl	5f2b4 <fdt_next_node>
   5e8dc:	2a0003f3 	mov	w19, w0
   5e8e0:	17ffffd6 	b	5e838 <fdt_subnode_offset_namelen+0x3c>

000000000005e8e4 <fdt_first_property_offset>:
   5e8e4:	a9be7bfd 	stp	x29, x30, [sp, #-32]!
   5e8e8:	910003fd 	mov	x29, sp
   5e8ec:	f9000bf3 	str	x19, [sp, #16]
   5e8f0:	aa0003f3 	mov	x19, x0
   5e8f4:	94000250 	bl	5f234 <fdt_check_node_offset_>
   5e8f8:	37f800c0 	tbnz	w0, #31, 5e910 <fdt_first_property_offset+0x2c>
   5e8fc:	2a0003e1 	mov	w1, w0
   5e900:	aa1303e0 	mov	x0, x19
   5e904:	f9400bf3 	ldr	x19, [sp, #16]
   5e908:	a8c27bfd 	ldp	x29, x30, [sp], #32
   5e90c:	17ffff08 	b	5e52c <nextprop_>
   5e910:	f9400bf3 	ldr	x19, [sp, #16]
   5e914:	a8c27bfd 	ldp	x29, x30, [sp], #32
   5e918:	d65f03c0 	ret

000000000005e91c <fdt_next_property_offset>:
   5e91c:	a9be7bfd 	stp	x29, x30, [sp, #-32]!
   5e920:	910003fd 	mov	x29, sp
   5e924:	f9000bf3 	str	x19, [sp, #16]
   5e928:	aa0003f3 	mov	x19, x0
   5e92c:	94000252 	bl	5f274 <fdt_check_prop_offset_>
   5e930:	37f800c0 	tbnz	w0, #31, 5e948 <fdt_next_property_offset+0x2c>
   5e934:	2a0003e1 	mov	w1, w0
   5e938:	aa1303e0 	mov	x0, x19
   5e93c:	f9400bf3 	ldr	x19, [sp, #16]
   5e940:	a8c27bfd 	ldp	x29, x30, [sp], #32
   5e944:	17fffefa 	b	5e52c <nextprop_>
   5e948:	f9400bf3 	ldr	x19, [sp, #16]
   5e94c:	a8c27bfd 	ldp	x29, x30, [sp], #32
   5e950:	d65f03c0 	ret

000000000005e954 <fdt_get_property_namelen_>:
   5e954:	a9ba7bfd 	stp	x29, x30, [sp, #-96]!
   5e958:	910003fd 	mov	x29, sp
   5e95c:	a9046bf9 	stp	x25, x26, [sp, #64]
   5e960:	93407c7a 	sxtw	x26, w3
   5e964:	aa0203f9 	mov	x25, x2
   5e968:	a90153f3 	stp	x19, x20, [sp, #16]
   5e96c:	a9025bf5 	stp	x21, x22, [sp, #32]
   5e970:	aa0003f6 	mov	x22, x0
   5e974:	aa0403f5 	mov	x21, x4
   5e978:	a90363f7 	stp	x23, x24, [sp, #48]
   5e97c:	aa1a03f7 	mov	x23, x26
   5e980:	aa0503f8 	mov	x24, x5
   5e984:	97ffffd8 	bl	5e8e4 <fdt_first_property_offset>
   5e988:	2a0003f3 	mov	w19, w0
   5e98c:	36f800a0 	tbz	w0, #31, 5e9a0 <fdt_get_property_namelen_+0x4c>
   5e990:	b4000055 	cbz	x21, 5e998 <fdt_get_property_namelen_+0x44>
   5e994:	b90002b3 	str	w19, [x21]
   5e998:	d2800014 	mov	x20, #0x0                   	// #0
   5e99c:	1400001b 	b	5ea08 <fdt_get_property_namelen_+0xb4>
   5e9a0:	aa1503e2 	mov	x2, x21
   5e9a4:	2a1303e1 	mov	w1, w19
   5e9a8:	aa1603e0 	mov	x0, x22
   5e9ac:	97fffef9 	bl	5e590 <fdt_get_property_by_offset_>
   5e9b0:	aa0003f4 	mov	x20, x0
   5e9b4:	b4000380 	cbz	x0, 5ea24 <fdt_get_property_namelen_+0xd0>
   5e9b8:	91002000 	add	x0, x0, #0x8
   5e9bc:	97fffeac 	bl	5e46c <fdt32_ld>
   5e9c0:	910173e2 	add	x2, sp, #0x5c
   5e9c4:	2a0003e1 	mov	w1, w0
   5e9c8:	aa1603e0 	mov	x0, x22
   5e9cc:	97ffff0b 	bl	5e5f8 <fdt_get_string>
   5e9d0:	b50000a0 	cbnz	x0, 5e9e4 <fdt_get_property_namelen_+0x90>
   5e9d4:	2a1303e1 	mov	w1, w19
   5e9d8:	aa1603e0 	mov	x0, x22
   5e9dc:	97ffffd0 	bl	5e91c <fdt_next_property_offset>
   5e9e0:	17ffffea 	b	5e988 <fdt_get_property_namelen_+0x34>
   5e9e4:	b9405fe1 	ldr	w1, [sp, #92]
   5e9e8:	6b0102ff 	cmp	w23, w1
   5e9ec:	54ffff41 	b.ne	5e9d4 <fdt_get_property_namelen_+0x80>  // b.any
   5e9f0:	aa1a03e2 	mov	x2, x26
   5e9f4:	aa1903e1 	mov	x1, x25
   5e9f8:	9400027d 	bl	5f3ec <memcmp>
   5e9fc:	35fffec0 	cbnz	w0, 5e9d4 <fdt_get_property_namelen_+0x80>
   5ea00:	b4000058 	cbz	x24, 5ea08 <fdt_get_property_namelen_+0xb4>
   5ea04:	b9000313 	str	w19, [x24]
   5ea08:	aa1403e0 	mov	x0, x20
   5ea0c:	a94153f3 	ldp	x19, x20, [sp, #16]
   5ea10:	a9425bf5 	ldp	x21, x22, [sp, #32]
   5ea14:	a94363f7 	ldp	x23, x24, [sp, #48]
   5ea18:	a9446bf9 	ldp	x25, x26, [sp, #64]
   5ea1c:	a8c67bfd 	ldp	x29, x30, [sp], #96
   5ea20:	d65f03c0 	ret
   5ea24:	12800193 	mov	w19, #0xfffffff3            	// #-13
   5ea28:	17ffffda 	b	5e990 <fdt_get_property_namelen_+0x3c>

000000000005ea2c <fdt_getprop_namelen>:
   5ea2c:	a9bd7bfd 	stp	x29, x30, [sp, #-48]!
   5ea30:	910003fd 	mov	x29, sp
   5ea34:	9100b3e5 	add	x5, sp, #0x2c
   5ea38:	f9000bf3 	str	x19, [sp, #16]
   5ea3c:	aa0003f3 	mov	x19, x0
   5ea40:	97ffffc5 	bl	5e954 <fdt_get_property_namelen_>
   5ea44:	aa0003e3 	mov	x3, x0
   5ea48:	b40001c0 	cbz	x0, 5ea80 <fdt_getprop_namelen+0x54>
   5ea4c:	91005260 	add	x0, x19, #0x14
   5ea50:	97fffe87 	bl	5e46c <fdt32_ld>
   5ea54:	71003c1f 	cmp	w0, #0xf
   5ea58:	540001c8 	b.hi	5ea90 <fdt_getprop_namelen+0x64>  // b.pmore
   5ea5c:	b9802fe0 	ldrsw	x0, [sp, #44]
   5ea60:	91003000 	add	x0, x0, #0xc
   5ea64:	f240081f 	tst	x0, #0x7
   5ea68:	54000140 	b.eq	5ea90 <fdt_getprop_namelen+0x64>  // b.none
   5ea6c:	91001060 	add	x0, x3, #0x4
   5ea70:	97fffe7f 	bl	5e46c <fdt32_ld>
   5ea74:	71001c1f 	cmp	w0, #0x7
   5ea78:	540000c9 	b.ls	5ea90 <fdt_getprop_namelen+0x64>  // b.plast
   5ea7c:	91004063 	add	x3, x3, #0x10
   5ea80:	aa0303e0 	mov	x0, x3
   5ea84:	f9400bf3 	ldr	x19, [sp, #16]
   5ea88:	a8c37bfd 	ldp	x29, x30, [sp], #48
   5ea8c:	d65f03c0 	ret
   5ea90:	91003063 	add	x3, x3, #0xc
   5ea94:	17fffffb 	b	5ea80 <fdt_getprop_namelen+0x54>

000000000005ea98 <fdt_getprop>:
   5ea98:	a9bd7bfd 	stp	x29, x30, [sp, #-48]!
   5ea9c:	910003fd 	mov	x29, sp
   5eaa0:	a90153f3 	stp	x19, x20, [sp, #16]
   5eaa4:	aa0003f4 	mov	x20, x0
   5eaa8:	aa0203f3 	mov	x19, x2
   5eaac:	aa0203e0 	mov	x0, x2
   5eab0:	a9025bf5 	stp	x21, x22, [sp, #32]
   5eab4:	aa0303f6 	mov	x22, x3
   5eab8:	2a0103f5 	mov	w21, w1
   5eabc:	940003d4 	bl	5fa0c <strlen>
   5eac0:	aa1603e4 	mov	x4, x22
   5eac4:	2a0003e3 	mov	w3, w0
   5eac8:	aa1303e2 	mov	x2, x19
   5eacc:	2a1503e1 	mov	w1, w21
   5ead0:	aa1403e0 	mov	x0, x20
   5ead4:	a94153f3 	ldp	x19, x20, [sp, #16]
   5ead8:	a9425bf5 	ldp	x21, x22, [sp, #32]
   5eadc:	a8c37bfd 	ldp	x29, x30, [sp], #48
   5eae0:	17ffffd3 	b	5ea2c <fdt_getprop_namelen>

000000000005eae4 <fdt_get_alias_namelen>:
   5eae4:	a9bd7bfd 	stp	x29, x30, [sp, #-48]!
   5eae8:	910003fd 	mov	x29, sp
   5eaec:	a90153f3 	stp	x19, x20, [sp, #16]
   5eaf0:	aa0103f4 	mov	x20, x1
   5eaf4:	aa0003f3 	mov	x19, x0
   5eaf8:	d0000001 	adrp	x1, 60000 <version_string+0x6c>
   5eafc:	910f4021 	add	x1, x1, #0x3d0
   5eb00:	f90013f5 	str	x21, [sp, #32]
   5eb04:	2a0203f5 	mov	w21, w2
   5eb08:	94000050 	bl	5ec48 <fdt_path_offset>
   5eb0c:	37f80140 	tbnz	w0, #31, 5eb34 <fdt_get_alias_namelen+0x50>
   5eb10:	2a0003e1 	mov	w1, w0
   5eb14:	2a1503e3 	mov	w3, w21
   5eb18:	aa1403e2 	mov	x2, x20
   5eb1c:	aa1303e0 	mov	x0, x19
   5eb20:	a94153f3 	ldp	x19, x20, [sp, #16]
   5eb24:	d2800004 	mov	x4, #0x0                   	// #0
   5eb28:	f94013f5 	ldr	x21, [sp, #32]
   5eb2c:	a8c37bfd 	ldp	x29, x30, [sp], #48
   5eb30:	17ffffbf 	b	5ea2c <fdt_getprop_namelen>
   5eb34:	d2800000 	mov	x0, #0x0                   	// #0
   5eb38:	a94153f3 	ldp	x19, x20, [sp, #16]
   5eb3c:	f94013f5 	ldr	x21, [sp, #32]
   5eb40:	a8c37bfd 	ldp	x29, x30, [sp], #48
   5eb44:	d65f03c0 	ret

000000000005eb48 <fdt_path_offset_namelen>:
   5eb48:	a9bc7bfd 	stp	x29, x30, [sp, #-64]!
   5eb4c:	910003fd 	mov	x29, sp
   5eb50:	a90153f3 	stp	x19, x20, [sp, #16]
   5eb54:	aa0103f3 	mov	x19, x1
   5eb58:	a9025bf5 	stp	x21, x22, [sp, #32]
   5eb5c:	2a0203f5 	mov	w21, w2
   5eb60:	f9001bf7 	str	x23, [sp, #48]
   5eb64:	aa0003f7 	mov	x23, x0
   5eb68:	9400011e 	bl	5efe0 <fdt_ro_probe_>
   5eb6c:	2a0003f4 	mov	w20, w0
   5eb70:	37f80580 	tbnz	w0, #31, 5ec20 <fdt_path_offset_namelen+0xd8>
   5eb74:	39400260 	ldrb	w0, [x19]
   5eb78:	93407ea2 	sxtw	x2, w21
   5eb7c:	8b35c275 	add	x21, x19, w21, sxtw
   5eb80:	7100bc1f 	cmp	w0, #0x2f
   5eb84:	540005a0 	b.eq	5ec38 <fdt_path_offset_namelen+0xf0>  // b.none
   5eb88:	528005e1 	mov	w1, #0x2f                  	// #47
   5eb8c:	aa1303e0 	mov	x0, x19
   5eb90:	9400020c 	bl	5f3c0 <memchr>
   5eb94:	f100001f 	cmp	x0, #0x0
   5eb98:	9a951016 	csel	x22, x0, x21, ne  // ne = any
   5eb9c:	aa1303e1 	mov	x1, x19
   5eba0:	4b1302c2 	sub	w2, w22, w19
   5eba4:	aa1703e0 	mov	x0, x23
   5eba8:	97ffffcf 	bl	5eae4 <fdt_get_alias_namelen>
   5ebac:	aa0003e1 	mov	x1, x0
   5ebb0:	b4000480 	cbz	x0, 5ec40 <fdt_path_offset_namelen+0xf8>
   5ebb4:	aa1703e0 	mov	x0, x23
   5ebb8:	aa1603f3 	mov	x19, x22
   5ebbc:	94000023 	bl	5ec48 <fdt_path_offset>
   5ebc0:	2a0003f4 	mov	w20, w0
   5ebc4:	eb15027f 	cmp	x19, x21
   5ebc8:	540002c2 	b.cs	5ec20 <fdt_path_offset_namelen+0xd8>  // b.hs, b.nlast
   5ebcc:	aa1303f6 	mov	x22, x19
   5ebd0:	394002c0 	ldrb	w0, [x22]
   5ebd4:	7100bc1f 	cmp	w0, #0x2f
   5ebd8:	540001e0 	b.eq	5ec14 <fdt_path_offset_namelen+0xcc>  // b.none
   5ebdc:	cb1602a2 	sub	x2, x21, x22
   5ebe0:	528005e1 	mov	w1, #0x2f                  	// #47
   5ebe4:	aa1603e0 	mov	x0, x22
   5ebe8:	940001f6 	bl	5f3c0 <memchr>
   5ebec:	f100001f 	cmp	x0, #0x0
   5ebf0:	2a1403e1 	mov	w1, w20
   5ebf4:	9a951013 	csel	x19, x0, x21, ne  // ne = any
   5ebf8:	aa1603e2 	mov	x2, x22
   5ebfc:	4b160263 	sub	w3, w19, w22
   5ec00:	aa1703e0 	mov	x0, x23
   5ec04:	97fffefe 	bl	5e7fc <fdt_subnode_offset_namelen>
   5ec08:	2a0003f4 	mov	w20, w0
   5ec0c:	36fffdc0 	tbz	w0, #31, 5ebc4 <fdt_path_offset_namelen+0x7c>
   5ec10:	14000004 	b	5ec20 <fdt_path_offset_namelen+0xd8>
   5ec14:	910006d6 	add	x22, x22, #0x1
   5ec18:	eb1602bf 	cmp	x21, x22
   5ec1c:	54fffda1 	b.ne	5ebd0 <fdt_path_offset_namelen+0x88>  // b.any
   5ec20:	2a1403e0 	mov	w0, w20
   5ec24:	a94153f3 	ldp	x19, x20, [sp, #16]
   5ec28:	a9425bf5 	ldp	x21, x22, [sp, #32]
   5ec2c:	f9401bf7 	ldr	x23, [sp, #48]
   5ec30:	a8c47bfd 	ldp	x29, x30, [sp], #64
   5ec34:	d65f03c0 	ret
   5ec38:	52800014 	mov	w20, #0x0                   	// #0
   5ec3c:	17ffffe2 	b	5ebc4 <fdt_path_offset_namelen+0x7c>
   5ec40:	12800094 	mov	w20, #0xfffffffb            	// #-5
   5ec44:	17fffff7 	b	5ec20 <fdt_path_offset_namelen+0xd8>

000000000005ec48 <fdt_path_offset>:
   5ec48:	a9be7bfd 	stp	x29, x30, [sp, #-32]!
   5ec4c:	910003fd 	mov	x29, sp
   5ec50:	a90153f3 	stp	x19, x20, [sp, #16]
   5ec54:	aa0003f4 	mov	x20, x0
   5ec58:	aa0103f3 	mov	x19, x1
   5ec5c:	aa0103e0 	mov	x0, x1
   5ec60:	9400036b 	bl	5fa0c <strlen>
   5ec64:	aa1303e1 	mov	x1, x19
   5ec68:	2a0003e2 	mov	w2, w0
   5ec6c:	aa1403e0 	mov	x0, x20
   5ec70:	a94153f3 	ldp	x19, x20, [sp, #16]
   5ec74:	a8c27bfd 	ldp	x29, x30, [sp], #32
   5ec78:	17ffffb4 	b	5eb48 <fdt_path_offset_namelen>

000000000005ec7c <cpu_to_fdt32>:
   5ec7c:	5ac00800 	rev	w0, w0
   5ec80:	d65f03c0 	ret

000000000005ec84 <fdt32_ld>:
   5ec84:	39400401 	ldrb	w1, [x0, #1]
   5ec88:	39400002 	ldrb	w2, [x0]
   5ec8c:	aa012042 	orr	x2, x2, x1, lsl #8
   5ec90:	39400801 	ldrb	w1, [x0, #2]
   5ec94:	39400c00 	ldrb	w0, [x0, #3]
   5ec98:	aa014041 	orr	x1, x2, x1, lsl #16
   5ec9c:	aa006020 	orr	x0, x1, x0, lsl #24
   5eca0:	5ac00800 	rev	w0, w0
   5eca4:	d65f03c0 	ret

000000000005eca8 <fdt_blocks_misordered_>:
   5eca8:	aa0003e3 	mov	x3, x0
   5ecac:	2a0103e4 	mov	w4, w1
   5ecb0:	2a0203e5 	mov	w5, w2
   5ecb4:	a9bf7bfd 	stp	x29, x30, [sp, #-16]!
   5ecb8:	91004000 	add	x0, x0, #0x10
   5ecbc:	910003fd 	mov	x29, sp
   5ecc0:	97fffff1 	bl	5ec84 <fdt32_ld>
   5ecc4:	71009c1f 	cmp	w0, #0x27
   5ecc8:	54000309 	b.ls	5ed28 <fdt_blocks_misordered_+0x80>  // b.plast
   5eccc:	2a0003e7 	mov	w7, w0
   5ecd0:	91002060 	add	x0, x3, #0x8
   5ecd4:	97ffffec 	bl	5ec84 <fdt32_ld>
   5ecd8:	0b070084 	add	w4, w4, w7
   5ecdc:	2a0003e6 	mov	w6, w0
   5ece0:	6b04001f 	cmp	w0, w4
   5ece4:	54000223 	b.cc	5ed28 <fdt_blocks_misordered_+0x80>  // b.lo, b.ul, b.last
   5ece8:	91003060 	add	x0, x3, #0xc
   5ecec:	97ffffe6 	bl	5ec84 <fdt32_ld>
   5ecf0:	0b0600a5 	add	w5, w5, w6
   5ecf4:	2a0003e4 	mov	w4, w0
   5ecf8:	6b05001f 	cmp	w0, w5
   5ecfc:	54000163 	b.cc	5ed28 <fdt_blocks_misordered_+0x80>  // b.lo, b.ul, b.last
   5ed00:	91001060 	add	x0, x3, #0x4
   5ed04:	97ffffe0 	bl	5ec84 <fdt32_ld>
   5ed08:	2a0003e5 	mov	w5, w0
   5ed0c:	91008060 	add	x0, x3, #0x20
   5ed10:	97ffffdd 	bl	5ec84 <fdt32_ld>
   5ed14:	0b000084 	add	w4, w4, w0
   5ed18:	6b0400bf 	cmp	w5, w4
   5ed1c:	1a9f27e0 	cset	w0, cc  // cc = lo, ul, last
   5ed20:	a8c17bfd 	ldp	x29, x30, [sp], #16
   5ed24:	d65f03c0 	ret
   5ed28:	52800020 	mov	w0, #0x1                   	// #1
   5ed2c:	17fffffd 	b	5ed20 <fdt_blocks_misordered_+0x78>

000000000005ed30 <fdt_packblocks_>:
   5ed30:	a9bc7bfd 	stp	x29, x30, [sp, #-64]!
   5ed34:	2a0203e4 	mov	w4, w2
   5ed38:	910003fd 	mov	x29, sp
   5ed3c:	a9025bf5 	stp	x21, x22, [sp, #32]
   5ed40:	1100a056 	add	w22, w2, #0x28
   5ed44:	2a0303f5 	mov	w21, w3
   5ed48:	a90153f3 	stp	x19, x20, [sp, #16]
   5ed4c:	aa0103f4 	mov	x20, x1
   5ed50:	aa0003f3 	mov	x19, x0
   5ed54:	91004000 	add	x0, x0, #0x10
   5ed58:	f9001bf7 	str	x23, [sp, #48]
   5ed5c:	0b0302d7 	add	w23, w22, w3
   5ed60:	97ffffc9 	bl	5ec84 <fdt32_ld>
   5ed64:	93407c82 	sxtw	x2, w4
   5ed68:	8b204261 	add	x1, x19, w0, uxtw
   5ed6c:	9100a280 	add	x0, x20, #0x28
   5ed70:	940001b4 	bl	5f440 <memmove>
   5ed74:	8b36c283 	add	x3, x20, w22, sxtw
   5ed78:	52a50000 	mov	w0, #0x28000000            	// #671088640
   5ed7c:	b9001280 	str	w0, [x20, #16]
   5ed80:	91002260 	add	x0, x19, #0x8
   5ed84:	97ffffc0 	bl	5ec84 <fdt32_ld>
   5ed88:	8b204261 	add	x1, x19, w0, uxtw
   5ed8c:	93407ea2 	sxtw	x2, w21
   5ed90:	aa0303e0 	mov	x0, x3
   5ed94:	940001ab 	bl	5f440 <memmove>
   5ed98:	2a1603e0 	mov	w0, w22
   5ed9c:	97ffffb8 	bl	5ec7c <cpu_to_fdt32>
   5eda0:	b9000a80 	str	w0, [x20, #8]
   5eda4:	2a1503e0 	mov	w0, w21
   5eda8:	97ffffb5 	bl	5ec7c <cpu_to_fdt32>
   5edac:	b9002680 	str	w0, [x20, #36]
   5edb0:	8b37c284 	add	x4, x20, w23, sxtw
   5edb4:	91003260 	add	x0, x19, #0xc
   5edb8:	97ffffb3 	bl	5ec84 <fdt32_ld>
   5edbc:	8b204263 	add	x3, x19, w0, uxtw
   5edc0:	91008273 	add	x19, x19, #0x20
   5edc4:	aa1303e0 	mov	x0, x19
   5edc8:	97ffffaf 	bl	5ec84 <fdt32_ld>
   5edcc:	2a0003e2 	mov	w2, w0
   5edd0:	aa0303e1 	mov	x1, x3
   5edd4:	aa0403e0 	mov	x0, x4
   5edd8:	9400019a 	bl	5f440 <memmove>
   5eddc:	2a1703e0 	mov	w0, w23
   5ede0:	97ffffa7 	bl	5ec7c <cpu_to_fdt32>
   5ede4:	b9000e80 	str	w0, [x20, #12]
   5ede8:	aa1303e0 	mov	x0, x19
   5edec:	97ffffa6 	bl	5ec84 <fdt32_ld>
   5edf0:	97ffffa3 	bl	5ec7c <cpu_to_fdt32>
   5edf4:	a9425bf5 	ldp	x21, x22, [sp, #32]
   5edf8:	f9401bf7 	ldr	x23, [sp, #48]
   5edfc:	b9002280 	str	w0, [x20, #32]
   5ee00:	a94153f3 	ldp	x19, x20, [sp, #16]
   5ee04:	a8c47bfd 	ldp	x29, x30, [sp], #64
   5ee08:	d65f03c0 	ret

000000000005ee0c <fdt_open_into>:
   5ee0c:	a9bb7bfd 	stp	x29, x30, [sp, #-80]!
   5ee10:	910003fd 	mov	x29, sp
   5ee14:	a90153f3 	stp	x19, x20, [sp, #16]
   5ee18:	aa0003f4 	mov	x20, x0
   5ee1c:	aa0103f3 	mov	x19, x1
   5ee20:	91001000 	add	x0, x0, #0x4
   5ee24:	a9025bf5 	stp	x21, x22, [sp, #32]
   5ee28:	2a0203f6 	mov	w22, w2
   5ee2c:	a90363f7 	stp	x23, x24, [sp, #48]
   5ee30:	97ffff95 	bl	5ec84 <fdt32_ld>
   5ee34:	2a0003f5 	mov	w21, w0
   5ee38:	aa1403e0 	mov	x0, x20
   5ee3c:	94000069 	bl	5efe0 <fdt_ro_probe_>
   5ee40:	2a0003e3 	mov	w3, w0
   5ee44:	37f80540 	tbnz	w0, #31, 5eeec <fdt_open_into+0xe0>
   5ee48:	aa1403e0 	mov	x0, x20
   5ee4c:	97fffe30 	bl	5e70c <fdt_num_mem_rsv>
   5ee50:	11000417 	add	w23, w0, #0x1
   5ee54:	91005280 	add	x0, x20, #0x14
   5ee58:	97ffff8b 	bl	5ec84 <fdt32_ld>
   5ee5c:	7100401f 	cmp	w0, #0x10
   5ee60:	531c6ef7 	lsl	w23, w23, #4
   5ee64:	54000329 	b.ls	5eec8 <fdt_open_into+0xbc>  // b.plast
   5ee68:	91009280 	add	x0, x20, #0x24
   5ee6c:	97ffff86 	bl	5ec84 <fdt32_ld>
   5ee70:	b9004fe0 	str	w0, [sp, #76]
   5ee74:	b9404fe8 	ldr	w8, [sp, #76]
   5ee78:	2a1703e1 	mov	w1, w23
   5ee7c:	aa1403e0 	mov	x0, x20
   5ee80:	2a0803e2 	mov	w2, w8
   5ee84:	97ffff89 	bl	5eca8 <fdt_blocks_misordered_>
   5ee88:	350003e0 	cbnz	w0, 5ef04 <fdt_open_into+0xf8>
   5ee8c:	2a1603e2 	mov	w2, w22
   5ee90:	aa1303e1 	mov	x1, x19
   5ee94:	aa1403e0 	mov	x0, x20
   5ee98:	94000133 	bl	5f364 <fdt_move>
   5ee9c:	2a0003e3 	mov	w3, w0
   5eea0:	35000260 	cbnz	w0, 5eeec <fdt_open_into+0xe0>
   5eea4:	52a22000 	mov	w0, #0x11000000            	// #285212672
   5eea8:	b9001660 	str	w0, [x19, #20]
   5eeac:	b9404fe0 	ldr	w0, [sp, #76]
   5eeb0:	97ffff73 	bl	5ec7c <cpu_to_fdt32>
   5eeb4:	b9002660 	str	w0, [x19, #36]
   5eeb8:	2a1603e0 	mov	w0, w22
   5eebc:	97ffff70 	bl	5ec7c <cpu_to_fdt32>
   5eec0:	b9000660 	str	w0, [x19, #4]
   5eec4:	1400000a 	b	5eeec <fdt_open_into+0xe0>
   5eec8:	b9004fff 	str	wzr, [sp, #76]
   5eecc:	b9404fe1 	ldr	w1, [sp, #76]
   5eed0:	910133e2 	add	x2, sp, #0x4c
   5eed4:	aa1403e0 	mov	x0, x20
   5eed8:	9400008b 	bl	5f104 <fdt_next_tag>
   5eedc:	7100241f 	cmp	w0, #0x9
   5eee0:	54ffff61 	b.ne	5eecc <fdt_open_into+0xc0>  // b.any
   5eee4:	b9404fe3 	ldr	w3, [sp, #76]
   5eee8:	36fffc63 	tbz	w3, #31, 5ee74 <fdt_open_into+0x68>
   5eeec:	2a0303e0 	mov	w0, w3
   5eef0:	a94153f3 	ldp	x19, x20, [sp, #16]
   5eef4:	a9425bf5 	ldp	x21, x22, [sp, #32]
   5eef8:	a94363f7 	ldp	x23, x24, [sp, #48]
   5eefc:	a8c57bfd 	ldp	x29, x30, [sp], #80
   5ef00:	d65f03c0 	ret
   5ef04:	91008280 	add	x0, x20, #0x20
   5ef08:	97ffff5f 	bl	5ec84 <fdt32_ld>
   5ef0c:	1100a101 	add	w1, w8, #0x28
   5ef10:	0b0002e0 	add	w0, w23, w0
   5ef14:	0b000020 	add	w0, w1, w0
   5ef18:	6b16001f 	cmp	w0, w22
   5ef1c:	5400018c 	b.gt	5ef4c <fdt_open_into+0x140>
   5ef20:	93407c18 	sxtw	x24, w0
   5ef24:	8b20c260 	add	x0, x19, w0, sxtw
   5ef28:	eb00029f 	cmp	x20, x0
   5ef2c:	54000142 	b.cs	5ef54 <fdt_open_into+0x148>  // b.hs, b.nlast
   5ef30:	8b354295 	add	x21, x20, w21, uxtw
   5ef34:	eb1302bf 	cmp	x21, x19
   5ef38:	540000e9 	b.ls	5ef54 <fdt_open_into+0x148>  // b.plast
   5ef3c:	8b1802a0 	add	x0, x21, x24
   5ef40:	8b36c261 	add	x1, x19, w22, sxtw
   5ef44:	eb01001f 	cmp	x0, x1
   5ef48:	54000089 	b.ls	5ef58 <fdt_open_into+0x14c>  // b.plast
   5ef4c:	12800043 	mov	w3, #0xfffffffd            	// #-3
   5ef50:	17ffffe7 	b	5eeec <fdt_open_into+0xe0>
   5ef54:	aa1303f5 	mov	x21, x19
   5ef58:	2a0803e3 	mov	w3, w8
   5ef5c:	2a1703e2 	mov	w2, w23
   5ef60:	aa1503e1 	mov	x1, x21
   5ef64:	aa1403e0 	mov	x0, x20
   5ef68:	97ffff72 	bl	5ed30 <fdt_packblocks_>
   5ef6c:	aa1803e2 	mov	x2, x24
   5ef70:	aa1503e1 	mov	x1, x21
   5ef74:	aa1303e0 	mov	x0, x19
   5ef78:	94000132 	bl	5f440 <memmove>
   5ef7c:	5281ba00 	mov	w0, #0xdd0                 	// #3536
   5ef80:	72bdbfc0 	movk	w0, #0xedfe, lsl #16
   5ef84:	b9000260 	str	w0, [x19]
   5ef88:	2a1603e0 	mov	w0, w22
   5ef8c:	97ffff3c 	bl	5ec7c <cpu_to_fdt32>
   5ef90:	b9000660 	str	w0, [x19, #4]
   5ef94:	52a22000 	mov	w0, #0x11000000            	// #285212672
   5ef98:	b9001660 	str	w0, [x19, #20]
   5ef9c:	52a20000 	mov	w0, #0x10000000            	// #268435456
   5efa0:	b9001a60 	str	w0, [x19, #24]
   5efa4:	91007280 	add	x0, x20, #0x1c
   5efa8:	97ffff37 	bl	5ec84 <fdt32_ld>
   5efac:	97ffff34 	bl	5ec7c <cpu_to_fdt32>
   5efb0:	b9001e60 	str	w0, [x19, #28]
   5efb4:	52800003 	mov	w3, #0x0                   	// #0
   5efb8:	17ffffcd 	b	5eeec <fdt_open_into+0xe0>

000000000005efbc <fdt32_ld>:
   5efbc:	39400401 	ldrb	w1, [x0, #1]
   5efc0:	39400002 	ldrb	w2, [x0]
   5efc4:	aa012042 	orr	x2, x2, x1, lsl #8
   5efc8:	39400801 	ldrb	w1, [x0, #2]
   5efcc:	39400c00 	ldrb	w0, [x0, #3]
   5efd0:	aa014041 	orr	x1, x2, x1, lsl #16
   5efd4:	aa006020 	orr	x0, x1, x0, lsl #24
   5efd8:	5ac00800 	rev	w0, w0
   5efdc:	d65f03c0 	ret

000000000005efe0 <fdt_ro_probe_>:
   5efe0:	aa0003e4 	mov	x4, x0
   5efe4:	a9bf7bfd 	stp	x29, x30, [sp, #-16]!
   5efe8:	91001000 	add	x0, x0, #0x4
   5efec:	910003fd 	mov	x29, sp
   5eff0:	97fffff3 	bl	5efbc <fdt32_ld>
   5eff4:	2a0003e3 	mov	w3, w0
   5eff8:	aa0403e0 	mov	x0, x4
   5effc:	97fffff0 	bl	5efbc <fdt32_ld>
   5f000:	529fdda1 	mov	w1, #0xfeed                	// #65261
   5f004:	72ba01a1 	movk	w1, #0xd00d, lsl #16
   5f008:	6b01001f 	cmp	w0, w1
   5f00c:	54000161 	b.ne	5f038 <fdt_ro_probe_+0x58>  // b.any
   5f010:	91005080 	add	x0, x4, #0x14
   5f014:	97ffffea 	bl	5efbc <fdt32_ld>
   5f018:	7100041f 	cmp	w0, #0x1
   5f01c:	540000a9 	b.ls	5f030 <fdt_ro_probe_+0x50>  // b.plast
   5f020:	91006080 	add	x0, x4, #0x18
   5f024:	97ffffe6 	bl	5efbc <fdt32_ld>
   5f028:	7100441f 	cmp	w0, #0x11
   5f02c:	54000149 	b.ls	5f054 <fdt_ro_probe_+0x74>  // b.plast
   5f030:	12800120 	mov	w0, #0xfffffff6            	// #-10
   5f034:	1400000c 	b	5f064 <fdt_ro_probe_+0x84>
   5f038:	52802241 	mov	w1, #0x112                 	// #274
   5f03c:	72a5fe41 	movk	w1, #0x2ff2, lsl #16
   5f040:	6b01001f 	cmp	w0, w1
   5f044:	54000141 	b.ne	5f06c <fdt_ro_probe_+0x8c>  // b.any
   5f048:	91009080 	add	x0, x4, #0x24
   5f04c:	97ffffdc 	bl	5efbc <fdt32_ld>
   5f050:	34000120 	cbz	w0, 5f074 <fdt_ro_probe_+0x94>
   5f054:	321f77e0 	mov	w0, #0x7ffffffe            	// #2147483646
   5f058:	6b00007f 	cmp	w3, w0
   5f05c:	128000e0 	mov	w0, #0xfffffff8            	// #-8
   5f060:	1a809060 	csel	w0, w3, w0, ls  // ls = plast
   5f064:	a8c17bfd 	ldp	x29, x30, [sp], #16
   5f068:	d65f03c0 	ret
   5f06c:	12800100 	mov	w0, #0xfffffff7            	// #-9
   5f070:	17fffffd 	b	5f064 <fdt_ro_probe_+0x84>
   5f074:	128000c0 	mov	w0, #0xfffffff9            	// #-7
   5f078:	17fffffb 	b	5f064 <fdt_ro_probe_+0x84>

000000000005f07c <fdt_offset_ptr>:
   5f07c:	93407c24 	sxtw	x4, w1
   5f080:	aa0003e3 	mov	x3, x0
   5f084:	2a0203e6 	mov	w6, w2
   5f088:	a9bf7bfd 	stp	x29, x30, [sp, #-16]!
   5f08c:	91002000 	add	x0, x0, #0x8
   5f090:	910003fd 	mov	x29, sp
   5f094:	97ffffca 	bl	5efbc <fdt32_ld>
   5f098:	2a0003e5 	mov	w5, w0
   5f09c:	2b040000 	adds	w0, w0, w4
   5f0a0:	1a9f37e1 	cset	w1, cs  // cs = hs, nlast
   5f0a4:	37f80104 	tbnz	w4, #31, 5f0c4 <fdt_offset_ptr+0x48>
   5f0a8:	350000e1 	cbnz	w1, 5f0c4 <fdt_offset_ptr+0x48>
   5f0ac:	2b060007 	adds	w7, w0, w6
   5f0b0:	540000a2 	b.cs	5f0c4 <fdt_offset_ptr+0x48>  // b.hs, b.nlast
   5f0b4:	91001060 	add	x0, x3, #0x4
   5f0b8:	97ffffc1 	bl	5efbc <fdt32_ld>
   5f0bc:	6b0000ff 	cmp	w7, w0
   5f0c0:	54000069 	b.ls	5f0cc <fdt_offset_ptr+0x50>  // b.plast
   5f0c4:	d2800000 	mov	x0, #0x0                   	// #0
   5f0c8:	1400000d 	b	5f0fc <fdt_offset_ptr+0x80>
   5f0cc:	91005060 	add	x0, x3, #0x14
   5f0d0:	97ffffbb 	bl	5efbc <fdt32_ld>
   5f0d4:	7100401f 	cmp	w0, #0x10
   5f0d8:	540000e9 	b.ls	5f0f4 <fdt_offset_ptr+0x78>  // b.plast
   5f0dc:	2b060086 	adds	w6, w4, w6
   5f0e0:	54ffff22 	b.cs	5f0c4 <fdt_offset_ptr+0x48>  // b.hs, b.nlast
   5f0e4:	91009060 	add	x0, x3, #0x24
   5f0e8:	97ffffb5 	bl	5efbc <fdt32_ld>
   5f0ec:	6b0000df 	cmp	w6, w0
   5f0f0:	54fffea8 	b.hi	5f0c4 <fdt_offset_ptr+0x48>  // b.pmore
   5f0f4:	8b254084 	add	x4, x4, w5, uxtw
   5f0f8:	8b040060 	add	x0, x3, x4
   5f0fc:	a8c17bfd 	ldp	x29, x30, [sp], #16
   5f100:	d65f03c0 	ret

000000000005f104 <fdt_next_tag>:
   5f104:	a9bf7bfd 	stp	x29, x30, [sp, #-16]!
   5f108:	aa0203ec 	mov	x12, x2
   5f10c:	aa0003ea 	mov	x10, x0
   5f110:	910003fd 	mov	x29, sp
   5f114:	2a0103eb 	mov	w11, w1
   5f118:	128000e2 	mov	w2, #0xfffffff8            	// #-8
   5f11c:	b9000182 	str	w2, [x12]
   5f120:	52800082 	mov	w2, #0x4                   	// #4
   5f124:	97ffffd6 	bl	5f07c <fdt_offset_ptr>
   5f128:	b5000060 	cbnz	x0, 5f134 <fdt_next_tag+0x30>
   5f12c:	52800129 	mov	w9, #0x9                   	// #9
   5f130:	14000025 	b	5f1c4 <fdt_next_tag+0xc0>
   5f134:	b9400000 	ldr	w0, [x0]
   5f138:	11001168 	add	w8, w11, #0x4
   5f13c:	d3505c01 	ubfx	x1, x0, #16, #8
   5f140:	d3483c09 	ubfx	x9, x0, #8, #8
   5f144:	53185c21 	lsl	w1, w1, #8
   5f148:	2a094029 	orr	w9, w1, w9, lsl #16
   5f14c:	53187c01 	lsr	w1, w0, #24
   5f150:	2a006020 	orr	w0, w1, w0, lsl #24
   5f154:	2a000129 	orr	w9, w9, w0
   5f158:	12800140 	mov	w0, #0xfffffff5            	// #-11
   5f15c:	b9000180 	str	w0, [x12]
   5f160:	51000521 	sub	w1, w9, #0x1
   5f164:	7100203f 	cmp	w1, #0x8
   5f168:	54fffe28 	b.hi	5f12c <fdt_next_tag+0x28>  // b.pmore
   5f16c:	90000000 	adrp	x0, 5f000 <fdt_ro_probe_+0x20>
   5f170:	913c4000 	add	x0, x0, #0xf10
   5f174:	38614800 	ldrb	w0, [x0, w1, uxtw]
   5f178:	10000061 	adr	x1, 5f184 <fdt_next_tag+0x80>
   5f17c:	8b208820 	add	x0, x1, w0, sxtb #2
   5f180:	d61f0000 	br	x0
   5f184:	2a0803e1 	mov	w1, w8
   5f188:	52800022 	mov	w2, #0x1                   	// #1
   5f18c:	0b020108 	add	w8, w8, w2
   5f190:	aa0a03e0 	mov	x0, x10
   5f194:	97ffffba 	bl	5f07c <fdt_offset_ptr>
   5f198:	b4fffca0 	cbz	x0, 5f12c <fdt_next_tag+0x28>
   5f19c:	39400000 	ldrb	w0, [x0]
   5f1a0:	35ffff20 	cbnz	w0, 5f184 <fdt_next_tag+0x80>
   5f1a4:	4b0b0102 	sub	w2, w8, w11
   5f1a8:	2a0b03e1 	mov	w1, w11
   5f1ac:	aa0a03e0 	mov	x0, x10
   5f1b0:	97ffffb3 	bl	5f07c <fdt_offset_ptr>
   5f1b4:	b4fffbc0 	cbz	x0, 5f12c <fdt_next_tag+0x28>
   5f1b8:	11000d08 	add	w8, w8, #0x3
   5f1bc:	121e7508 	and	w8, w8, #0xfffffffc
   5f1c0:	b9000188 	str	w8, [x12]
   5f1c4:	2a0903e0 	mov	w0, w9
   5f1c8:	a8c17bfd 	ldp	x29, x30, [sp], #16
   5f1cc:	d65f03c0 	ret
   5f1d0:	2a0803e1 	mov	w1, w8
   5f1d4:	aa0a03e0 	mov	x0, x10
   5f1d8:	52800082 	mov	w2, #0x4                   	// #4
   5f1dc:	97ffffa8 	bl	5f07c <fdt_offset_ptr>
   5f1e0:	b4fffa60 	cbz	x0, 5f12c <fdt_next_tag+0x28>
   5f1e4:	b9400000 	ldr	w0, [x0]
   5f1e8:	11003164 	add	w4, w11, #0xc
   5f1ec:	d3505c01 	ubfx	x1, x0, #16, #8
   5f1f0:	d3483c03 	ubfx	x3, x0, #8, #8
   5f1f4:	53185c21 	lsl	w1, w1, #8
   5f1f8:	2a034023 	orr	w3, w1, w3, lsl #16
   5f1fc:	53187c01 	lsr	w1, w0, #24
   5f200:	2a006020 	orr	w0, w1, w0, lsl #24
   5f204:	2a000063 	orr	w3, w3, w0
   5f208:	91005140 	add	x0, x10, #0x14
   5f20c:	0b030088 	add	w8, w4, w3
   5f210:	97ffff6b 	bl	5efbc <fdt32_ld>
   5f214:	71003c1f 	cmp	w0, #0xf
   5f218:	54fffc68 	b.hi	5f1a4 <fdt_next_tag+0xa0>  // b.pmore
   5f21c:	71001c7f 	cmp	w3, #0x7
   5f220:	54fffc29 	b.ls	5f1a4 <fdt_next_tag+0xa0>  // b.plast
   5f224:	f240089f 	tst	x4, #0x7
   5f228:	54fffbe0 	b.eq	5f1a4 <fdt_next_tag+0xa0>  // b.none
   5f22c:	11001108 	add	w8, w8, #0x4
   5f230:	17ffffdd 	b	5f1a4 <fdt_next_tag+0xa0>

000000000005f234 <fdt_check_node_offset_>:
   5f234:	a9be7bfd 	stp	x29, x30, [sp, #-32]!
   5f238:	910003fd 	mov	x29, sp
   5f23c:	b9001fe1 	str	w1, [sp, #28]
   5f240:	36f80081 	tbz	w1, #31, 5f250 <fdt_check_node_offset_+0x1c>
   5f244:	12800060 	mov	w0, #0xfffffffc            	// #-4
   5f248:	a8c27bfd 	ldp	x29, x30, [sp], #32
   5f24c:	d65f03c0 	ret
   5f250:	2a0103e2 	mov	w2, w1
   5f254:	f240045f 	tst	x2, #0x3
   5f258:	54ffff61 	b.ne	5f244 <fdt_check_node_offset_+0x10>  // b.any
   5f25c:	910073e2 	add	x2, sp, #0x1c
   5f260:	97ffffa9 	bl	5f104 <fdt_next_tag>
   5f264:	7100041f 	cmp	w0, #0x1
   5f268:	54fffee1 	b.ne	5f244 <fdt_check_node_offset_+0x10>  // b.any
   5f26c:	b9401fe0 	ldr	w0, [sp, #28]
   5f270:	17fffff6 	b	5f248 <fdt_check_node_offset_+0x14>

000000000005f274 <fdt_check_prop_offset_>:
   5f274:	a9be7bfd 	stp	x29, x30, [sp, #-32]!
   5f278:	910003fd 	mov	x29, sp
   5f27c:	b9001fe1 	str	w1, [sp, #28]
   5f280:	36f80081 	tbz	w1, #31, 5f290 <fdt_check_prop_offset_+0x1c>
   5f284:	12800060 	mov	w0, #0xfffffffc            	// #-4
   5f288:	a8c27bfd 	ldp	x29, x30, [sp], #32
   5f28c:	d65f03c0 	ret
   5f290:	2a0103e2 	mov	w2, w1
   5f294:	f240045f 	tst	x2, #0x3
   5f298:	54ffff61 	b.ne	5f284 <fdt_check_prop_offset_+0x10>  // b.any
   5f29c:	910073e2 	add	x2, sp, #0x1c
   5f2a0:	97ffff99 	bl	5f104 <fdt_next_tag>
   5f2a4:	71000c1f 	cmp	w0, #0x3
   5f2a8:	54fffee1 	b.ne	5f284 <fdt_check_prop_offset_+0x10>  // b.any
   5f2ac:	b9401fe0 	ldr	w0, [sp, #28]
   5f2b0:	17fffff6 	b	5f288 <fdt_check_prop_offset_+0x14>

000000000005f2b4 <fdt_next_node>:
   5f2b4:	a9be7bfd 	stp	x29, x30, [sp, #-32]!
   5f2b8:	aa0003ef 	mov	x15, x0
   5f2bc:	aa0203ee 	mov	x14, x2
   5f2c0:	910003fd 	mov	x29, sp
   5f2c4:	b9001fff 	str	wzr, [sp, #28]
   5f2c8:	37f800a1 	tbnz	w1, #31, 5f2dc <fdt_next_node+0x28>
   5f2cc:	97ffffda 	bl	5f234 <fdt_check_node_offset_>
   5f2d0:	b9001fe0 	str	w0, [sp, #28]
   5f2d4:	2a0003ed 	mov	w13, w0
   5f2d8:	37f80200 	tbnz	w0, #31, 5f318 <fdt_next_node+0x64>
   5f2dc:	b9401fed 	ldr	w13, [sp, #28]
   5f2e0:	910073e2 	add	x2, sp, #0x1c
   5f2e4:	aa0f03e0 	mov	x0, x15
   5f2e8:	2a0d03e1 	mov	w1, w13
   5f2ec:	97ffff86 	bl	5f104 <fdt_next_tag>
   5f2f0:	7100081f 	cmp	w0, #0x2
   5f2f4:	54000180 	b.eq	5f324 <fdt_next_node+0x70>  // b.none
   5f2f8:	7100241f 	cmp	w0, #0x9
   5f2fc:	54000220 	b.eq	5f340 <fdt_next_node+0x8c>  // b.none
   5f300:	7100041f 	cmp	w0, #0x1
   5f304:	54fffec1 	b.ne	5f2dc <fdt_next_node+0x28>  // b.any
   5f308:	b400008e 	cbz	x14, 5f318 <fdt_next_node+0x64>
   5f30c:	b94001c0 	ldr	w0, [x14]
   5f310:	11000400 	add	w0, w0, #0x1
   5f314:	b90001c0 	str	w0, [x14]
   5f318:	2a0d03e0 	mov	w0, w13
   5f31c:	a8c27bfd 	ldp	x29, x30, [sp], #32
   5f320:	d65f03c0 	ret
   5f324:	b4fffdce 	cbz	x14, 5f2dc <fdt_next_node+0x28>
   5f328:	b94001c1 	ldr	w1, [x14]
   5f32c:	51000421 	sub	w1, w1, #0x1
   5f330:	b90001c1 	str	w1, [x14]
   5f334:	36fffd41 	tbz	w1, #31, 5f2dc <fdt_next_node+0x28>
   5f338:	b9401fed 	ldr	w13, [sp, #28]
   5f33c:	17fffff7 	b	5f318 <fdt_next_node+0x64>
   5f340:	b9401fed 	ldr	w13, [sp, #28]
   5f344:	36f800cd 	tbz	w13, #31, 5f35c <fdt_next_node+0xa8>
   5f348:	310021bf 	cmn	w13, #0x8
   5f34c:	54fffe61 	b.ne	5f318 <fdt_next_node+0x64>  // b.any
   5f350:	f10001df 	cmp	x14, #0x0
   5f354:	5a9f11ad 	csinv	w13, w13, wzr, ne  // ne = any
   5f358:	17fffff0 	b	5f318 <fdt_next_node+0x64>
   5f35c:	1280000d 	mov	w13, #0xffffffff            	// #-1
   5f360:	17ffffee 	b	5f318 <fdt_next_node+0x64>

000000000005f364 <fdt_move>:
   5f364:	37f80262 	tbnz	w2, #31, 5f3b0 <fdt_move+0x4c>
   5f368:	aa0003e5 	mov	x5, x0
   5f36c:	aa0103e7 	mov	x7, x1
   5f370:	2a0203e6 	mov	w6, w2
   5f374:	a9bf7bfd 	stp	x29, x30, [sp, #-16]!
   5f378:	910003fd 	mov	x29, sp
   5f37c:	97ffff19 	bl	5efe0 <fdt_ro_probe_>
   5f380:	37f80140 	tbnz	w0, #31, 5f3a8 <fdt_move+0x44>
   5f384:	910010a0 	add	x0, x5, #0x4
   5f388:	97ffff0d 	bl	5efbc <fdt32_ld>
   5f38c:	6b06001f 	cmp	w0, w6
   5f390:	54000148 	b.hi	5f3b8 <fdt_move+0x54>  // b.pmore
   5f394:	2a0003e2 	mov	w2, w0
   5f398:	aa0503e1 	mov	x1, x5
   5f39c:	aa0703e0 	mov	x0, x7
   5f3a0:	94000028 	bl	5f440 <memmove>
   5f3a4:	52800000 	mov	w0, #0x0                   	// #0
   5f3a8:	a8c17bfd 	ldp	x29, x30, [sp], #16
   5f3ac:	d65f03c0 	ret
   5f3b0:	12800040 	mov	w0, #0xfffffffd            	// #-3
   5f3b4:	d65f03c0 	ret
   5f3b8:	12800040 	mov	w0, #0xfffffffd            	// #-3
   5f3bc:	17fffffb 	b	5f3a8 <fdt_move+0x44>

000000000005f3c0 <memchr>:
   5f3c0:	8b020002 	add	x2, x0, x2
   5f3c4:	12001c21 	and	w1, w1, #0xff
   5f3c8:	eb02001f 	cmp	x0, x2
   5f3cc:	54000061 	b.ne	5f3d8 <memchr+0x18>  // b.any
   5f3d0:	d2800000 	mov	x0, #0x0                   	// #0
   5f3d4:	d65f03c0 	ret
   5f3d8:	39400003 	ldrb	w3, [x0]
   5f3dc:	6b01007f 	cmp	w3, w1
   5f3e0:	54ffffa0 	b.eq	5f3d4 <memchr+0x14>  // b.none
   5f3e4:	91000400 	add	x0, x0, #0x1
   5f3e8:	17fffff8 	b	5f3c8 <memchr+0x8>

000000000005f3ec <memcmp>:
   5f3ec:	d1000421 	sub	x1, x1, #0x1
   5f3f0:	d2800004 	mov	x4, #0x0                   	// #0
   5f3f4:	eb04005f 	cmp	x2, x4
   5f3f8:	54000061 	b.ne	5f404 <memcmp+0x18>  // b.any
   5f3fc:	52800000 	mov	w0, #0x0                   	// #0
   5f400:	14000007 	b	5f41c <memcmp+0x30>
   5f404:	38646803 	ldrb	w3, [x0, x4]
   5f408:	91000484 	add	x4, x4, #0x1
   5f40c:	38646825 	ldrb	w5, [x1, x4]
   5f410:	6b05007f 	cmp	w3, w5
   5f414:	54ffff00 	b.eq	5f3f4 <memcmp+0x8>  // b.none
   5f418:	4b050060 	sub	w0, w3, w5
   5f41c:	d65f03c0 	ret

000000000005f420 <memcpy>:
   5f420:	d2800003 	mov	x3, #0x0                   	// #0
   5f424:	eb03005f 	cmp	x2, x3
   5f428:	54000041 	b.ne	5f430 <memcpy+0x10>  // b.any
   5f42c:	d65f03c0 	ret
   5f430:	38636824 	ldrb	w4, [x1, x3]
   5f434:	38236804 	strb	w4, [x0, x3]
   5f438:	91000463 	add	x3, x3, #0x1
   5f43c:	17fffffa 	b	5f424 <memcpy+0x4>

000000000005f440 <memmove>:
   5f440:	cb010006 	sub	x6, x0, x1
   5f444:	aa0003e5 	mov	x5, x0
   5f448:	eb0200df 	cmp	x6, x2
   5f44c:	54000043 	b.cc	5f454 <memmove+0x14>  // b.lo, b.ul, b.last
   5f450:	17fffff4 	b	5f420 <memcpy>
   5f454:	8b020024 	add	x4, x1, x2
   5f458:	8b020000 	add	x0, x0, x2
   5f45c:	eb05001f 	cmp	x0, x5
   5f460:	54000041 	b.ne	5f468 <memmove+0x28>  // b.any
   5f464:	d65f03c0 	ret
   5f468:	385ffc81 	ldrb	w1, [x4, #-1]!
   5f46c:	381ffc01 	strb	w1, [x0, #-1]!
   5f470:	17fffffb 	b	5f45c <memmove+0x1c>

000000000005f474 <memset>:
   5f474:	b4000342 	cbz	x2, 5f4dc <memset+0x68>
   5f478:	12001c21 	and	w1, w1, #0xff
   5f47c:	aa0003e5 	mov	x5, x0
   5f480:	f24008a6 	ands	x6, x5, #0x7
   5f484:	54000261 	b.ne	5f4d0 <memset+0x5c>  // b.any
   5f488:	d3781c24 	ubfiz	x4, x1, #8, #8
   5f48c:	92401c23 	and	x3, x1, #0xff
   5f490:	aa030083 	orr	x3, x4, x3
   5f494:	d2800004 	mov	x4, #0x0                   	// #0
   5f498:	aa034063 	orr	x3, x3, x3, lsl #16
   5f49c:	aa038063 	orr	x3, x3, x3, lsl #32
   5f4a0:	cb040047 	sub	x7, x2, x4
   5f4a4:	f1001cff 	cmp	x7, #0x7
   5f4a8:	540001c8 	b.hi	5f4e0 <memset+0x6c>  // b.pmore
   5f4ac:	d343fc43 	lsr	x3, x2, #3
   5f4b0:	928000e4 	mov	x4, #0xfffffffffffffff8    	// #-8
   5f4b4:	8b030ca5 	add	x5, x5, x3, lsl #3
   5f4b8:	9b040862 	madd	x2, x3, x4, x2
   5f4bc:	eb06005f 	cmp	x2, x6
   5f4c0:	540000e0 	b.eq	5f4dc <memset+0x68>  // b.none
   5f4c4:	382668a1 	strb	w1, [x5, x6]
   5f4c8:	910004c6 	add	x6, x6, #0x1
   5f4cc:	17fffffc 	b	5f4bc <memset+0x48>
   5f4d0:	380014a1 	strb	w1, [x5], #1
   5f4d4:	f1000442 	subs	x2, x2, #0x1
   5f4d8:	54fffd41 	b.ne	5f480 <memset+0xc>  // b.any
   5f4dc:	d65f03c0 	ret
   5f4e0:	f82468a3 	str	x3, [x5, x4]
   5f4e4:	91002084 	add	x4, x4, #0x8
   5f4e8:	17ffffee 	b	5f4a0 <memset+0x2c>

000000000005f4ec <unsigned_num_print>:
   5f4ec:	a9ba7bfd 	stp	x29, x30, [sp, #-96]!
   5f4f0:	2a0103e1 	mov	w1, w1
   5f4f4:	910003fd 	mov	x29, sp
   5f4f8:	a9025bf5 	stp	x21, x22, [sp, #32]
   5f4fc:	910123f5 	add	x21, sp, #0x48
   5f500:	f9001bf7 	str	x23, [sp, #48]
   5f504:	12001c57 	and	w23, w2, #0xff
   5f508:	a90153f3 	stp	x19, x20, [sp, #16]
   5f50c:	2a0303f3 	mov	w19, w3
   5f510:	d2800003 	mov	x3, #0x0                   	// #0
   5f514:	9ac10807 	udiv	x7, x0, x1
   5f518:	11000474 	add	w20, w3, #0x1
   5f51c:	9b0180e6 	msub	x6, x7, x1, x0
   5f520:	12001cc4 	and	w4, w6, #0xff
   5f524:	f10024df 	cmp	x6, #0x9
   5f528:	1100c085 	add	w5, w4, #0x30
   5f52c:	11015c84 	add	w4, w4, #0x57
   5f530:	12001ca5 	and	w5, w5, #0xff
   5f534:	12001c84 	and	w4, w4, #0xff
   5f538:	1a858084 	csel	w4, w4, w5, hi  // hi = pmore
   5f53c:	38356864 	strb	w4, [x3, x21]
   5f540:	eb00003f 	cmp	x1, x0
   5f544:	91000463 	add	x3, x3, #0x1
   5f548:	540001c9 	b.ls	5f580 <unsigned_num_print+0x94>  // b.plast
   5f54c:	7100027f 	cmp	w19, #0x0
   5f550:	540002cc 	b.gt	5f5a8 <unsigned_num_print+0xbc>
   5f554:	52800013 	mov	w19, #0x0                   	// #0
   5f558:	93407e96 	sxtw	x22, w20
   5f55c:	d10006d6 	sub	x22, x22, #0x1
   5f560:	310006df 	cmn	w22, #0x1
   5f564:	54000261 	b.ne	5f5b0 <unsigned_num_print+0xc4>  // b.any
   5f568:	0b140260 	add	w0, w19, w20
   5f56c:	a94153f3 	ldp	x19, x20, [sp, #16]
   5f570:	a9425bf5 	ldp	x21, x22, [sp, #32]
   5f574:	f9401bf7 	ldr	x23, [sp, #48]
   5f578:	a8c67bfd 	ldp	x29, x30, [sp], #96
   5f57c:	d65f03c0 	ret
   5f580:	aa0703e0 	mov	x0, x7
   5f584:	17ffffe4 	b	5f514 <unsigned_num_print+0x28>
   5f588:	510006d6 	sub	w22, w22, #0x1
   5f58c:	2a1703e0 	mov	w0, w23
   5f590:	9400010b 	bl	5f9bc <putchar>
   5f594:	6b1402df 	cmp	w22, w20
   5f598:	54ffff8c 	b.gt	5f588 <unsigned_num_print+0x9c>
   5f59c:	6b140260 	subs	w0, w19, w20
   5f5a0:	1a9fa013 	csel	w19, w0, wzr, ge  // ge = tcont
   5f5a4:	17ffffed 	b	5f558 <unsigned_num_print+0x6c>
   5f5a8:	2a1303f6 	mov	w22, w19
   5f5ac:	17fffffa 	b	5f594 <unsigned_num_print+0xa8>
   5f5b0:	38766aa0 	ldrb	w0, [x21, x22]
   5f5b4:	94000102 	bl	5f9bc <putchar>
   5f5b8:	17ffffe9 	b	5f55c <unsigned_num_print+0x70>

000000000005f5bc <vprintf>:
   5f5bc:	a9b97bfd 	stp	x29, x30, [sp, #-112]!
   5f5c0:	910003fd 	mov	x29, sp
   5f5c4:	a90153f3 	stp	x19, x20, [sp, #16]
   5f5c8:	b9401834 	ldr	w20, [x1, #24]
   5f5cc:	a90363f7 	stp	x23, x24, [sp, #48]
   5f5d0:	a9405c33 	ldp	x19, x23, [x1]
   5f5d4:	a9025bf5 	stp	x21, x22, [sp, #32]
   5f5d8:	aa0003f6 	mov	x22, x0
   5f5dc:	a9046bf9 	stp	x25, x26, [sp, #64]
   5f5e0:	9000001a 	adrp	x26, 5f000 <fdt_ro_probe_+0x20>
   5f5e4:	913c735a 	add	x26, x26, #0xf1c
   5f5e8:	52800015 	mov	w21, #0x0                   	// #0
   5f5ec:	52800019 	mov	w25, #0x0                   	// #0
   5f5f0:	a90573fb 	stp	x27, x28, [sp, #80]
   5f5f4:	394002c0 	ldrb	w0, [x22]
   5f5f8:	35000120 	cbnz	w0, 5f61c <vprintf+0x60>
   5f5fc:	2a1503e0 	mov	w0, w21
   5f600:	a94153f3 	ldp	x19, x20, [sp, #16]
   5f604:	a9425bf5 	ldp	x21, x22, [sp, #32]
   5f608:	a94363f7 	ldp	x23, x24, [sp, #48]
   5f60c:	a9446bf9 	ldp	x25, x26, [sp, #64]
   5f610:	a94573fb 	ldp	x27, x28, [sp, #80]
   5f614:	a8c77bfd 	ldp	x29, x30, [sp], #112
   5f618:	d65f03c0 	ret
   5f61c:	910006d6 	add	x22, x22, #0x1
   5f620:	7100941f 	cmp	w0, #0x25
   5f624:	54001c61 	b.ne	5f9b0 <vprintf+0x3f4>  // b.any
   5f628:	52800018 	mov	w24, #0x0                   	// #0
   5f62c:	52800001 	mov	w1, #0x0                   	// #0
   5f630:	14000002 	b	5f638 <vprintf+0x7c>
   5f634:	52800619 	mov	w25, #0x30                  	// #48
   5f638:	394002c0 	ldrb	w0, [x22]
   5f63c:	7101e81f 	cmp	w0, #0x7a
   5f640:	540000e8 	b.hi	5f65c <vprintf+0xa0>  // b.pmore
   5f644:	71018c1f 	cmp	w0, #0x63
   5f648:	540000e8 	b.hi	5f664 <vprintf+0xa8>  // b.pmore
   5f64c:	7100941f 	cmp	w0, #0x25
   5f650:	54000180 	b.eq	5f680 <vprintf+0xc4>  // b.none
   5f654:	7100c01f 	cmp	w0, #0x30
   5f658:	54001960 	b.eq	5f984 <vprintf+0x3c8>  // b.none
   5f65c:	12800015 	mov	w21, #0xffffffff            	// #-1
   5f660:	17ffffe7 	b	5f5fc <vprintf+0x40>
   5f664:	51019000 	sub	w0, w0, #0x64
   5f668:	7100581f 	cmp	w0, #0x16
   5f66c:	54ffff88 	b.hi	5f65c <vprintf+0xa0>  // b.pmore
   5f670:	78605b40 	ldrh	w0, [x26, w0, uxtw #1]
   5f674:	10000062 	adr	x2, 5f680 <vprintf+0xc4>
   5f678:	8b20a840 	add	x0, x2, w0, sxth #2
   5f67c:	d61f0000 	br	x0
   5f680:	940000cf 	bl	5f9bc <putchar>
   5f684:	910006d6 	add	x22, x22, #0x1
   5f688:	17ffffdb 	b	5f5f4 <vprintf+0x38>
   5f68c:	7100043f 	cmp	w1, #0x1
   5f690:	5400022d 	b.le	5f6d4 <vprintf+0x118>
   5f694:	37f802f4 	tbnz	w20, #31, 5f6f0 <vprintf+0x134>
   5f698:	91003e60 	add	x0, x19, #0xf
   5f69c:	2a1403e1 	mov	w1, w20
   5f6a0:	927df000 	and	x0, x0, #0xfffffffffffffff8
   5f6a4:	f940027c 	ldr	x28, [x19]
   5f6a8:	2a0103f4 	mov	w20, w1
   5f6ac:	aa0003f3 	mov	x19, x0
   5f6b0:	b6f8045c 	tbz	x28, #63, 5f738 <vprintf+0x17c>
   5f6b4:	528005a0 	mov	w0, #0x2d                  	// #45
   5f6b8:	940000c1 	bl	5f9bc <putchar>
   5f6bc:	cb1c03e0 	neg	x0, x28
   5f6c0:	51000718 	sub	w24, w24, #0x1
   5f6c4:	2a1803e3 	mov	w3, w24
   5f6c8:	2a1903e2 	mov	w2, w25
   5f6cc:	52800141 	mov	w1, #0xa                   	// #10
   5f6d0:	14000068 	b	5f870 <vprintf+0x2b4>
   5f6d4:	54fffe00 	b.eq	5f694 <vprintf+0xd8>  // b.none
   5f6d8:	37f801f4 	tbnz	w20, #31, 5f714 <vprintf+0x158>
   5f6dc:	91002e60 	add	x0, x19, #0xb
   5f6e0:	2a1403e1 	mov	w1, w20
   5f6e4:	927df000 	and	x0, x0, #0xfffffffffffffff8
   5f6e8:	b980027c 	ldrsw	x28, [x19]
   5f6ec:	17ffffef 	b	5f6a8 <vprintf+0xec>
   5f6f0:	11002281 	add	w1, w20, #0x8
   5f6f4:	7100003f 	cmp	w1, #0x0
   5f6f8:	5400008d 	b.le	5f708 <vprintf+0x14c>
   5f6fc:	91003e60 	add	x0, x19, #0xf
   5f700:	927df000 	and	x0, x0, #0xfffffffffffffff8
   5f704:	17ffffe8 	b	5f6a4 <vprintf+0xe8>
   5f708:	aa1303e0 	mov	x0, x19
   5f70c:	8b34c2f3 	add	x19, x23, w20, sxtw
   5f710:	17ffffe5 	b	5f6a4 <vprintf+0xe8>
   5f714:	11002281 	add	w1, w20, #0x8
   5f718:	7100003f 	cmp	w1, #0x0
   5f71c:	5400008d 	b.le	5f72c <vprintf+0x170>
   5f720:	91002e60 	add	x0, x19, #0xb
   5f724:	927df000 	and	x0, x0, #0xfffffffffffffff8
   5f728:	17fffff0 	b	5f6e8 <vprintf+0x12c>
   5f72c:	aa1303e0 	mov	x0, x19
   5f730:	8b34c2f3 	add	x19, x23, w20, sxtw
   5f734:	17ffffed 	b	5f6e8 <vprintf+0x12c>
   5f738:	aa1c03e0 	mov	x0, x28
   5f73c:	17ffffe2 	b	5f6c4 <vprintf+0x108>
   5f740:	37f801f4 	tbnz	w20, #31, 5f77c <vprintf+0x1c0>
   5f744:	91003e78 	add	x24, x19, #0xf
   5f748:	2a1403fc 	mov	w28, w20
   5f74c:	927df318 	and	x24, x24, #0xfffffffffffffff8
   5f750:	f9400274 	ldr	x20, [x19]
   5f754:	d2800013 	mov	x19, #0x0                   	// #0
   5f758:	d1000694 	sub	x20, x20, #0x1
   5f75c:	2a1303e1 	mov	w1, w19
   5f760:	91000673 	add	x19, x19, #0x1
   5f764:	38736a80 	ldrb	w0, [x20, x19]
   5f768:	350001c0 	cbnz	w0, 5f7a0 <vprintf+0x1e4>
   5f76c:	0b0102b5 	add	w21, w21, w1
   5f770:	2a1c03f4 	mov	w20, w28
   5f774:	aa1803f3 	mov	x19, x24
   5f778:	17ffffc3 	b	5f684 <vprintf+0xc8>
   5f77c:	1100229c 	add	w28, w20, #0x8
   5f780:	7100039f 	cmp	w28, #0x0
   5f784:	5400008d 	b.le	5f794 <vprintf+0x1d8>
   5f788:	91003e78 	add	x24, x19, #0xf
   5f78c:	927df318 	and	x24, x24, #0xfffffffffffffff8
   5f790:	17fffff0 	b	5f750 <vprintf+0x194>
   5f794:	aa1303f8 	mov	x24, x19
   5f798:	8b34c2f3 	add	x19, x23, w20, sxtw
   5f79c:	17ffffed 	b	5f750 <vprintf+0x194>
   5f7a0:	94000087 	bl	5f9bc <putchar>
   5f7a4:	17ffffee 	b	5f75c <vprintf+0x1a0>
   5f7a8:	37f801f4 	tbnz	w20, #31, 5f7e4 <vprintf+0x228>
   5f7ac:	91003e7c 	add	x28, x19, #0xf
   5f7b0:	2a1403fb 	mov	w27, w20
   5f7b4:	927df39c 	and	x28, x28, #0xfffffffffffffff8
   5f7b8:	f9400265 	ldr	x5, [x19]
   5f7bc:	b50003a5 	cbnz	x5, 5f830 <vprintf+0x274>
   5f7c0:	2a1803e3 	mov	w3, w24
   5f7c4:	2a1903e2 	mov	w2, w25
   5f7c8:	aa0503e0 	mov	x0, x5
   5f7cc:	52800201 	mov	w1, #0x10                  	// #16
   5f7d0:	2a1b03f4 	mov	w20, w27
   5f7d4:	97ffff46 	bl	5f4ec <unsigned_num_print>
   5f7d8:	aa1c03f3 	mov	x19, x28
   5f7dc:	0b0002b5 	add	w21, w21, w0
   5f7e0:	17ffffa9 	b	5f684 <vprintf+0xc8>
   5f7e4:	1100229b 	add	w27, w20, #0x8
   5f7e8:	7100037f 	cmp	w27, #0x0
   5f7ec:	5400008d 	b.le	5f7fc <vprintf+0x240>
   5f7f0:	91003e7c 	add	x28, x19, #0xf
   5f7f4:	927df39c 	and	x28, x28, #0xfffffffffffffff8
   5f7f8:	17fffff0 	b	5f7b8 <vprintf+0x1fc>
   5f7fc:	aa1303fc 	mov	x28, x19
   5f800:	8b34c2f3 	add	x19, x23, w20, sxtw
   5f804:	17ffffed 	b	5f7b8 <vprintf+0x1fc>
   5f808:	f90037e5 	str	x5, [sp, #104]
   5f80c:	9400006c 	bl	5f9bc <putchar>
   5f810:	f94037e5 	ldr	x5, [sp, #104]
   5f814:	2a1303e1 	mov	w1, w19
   5f818:	91000673 	add	x19, x19, #0x1
   5f81c:	38746a60 	ldrb	w0, [x19, x20]
   5f820:	35ffff40 	cbnz	w0, 5f808 <vprintf+0x24c>
   5f824:	0b0102b5 	add	w21, w21, w1
   5f828:	51000b18 	sub	w24, w24, #0x2
   5f82c:	17ffffe5 	b	5f7c0 <vprintf+0x204>
   5f830:	b0000014 	adrp	x20, 60000 <version_string+0x6c>
   5f834:	d2800013 	mov	x19, #0x0                   	// #0
   5f838:	910f6294 	add	x20, x20, #0x3d8
   5f83c:	17fffff6 	b	5f814 <vprintf+0x258>
   5f840:	7100043f 	cmp	w1, #0x1
   5f844:	540001cd 	b.le	5f87c <vprintf+0x2c0>
   5f848:	37f80294 	tbnz	w20, #31, 5f898 <vprintf+0x2dc>
   5f84c:	91003e61 	add	x1, x19, #0xf
   5f850:	2a1403e2 	mov	w2, w20
   5f854:	927df021 	and	x1, x1, #0xfffffffffffffff8
   5f858:	f9400260 	ldr	x0, [x19]
   5f85c:	2a0203f4 	mov	w20, w2
   5f860:	2a1803e3 	mov	w3, w24
   5f864:	2a1903e2 	mov	w2, w25
   5f868:	aa0103f3 	mov	x19, x1
   5f86c:	52800201 	mov	w1, #0x10                  	// #16
   5f870:	97ffff1f 	bl	5f4ec <unsigned_num_print>
   5f874:	0b0002b5 	add	w21, w21, w0
   5f878:	17ffff83 	b	5f684 <vprintf+0xc8>
   5f87c:	54fffe60 	b.eq	5f848 <vprintf+0x28c>  // b.none
   5f880:	37f801f4 	tbnz	w20, #31, 5f8bc <vprintf+0x300>
   5f884:	91002e61 	add	x1, x19, #0xb
   5f888:	2a1403e2 	mov	w2, w20
   5f88c:	927df021 	and	x1, x1, #0xfffffffffffffff8
   5f890:	b9400260 	ldr	w0, [x19]
   5f894:	17fffff2 	b	5f85c <vprintf+0x2a0>
   5f898:	11002282 	add	w2, w20, #0x8
   5f89c:	7100005f 	cmp	w2, #0x0
   5f8a0:	5400008d 	b.le	5f8b0 <vprintf+0x2f4>
   5f8a4:	91003e61 	add	x1, x19, #0xf
   5f8a8:	927df021 	and	x1, x1, #0xfffffffffffffff8
   5f8ac:	17ffffeb 	b	5f858 <vprintf+0x29c>
   5f8b0:	aa1303e1 	mov	x1, x19
   5f8b4:	8b34c2f3 	add	x19, x23, w20, sxtw
   5f8b8:	17ffffe8 	b	5f858 <vprintf+0x29c>
   5f8bc:	11002282 	add	w2, w20, #0x8
   5f8c0:	7100005f 	cmp	w2, #0x0
   5f8c4:	5400008d 	b.le	5f8d4 <vprintf+0x318>
   5f8c8:	91002e61 	add	x1, x19, #0xb
   5f8cc:	927df021 	and	x1, x1, #0xfffffffffffffff8
   5f8d0:	17fffff0 	b	5f890 <vprintf+0x2d4>
   5f8d4:	aa1303e1 	mov	x1, x19
   5f8d8:	8b34c2f3 	add	x19, x23, w20, sxtw
   5f8dc:	17ffffed 	b	5f890 <vprintf+0x2d4>
   5f8e0:	910006d6 	add	x22, x22, #0x1
   5f8e4:	52800041 	mov	w1, #0x2                   	// #2
   5f8e8:	17ffff54 	b	5f638 <vprintf+0x7c>
   5f8ec:	11000421 	add	w1, w1, #0x1
   5f8f0:	910006d6 	add	x22, x22, #0x1
   5f8f4:	17ffff51 	b	5f638 <vprintf+0x7c>
   5f8f8:	7100043f 	cmp	w1, #0x1
   5f8fc:	5400012d 	b.le	5f920 <vprintf+0x364>
   5f900:	37f801f4 	tbnz	w20, #31, 5f93c <vprintf+0x380>
   5f904:	91003e61 	add	x1, x19, #0xf
   5f908:	2a1403e2 	mov	w2, w20
   5f90c:	927df021 	and	x1, x1, #0xfffffffffffffff8
   5f910:	f9400260 	ldr	x0, [x19]
   5f914:	2a0203f4 	mov	w20, w2
   5f918:	aa0103f3 	mov	x19, x1
   5f91c:	17ffff6a 	b	5f6c4 <vprintf+0x108>
   5f920:	54ffff00 	b.eq	5f900 <vprintf+0x344>  // b.none
   5f924:	37f801f4 	tbnz	w20, #31, 5f960 <vprintf+0x3a4>
   5f928:	91002e61 	add	x1, x19, #0xb
   5f92c:	2a1403e2 	mov	w2, w20
   5f930:	927df021 	and	x1, x1, #0xfffffffffffffff8
   5f934:	b9400260 	ldr	w0, [x19]
   5f938:	17fffff7 	b	5f914 <vprintf+0x358>
   5f93c:	11002282 	add	w2, w20, #0x8
   5f940:	7100005f 	cmp	w2, #0x0
   5f944:	5400008d 	b.le	5f954 <vprintf+0x398>
   5f948:	91003e61 	add	x1, x19, #0xf
   5f94c:	927df021 	and	x1, x1, #0xfffffffffffffff8
   5f950:	17fffff0 	b	5f910 <vprintf+0x354>
   5f954:	aa1303e1 	mov	x1, x19
   5f958:	8b34c2f3 	add	x19, x23, w20, sxtw
   5f95c:	17ffffed 	b	5f910 <vprintf+0x354>
   5f960:	11002282 	add	w2, w20, #0x8
   5f964:	7100005f 	cmp	w2, #0x0
   5f968:	5400008d 	b.le	5f978 <vprintf+0x3bc>
   5f96c:	91002e61 	add	x1, x19, #0xb
   5f970:	927df021 	and	x1, x1, #0xfffffffffffffff8
   5f974:	17fffff0 	b	5f934 <vprintf+0x378>
   5f978:	aa1303e1 	mov	x1, x19
   5f97c:	8b34c2f3 	add	x19, x23, w20, sxtw
   5f980:	17ffffed 	b	5f934 <vprintf+0x378>
   5f984:	910006d6 	add	x22, x22, #0x1
   5f988:	52800018 	mov	w24, #0x0                   	// #0
   5f98c:	394002c0 	ldrb	w0, [x22]
   5f990:	5100c000 	sub	w0, w0, #0x30
   5f994:	12001c02 	and	w2, w0, #0xff
   5f998:	7100245f 	cmp	w2, #0x9
   5f99c:	54ffe4c8 	b.hi	5f634 <vprintf+0x78>  // b.pmore
   5f9a0:	52800142 	mov	w2, #0xa                   	// #10
   5f9a4:	910006d6 	add	x22, x22, #0x1
   5f9a8:	1b020318 	madd	w24, w24, w2, w0
   5f9ac:	17fffff8 	b	5f98c <vprintf+0x3d0>
   5f9b0:	110006b5 	add	w21, w21, #0x1
   5f9b4:	94000002 	bl	5f9bc <putchar>
   5f9b8:	17ffff0f 	b	5f5f4 <vprintf+0x38>

000000000005f9bc <putchar>:
   5f9bc:	a9be7bfd 	stp	x29, x30, [sp, #-32]!
   5f9c0:	910003fd 	mov	x29, sp
   5f9c4:	f9000bf3 	str	x19, [sp, #16]
   5f9c8:	2a0003f3 	mov	w19, w0
   5f9cc:	12001c00 	and	w0, w0, #0xff
   5f9d0:	97fff570 	bl	5cf90 <console_putc>
   5f9d4:	7100001f 	cmp	w0, #0x0
   5f9d8:	5a9fa260 	csinv	w0, w19, wzr, ge  // ge = tcont
   5f9dc:	f9400bf3 	ldr	x19, [sp, #16]
   5f9e0:	a8c27bfd 	ldp	x29, x30, [sp], #32
   5f9e4:	d65f03c0 	ret

000000000005f9e8 <strchr>:
   5f9e8:	12001c21 	and	w1, w1, #0xff
   5f9ec:	39400002 	ldrb	w2, [x0]
   5f9f0:	6b01005f 	cmp	w2, w1
   5f9f4:	540000a0 	b.eq	5fa08 <strchr+0x20>  // b.none
   5f9f8:	34000062 	cbz	w2, 5fa04 <strchr+0x1c>
   5f9fc:	91000400 	add	x0, x0, #0x1
   5fa00:	17fffffb 	b	5f9ec <strchr+0x4>
   5fa04:	d2800000 	mov	x0, #0x0                   	// #0
   5fa08:	d65f03c0 	ret

000000000005fa0c <strlen>:
   5fa0c:	aa0003e1 	mov	x1, x0
   5fa10:	39400022 	ldrb	w2, [x1]
   5fa14:	35000062 	cbnz	w2, 5fa20 <strlen+0x14>
   5fa18:	cb000020 	sub	x0, x1, x0
   5fa1c:	d65f03c0 	ret
   5fa20:	91000421 	add	x1, x1, #0x1
   5fa24:	17fffffb 	b	5fa10 <strlen+0x4>

000000000005fa28 <strncmp>:
   5fa28:	b4000182 	cbz	x2, 5fa58 <strncmp+0x30>
   5fa2c:	d2800004 	mov	x4, #0x0                   	// #0
   5fa30:	38646803 	ldrb	w3, [x0, x4]
   5fa34:	38646825 	ldrb	w5, [x1, x4]
   5fa38:	6b05007f 	cmp	w3, w5
   5fa3c:	54000060 	b.eq	5fa48 <strncmp+0x20>  // b.none
   5fa40:	4b050060 	sub	w0, w3, w5
   5fa44:	d65f03c0 	ret
   5fa48:	34000083 	cbz	w3, 5fa58 <strncmp+0x30>
   5fa4c:	91000484 	add	x4, x4, #0x1
   5fa50:	eb04005f 	cmp	x2, x4
   5fa54:	54fffee1 	b.ne	5fa30 <strncmp+0x8>  // b.any
   5fa58:	52800000 	mov	w0, #0x0                   	// #0
   5fa5c:	17fffffa 	b	5fa44 <strncmp+0x1c>

000000000005fa60 <strrchr>:
   5fa60:	12001c21 	and	w1, w1, #0xff
   5fa64:	aa0003e2 	mov	x2, x0
   5fa68:	d2800000 	mov	x0, #0x0                   	// #0
   5fa6c:	39400043 	ldrb	w3, [x2]
   5fa70:	6b01007f 	cmp	w3, w1
   5fa74:	9a821000 	csel	x0, x0, x2, ne  // ne = any
   5fa78:	34000063 	cbz	w3, 5fa84 <strrchr+0x24>
   5fa7c:	91000442 	add	x2, x2, #0x1
   5fa80:	17fffffb 	b	5fa6c <strrchr+0xc>
   5fa84:	d65f03c0 	ret

000000000005fa88 <psci_args.3041>:
   5fa88:	00100106 00000000 00040138 00000000     ........8.......

000000000005fa98 <plat_rockchip_psci_pm_ops>:
   5fa98:	00053578 00000000 00053598 00000000     x5.......5......
   5faa8:	000535a4 00000000 00000000 00000000     .5..............
   5fab8:	00053600 00000000 00053688 00000000     .6.......6......
	...
   5fad0:	000536dc 00000000 00053788 00000000     .6.......7......
   5fae0:	00053764 00000000 00053758 00000000     d7......X7......
   5faf0:	000534f0 00000000 00000000 00000000     .4..............
   5fb00:	00053564 00000000 00000000 00000000     d5..............
	...

000000000005fb40 <rockchip_gic_data>:
   5fb40:	fee00000 00000000 fef00000 00000000     ................
   5fb50:	0005fc60 00000000 00000002 00000006     `...............
   5fb60:	00066138 00000000 000537f0 00000000     8a.......7......

000000000005fb70 <rk3399_gpio_ops>:
   5fb70:	00058c2c 00000000 00058bc8 00000000     ,...............
   5fb80:	00058b70 00000000 00058b04 00000000     p...............
   5fb90:	00058a14 00000000 00058950 00000000     ........P.......

000000000005fba0 <plat_rk_mmap>:
   5fba0:	f8000000 00000000 f8000000 00000000     ................
   5fbb0:	07d00000 00000000 00000008 00000000     ................
   5fbc0:	ff3b0000 00000000 ff3b0000 00000000     ..;.......;.....
   5fbd0:	00010000 00000000 0000000a 00000000     ................
	...

000000000005fc00 <plat_prefix_str>:
   5fc00:	000602f9 00000000 00060303 00000000     ................
   5fc10:	0006030d 00000000 00060317 00000000     ................
   5fc20:	00060321 00000000 0a030600 1715120f     !...............
   5fc30:	39222120 391c1939 242a3939 00000026      !"99..999*$&...
   5fc40:	d9d602d1 02e002dc 02020202 0202e7e3     ................
   5fc50:	f102f402                                ....

000000000005fc54 <cci_map>:
   5fc54:	00000000 00000001 240d0800              ...........$

000000000005fc60 <g01s_interrupt_props>:
   5fc60:	0004000e 0000001d                       ........

000000000005fc68 <ddr3_lat_adj>:
   5fc68:	00000006 00000005 00000005 00000004     ................
   5fc78:	00000008 00000007 00000006 00000005     ................
   5fc88:	0000000a 00000009 00000007 00000006     ................
   5fc98:	0000000b 00000009 00000008 00000007     ................
   5fca8:	0000000d 0000000b 00000009 00000008     ................
   5fcb8:	0000000e 0000000b 0000000a 00000009     ................

000000000005fcc8 <dpll_rates_table>:
   5fcc8:	000003a0 00000001 00000074 00000003     ........t.......
   5fcd8:	00000001 00000000 00000000 00000320     ............ ...
   5fce8:	00000001 00000064 00000003 00000001     ....d...........
	...
   5fd00:	000002dc 00000001 0000003d 00000002     ........=.......
   5fd10:	00000001 00000000 00000000 0000029a     ................
   5fd20:	00000001 0000006f 00000004 00000001     ....o...........
	...
   5fd38:	00000258 00000001 00000032 00000002     X.......2.......
   5fd48:	00000001 00000000 00000000 00000210     ................
   5fd58:	00000001 00000042 00000003 00000001     ....B...........
	...
   5fd70:	00000190 00000001 00000032 00000003     ........2.......
   5fd80:	00000001 00000000 00000000 0000012c     ............,...
   5fd90:	00000001 00000032 00000004 00000001     ....2...........
	...
   5fda8:	000000c8 00000001 00000032 00000003     ........2.......
   5fdb8:	00000002 00000000 00000000              ............

000000000005fdc4 <lpddr3_lat_adj>:
   5fdc4:	00000003 00000002 00000001 00000000     ................
   5fdd4:	00000006 00000005 00000003 00000002     ................
   5fde4:	00000008 00000007 00000004 00000003     ................
   5fdf4:	00000009 00000008 00000005 00000004     ................
   5fe04:	0000000a 00000009 00000006 00000005     ................
   5fe14:	0000000b 00000009 00000006 00000005     ................
   5fe24:	0000000c 0000000a 00000006 00000005     ................
   5fe34:	0000000e 0000000c 00000008 00000007     ................
   5fe44:	00000010 0000000d 00000008 00000007     ................

000000000005fe54 <lpddr4_lat_adj>:
   5fe54:	00000006 00000005 00000004 00000002     ................
   5fe64:	0000000a 00000009 00000006 00000004     ................
   5fe74:	0000000e 0000000c 00000008 00000006     ................
   5fe84:	00000014 00000011 0000000a 00000008     ................
   5fe94:	00000018 00000015 0000000c 0000000a     ................
   5fea4:	0000001c 00000018 0000000e 0000000c     ................
   5feb4:	00000020 0000001b 00000010 0000000e      ...............
   5fec4:	00000024 0000001e 00000012 00000010     $...............
   5fed4:	00f90000 021c0112 00000377 100d0700     ........w.......
   5fee4:	00000013 0e090600 00000011 0235021b     ..............5.
   5fef4:	2f2d000b 0211312b 19170f0d 29253323     ..-/+1......#3%)
   5ff04:	00002721 0a0a0100 030a0a02 08130800     !'..............
   5ff14:	eaeaeaea 00000008 fff70003 fff7fff7     ................
   5ff24:	0003fff7 fff7fff7 fff7009b fff7fff7     ................
   5ff34:	fff7004a 0030fff7 009efff7 fff7fff7     J.....0.........
   5ff44:	fff70070                                 p.....

000000000005ff4a <ddr3_trc_tfaw>:
   5ff4a:	35323232 33323132 2f2d3532 322d302d     2225212325-/-0-2
   5ff5a:	2d28332d 30282f28 2d233128 2f232e23     -3(-(/(0(1#-#.#/
   5ff6a:	2c233023 2e232d23 35322f23              #0#,#-#.#/25

000000000005ff76 <build_message>:
   5ff76:	6c697542 203a2074 323a3531 35313a32     Built : 15:22:15
   5ff86:	614d202c 33202079 32303220               , May  3 2021.

000000000005ff94 <version_string>:
   5ff94:	342e3276 6c657228 65736165 32763a29     v2.4(release):v2
   5ffa4:	342d342e 672d3736 65306532 34663135     .4-467-g2e0e51f4
   5ffb4:	450a0032 7320314c 6f707075 20737472     2..EL1 supports 
   5ffc4:	63724141 2d343668 796c6e6f 6c50202e     AArch64-only. Pl
   5ffd4:	65736165 74657320 69756220 6620646c     ease set build f
   5ffe4:	2067616c 5f585443 4c434e49 5f454455     lag CTX_INCLUDE_
   5fff4:	43524141 5f323348 53474552 30203d20     AARCH32_REGS = 0
   60004:	4214000a 3a31334c 0a732520 6e490a00     ...BL31: %s...In
   60014:	696c6176 75722064 6d69746e 65732065     valid runtime se
   60024:	63697672 65642065 69726373 726f7470     rvice descriptor
   60034:	0a702520 72450a00 20726f72 74696e69      %p...Error init
   60044:	696c6169 676e697a 6e757220 656d6974     ializing runtime
   60054:	72657320 65636976 0a732520 2d530a00      service %s...S-
   60064:	20324c45 206e6163 20746f6e 75206562     EL2 can not be u
   60074:	20646573 41206e69 68637241 002e3233     sed in AArch32..
   60084:	656e550a 63657078 20646574 69666661     .Unexpected affi
   60094:	7974696e 666e6920 7473206f 2e657461     nity info state.
   600a4:	490a000a 6c61766e 74206469 65677261     ...Invalid targe
   600b4:	6f702074 20726577 6576656c 6f66206c     t power level fo
   600c4:	75732072 6e657073 706f2064 74617265     r suspend operat
   600d4:	0a6e6f69                                 ion..

00000000000600d9 <CSWTCH.11>:
   600d9:	03010200 6378450a 65646565 68742064     .....Exceeded th
   600e9:	75732065 726f7070 20646574 70737573     e supported susp
   600f9:	20646e65 4f495047 6d756e20 2e726562     end GPIO number.
   60109:	632f000a 65736f68 7473006e 74756f64     ../chosen.stdout
   60119:	7461702d 65730068 6c616972 636f7200     -path.serial.roc
   60129:	6968636b 69735f70 76735f70 67140063     kchip_sip_svc..g
   60139:	705f7465 64745f69 705f6966 725f7968     et_pi_tdfi_phy_r
   60149:	74616c64 6172643a 7079746d 6e752065     dlat:dramtype un
   60159:	70707573 0a74726f 65670a00 6b725f6e     support...gen_rk
   60169:	39393333 7968705f 7261705f 3a736d61     3399_phy_params:
   60179:	6d617264 65707974 736e7520 6f707075     dramtype unsuppo
   60189:	000a7472                                rt..

000000000006018d <ddr3_cl_cwl>:
   6018d:	00005555 55000000 00000065 55550000     UU.....Ue.....UU
   6019d:	00000066 76655500 00000000 00866555     f....Uev....Ue..
   601ad:	55000000 00776655 55550000 00008776     ...UUfw...UUv...
   601bd:	86655500 00000097 a7866555 55000000     .Ue.....Ue.....U
   601cd:	88776655 55550000 00988766 76555500     Ufw...UUf....UUv
   601dd:	0000a897 a7866555 550000b8 98876655     ....Ue.....UUf..
   601ed:	555500b9 b9a88776 76656500 00c9b897     ..UUv....eev....
   601fd:	a7866565 5500d9b8 98776655 5555baa9     ee.....UUfw...UU
   6020d:	b9988766 765555ca dac9a897 97766565     f....UUv....eev.
   6021d:	65ead9b8 b8a78665 250aead9 6e203a73     ...ee......%s: n
   6022d:	6120746f 63206c6c 20737570 6f207369     ot all cpus is o
   6023d:	000a6666 3a73250a 74696177 756c6320     ff...%s:wait clu
   6024d:	72657473 6c20622d 78252832               ster-b l2(%x)..

000000000006025c <__func__.4186>:
   6025c:	5f756d70 5f756373 77705f62 006e6472     pmu_scu_b_pwrdn.

000000000006026c <__func__.4408>:
   6026c:	6b636f72 70696863 636f735f 7379735f     rockchip_soc_sys
   6027c:	7277705f 5f6d645f 70737573 00646e65     _pwr_dm_suspend.

000000000006028c <__func__.4417>:
   6028c:	6b636f72 70696863 636f735f 7379735f     rockchip_soc_sys
   6029c:	7277705f 5f6d645f 75736572               _pwr_dm_resume.

00000000000602ab <rockchip_power_domain_tree_desc>:
   602ab:	02040201 3a73250a 686e7520 6c646e61     .....%s: unhandl
   602bb:	53206465 2820434d 78257830               ed SMC (0x%x)..

00000000000602ca <__func__.2898>:
   602ca:	6b636f72 70696863 616c705f 69735f74     rockchip_plat_si
   602da:	61685f70 656c646e 72610072 72615f6d     p_handler.arm_ar
   602ea:	735f6863 73006376 735f6474 45006376     ch_svc.std_svc.E
   602fa:	524f5252 2020203a 544f4e00 3a454349     RROR:   .NOTICE:
   6030a:	57002020 494e5241 203a474e 464e4900       .WARNING: .INF
   6031a:	20203a4f 56002020 4f425245 203a4553     O:    .VERBOSE: 
   6032a:	334c4500 452d5300 4500314c 0a00324c     .EL3.S-EL1.EL2..
   6033a:	61686e55 656c646e 78452064 6e726574     Unhandled Extern
   6034a:	41206c61 74726f62 63657220 65766965     al Abort receive
   6035a:	6e6f2064 25783020 6620786c 206d6f72     d on 0x%lx from 
   6036a:	000a7325 6378650a 69747065 72206e6f     %s...exception r
   6037a:	6f736165 75253d6e 6e797320 6d6f7264     eason=%u syndrom
   6038a:	78303d65 786c6c25 490a000a 726f6e67     e=0x%llx...Ignor
   6039a:	20676e69 6e6b6e75 206e776f 61204c42     ing unknown BL a
   603aa:	70207875 6d617261 72657465 7830203a     ux parameter: 0x
   603ba:	786c6c25                                 %llx.

00000000000603bf <panic_msg>:
   603bf:	50          	.byte	0x50
   603c0:	43494e41 	.word	0x43494e41
   603c4:	20746120 	.word	0x20746120
   603c8:	3a204350 	.word	0x3a204350
   603cc:	00783020 	.word	0x00783020
   603d0:	696c612f 	.word	0x696c612f
   603d4:	73657361 	.word	0x73657361
   603d8:	00783000 	.word	0x00783000
   603dc:	00000000 	.word	0x00000000

00000000000603e0 <__svc_desc_rockchip_sip_svc>:
   603e0:	00010202 00000000 00060126 00000000     ........&.......
	...
   603f8:	0005385c 00000000                       \8......

0000000000060400 <__svc_desc_arm_arch_svc>:
   60400:	00010000 00000000 000602e4 00000000     ................
	...
   60418:	0005cca4 00000000                       ........

0000000000060420 <__svc_desc_std_svc>:
   60420:	00010404 00000000 000602f1 00000000     ................
   60430:	0005cdc4 00000000 0005cde8 00000000     ................

0000000000060440 <__CPU_OPS_START__>:
   60440:	410fd030 	.word	0x410fd030
   60444:	00000000 	.word	0x00000000
   60448:	0005da8c 	.word	0x0005da8c
	...
   60468:	0005dabc 	.word	0x0005dabc
   6046c:	00000000 	.word	0x00000000
   60470:	0005dad4 	.word	0x0005dad4
   60474:	00000000 	.word	0x00000000
   60478:	410fd080 	.word	0x410fd080
   6047c:	00000000 	.word	0x00000000
   60480:	0005db88 	.word	0x0005db88
   60484:	00000000 	.word	0x00000000
   60488:	0005db68 	.word	0x0005db68
	...
   604a0:	0005dbd4 	.word	0x0005dbd4
   604a4:	00000000 	.word	0x00000000
   604a8:	0005dbf8 	.word	0x0005dbf8
   604ac:	00000000 	.word	0x00000000

00000000000604b0 <__cb_func_spe_drain_buffers_hookcm_entering_secure_world>:
   604b0:	0005180c 00000000                       ........

00000000000604b8 <__pubsub_cm_entering_normal_world_end>:
	...

0000000000060800 <sync_exception_sp_el0>:
   60800:	17fff3d1 	b	5d744 <report_unhandled_exception>
	...

0000000000060880 <irq_sp_el0>:
   60880:	17fff3b1 	b	5d744 <report_unhandled_exception>
	...

0000000000060900 <fiq_sp_el0>:
   60900:	17fff391 	b	5d744 <report_unhandled_exception>
	...

0000000000060980 <serror_sp_el0>:
   60980:	97fff672 	bl	5e348 <plat_handle_el3_ea>
	...

0000000000060a00 <sync_exception_sp_elx>:
   60a00:	17fff351 	b	5d744 <report_unhandled_exception>
	...

0000000000060a80 <irq_sp_elx>:
   60a80:	17fff331 	b	5d744 <report_unhandled_exception>
	...

0000000000060b00 <fiq_sp_elx>:
   60b00:	17fff311 	b	5d744 <report_unhandled_exception>
	...

0000000000060b80 <serror_sp_elx>:
   60b80:	f9007bfe 	str	x30, [sp, #240]
   60b84:	f9409bfe 	ldr	x30, [sp, #304]
   60b88:	b500005e 	cbnz	x30, 60b90 <exp_from_EL3>
   60b8c:	17fff30e 	b	5d7c4 <handle_lower_el_async_ea>

0000000000060b90 <exp_from_EL3>:
   60b90:	97fff5ee 	bl	5e348 <plat_handle_el3_ea>
	...

0000000000060c00 <sync_exception_aarch64>:
   60c00:	d5033f9f 	dsb	sy
   60c04:	d50344ff 	msr	daifclr, #0x4
   60c08:	d5033fdf 	isb
   60c0c:	f9007bfe 	str	x30, [sp, #240]
   60c10:	d280003e 	mov	x30, #0x1                   	// #1
   60c14:	f9009bfe 	str	x30, [sp, #304]
   60c18:	d5033fbf 	dmb	sy
   60c1c:	d53e521e 	mrs	x30, esr_el3
   60c20:	d35a7fde 	ubfx	x30, x30, #26, #6
   60c24:	f1004fdf 	cmp	x30, #0x13
   60c28:	54fe6120 	b.eq	5d84c <smc_handler>  // b.none
   60c2c:	f1005fdf 	cmp	x30, #0x17
   60c30:	54fe6100 	b.eq	5d850 <smc_handler64>  // b.none
   60c34:	f9407bfe 	ldr	x30, [sp, #240]
   60c38:	17fff2c4 	b	5d748 <enter_lower_el_sync_ea>
	...

0000000000060c80 <irq_aarch64>:
   60c80:	d5033f9f 	dsb	sy
   60c84:	d50344ff 	msr	daifclr, #0x4
   60c88:	d5033fdf 	isb
   60c8c:	f9007bfe 	str	x30, [sp, #240]
   60c90:	d280003e 	mov	x30, #0x1                   	// #1
   60c94:	f9009bfe 	str	x30, [sp, #304]
   60c98:	d5033fbf 	dmb	sy
   60c9c:	97fff44d 	bl	5ddd0 <save_gp_pmcr_pauth_regs>
   60ca0:	d53e4000 	mrs	x0, spsr_el3
   60ca4:	d53e4021 	mrs	x1, elr_el3
   60ca8:	a91187e0 	stp	x0, x1, [sp, #280]
   60cac:	f9408be2 	ldr	x2, [sp, #272]
   60cb0:	910003f4 	mov	x20, sp
   60cb4:	d50040bf 	msr	spsel, #0x0
   60cb8:	9100005f 	mov	sp, x2
   60cbc:	97ffc8fc 	bl	530ac <plat_ic_get_pending_interrupt_type>
   60cc0:	f1000c1f 	cmp	x0, #0x3
   60cc4:	54000140 	b.eq	60cec <interrupt_exit_irq_aarch64>  // b.none
   60cc8:	97ffbd49 	bl	501ec <get_interrupt_type_handler>
   60ccc:	b4000100 	cbz	x0, 60cec <interrupt_exit_irq_aarch64>
   60cd0:	aa0003f5 	mov	x21, x0
   60cd4:	b2407fe0 	mov	x0, #0xffffffff            	// #4294967295
   60cd8:	d53e1102 	mrs	x2, scr_el3
   60cdc:	d3400041 	ubfx	x1, x2, #0, #1
   60ce0:	aa1403e2 	mov	x2, x20
   60ce4:	aa1f03e3 	mov	x3, xzr
   60ce8:	d63f02a0 	blr	x21

0000000000060cec <interrupt_exit_irq_aarch64>:
   60cec:	17fff470 	b	5deac <el3_exit>
	...

0000000000060d00 <fiq_aarch64>:
   60d00:	d5033f9f 	dsb	sy
   60d04:	d50344ff 	msr	daifclr, #0x4
   60d08:	d5033fdf 	isb
   60d0c:	f9007bfe 	str	x30, [sp, #240]
   60d10:	d280003e 	mov	x30, #0x1                   	// #1
   60d14:	f9009bfe 	str	x30, [sp, #304]
   60d18:	d5033fbf 	dmb	sy
   60d1c:	97fff42d 	bl	5ddd0 <save_gp_pmcr_pauth_regs>
   60d20:	d53e4000 	mrs	x0, spsr_el3
   60d24:	d53e4021 	mrs	x1, elr_el3
   60d28:	a91187e0 	stp	x0, x1, [sp, #280]
   60d2c:	f9408be2 	ldr	x2, [sp, #272]
   60d30:	910003f4 	mov	x20, sp
   60d34:	d50040bf 	msr	spsel, #0x0
   60d38:	9100005f 	mov	sp, x2
   60d3c:	97ffc8dc 	bl	530ac <plat_ic_get_pending_interrupt_type>
   60d40:	f1000c1f 	cmp	x0, #0x3
   60d44:	54000140 	b.eq	60d6c <interrupt_exit_fiq_aarch64>  // b.none
   60d48:	97ffbd29 	bl	501ec <get_interrupt_type_handler>
   60d4c:	b4000100 	cbz	x0, 60d6c <interrupt_exit_fiq_aarch64>
   60d50:	aa0003f5 	mov	x21, x0
   60d54:	b2407fe0 	mov	x0, #0xffffffff            	// #4294967295
   60d58:	d53e1102 	mrs	x2, scr_el3
   60d5c:	d3400041 	ubfx	x1, x2, #0, #1
   60d60:	aa1403e2 	mov	x2, x20
   60d64:	aa1f03e3 	mov	x3, xzr
   60d68:	d63f02a0 	blr	x21

0000000000060d6c <interrupt_exit_fiq_aarch64>:
   60d6c:	17fff450 	b	5deac <el3_exit>
	...

0000000000060d80 <serror_aarch64>:
   60d80:	d5033f9f 	dsb	sy
   60d84:	d50344ff 	msr	daifclr, #0x4
   60d88:	d5033fdf 	isb
   60d8c:	f9007bfe 	str	x30, [sp, #240]
   60d90:	d280003e 	mov	x30, #0x1                   	// #1
   60d94:	f9009bfe 	str	x30, [sp, #304]
   60d98:	d5033fbf 	dmb	sy
   60d9c:	17fff28a 	b	5d7c4 <handle_lower_el_async_ea>
	...

0000000000060e00 <sync_exception_aarch32>:
   60e00:	d5033f9f 	dsb	sy
   60e04:	d50344ff 	msr	daifclr, #0x4
   60e08:	d5033fdf 	isb
   60e0c:	f9007bfe 	str	x30, [sp, #240]
   60e10:	d280003e 	mov	x30, #0x1                   	// #1
   60e14:	f9009bfe 	str	x30, [sp, #304]
   60e18:	d5033fbf 	dmb	sy
   60e1c:	d53e521e 	mrs	x30, esr_el3
   60e20:	d35a7fde 	ubfx	x30, x30, #26, #6
   60e24:	f1004fdf 	cmp	x30, #0x13
   60e28:	54fe5120 	b.eq	5d84c <smc_handler>  // b.none
   60e2c:	f1005fdf 	cmp	x30, #0x17
   60e30:	54fe5100 	b.eq	5d850 <smc_handler64>  // b.none
   60e34:	f9407bfe 	ldr	x30, [sp, #240]
   60e38:	17fff244 	b	5d748 <enter_lower_el_sync_ea>
	...

0000000000060e80 <irq_aarch32>:
   60e80:	d5033f9f 	dsb	sy
   60e84:	d50344ff 	msr	daifclr, #0x4
   60e88:	d5033fdf 	isb
   60e8c:	f9007bfe 	str	x30, [sp, #240]
   60e90:	d280003e 	mov	x30, #0x1                   	// #1
   60e94:	f9009bfe 	str	x30, [sp, #304]
   60e98:	d5033fbf 	dmb	sy
   60e9c:	97fff3cd 	bl	5ddd0 <save_gp_pmcr_pauth_regs>
   60ea0:	d53e4000 	mrs	x0, spsr_el3
   60ea4:	d53e4021 	mrs	x1, elr_el3
   60ea8:	a91187e0 	stp	x0, x1, [sp, #280]
   60eac:	f9408be2 	ldr	x2, [sp, #272]
   60eb0:	910003f4 	mov	x20, sp
   60eb4:	d50040bf 	msr	spsel, #0x0
   60eb8:	9100005f 	mov	sp, x2
   60ebc:	97ffc87c 	bl	530ac <plat_ic_get_pending_interrupt_type>
   60ec0:	f1000c1f 	cmp	x0, #0x3
   60ec4:	54000140 	b.eq	60eec <interrupt_exit_irq_aarch32>  // b.none
   60ec8:	97ffbcc9 	bl	501ec <get_interrupt_type_handler>
   60ecc:	b4000100 	cbz	x0, 60eec <interrupt_exit_irq_aarch32>
   60ed0:	aa0003f5 	mov	x21, x0
   60ed4:	b2407fe0 	mov	x0, #0xffffffff            	// #4294967295
   60ed8:	d53e1102 	mrs	x2, scr_el3
   60edc:	d3400041 	ubfx	x1, x2, #0, #1
   60ee0:	aa1403e2 	mov	x2, x20
   60ee4:	aa1f03e3 	mov	x3, xzr
   60ee8:	d63f02a0 	blr	x21

0000000000060eec <interrupt_exit_irq_aarch32>:
   60eec:	17fff3f0 	b	5deac <el3_exit>
	...

0000000000060f00 <fiq_aarch32>:
   60f00:	d5033f9f 	dsb	sy
   60f04:	d50344ff 	msr	daifclr, #0x4
   60f08:	d5033fdf 	isb
   60f0c:	f9007bfe 	str	x30, [sp, #240]
   60f10:	d280003e 	mov	x30, #0x1                   	// #1
   60f14:	f9009bfe 	str	x30, [sp, #304]
   60f18:	d5033fbf 	dmb	sy
   60f1c:	97fff3ad 	bl	5ddd0 <save_gp_pmcr_pauth_regs>
   60f20:	d53e4000 	mrs	x0, spsr_el3
   60f24:	d53e4021 	mrs	x1, elr_el3
   60f28:	a91187e0 	stp	x0, x1, [sp, #280]
   60f2c:	f9408be2 	ldr	x2, [sp, #272]
   60f30:	910003f4 	mov	x20, sp
   60f34:	d50040bf 	msr	spsel, #0x0
   60f38:	9100005f 	mov	sp, x2
   60f3c:	97ffc85c 	bl	530ac <plat_ic_get_pending_interrupt_type>
   60f40:	f1000c1f 	cmp	x0, #0x3
   60f44:	54000140 	b.eq	60f6c <interrupt_exit_fiq_aarch32>  // b.none
   60f48:	97ffbca9 	bl	501ec <get_interrupt_type_handler>
   60f4c:	b4000100 	cbz	x0, 60f6c <interrupt_exit_fiq_aarch32>
   60f50:	aa0003f5 	mov	x21, x0
   60f54:	b2407fe0 	mov	x0, #0xffffffff            	// #4294967295
   60f58:	d53e1102 	mrs	x2, scr_el3
   60f5c:	d3400041 	ubfx	x1, x2, #0, #1
   60f60:	aa1403e2 	mov	x2, x20
   60f64:	aa1f03e3 	mov	x3, xzr
   60f68:	d63f02a0 	blr	x21

0000000000060f6c <interrupt_exit_fiq_aarch32>:
   60f6c:	17fff3d0 	b	5deac <el3_exit>
	...

0000000000060f80 <serror_aarch32>:
   60f80:	d5033f9f 	dsb	sy
   60f84:	d50344ff 	msr	daifclr, #0x4
   60f88:	d5033fdf 	isb
   60f8c:	f9007bfe 	str	x30, [sp, #240]
   60f90:	d280003e 	mov	x30, #0x1                   	// #1
   60f94:	f9009bfe 	str	x30, [sp, #304]
   60f98:	d5033fbf 	dmb	sy
   60f9c:	17fff20a 	b	5d7c4 <handle_lower_el_async_ea>
	...

0000000000061000 <mmu_sync_exception_sp_el0>:
   61000:	17fffe00 	b	60800 <sync_exception_sp_el0>
	...

0000000000061080 <mmu_irq_sp_el0>:
   61080:	17fffe00 	b	60880 <irq_sp_el0>
	...

0000000000061100 <mmu_fiq_sp_el0>:
   61100:	17fffe00 	b	60900 <fiq_sp_el0>
	...

0000000000061180 <mmu_serror_sp_el0>:
   61180:	17fffe00 	b	60980 <serror_sp_el0>
	...

0000000000061200 <mmu_sync_exception_sp_elx>:
   61200:	17fffe00 	b	60a00 <sync_exception_sp_elx>
	...

0000000000061280 <mmu_irq_sp_elx>:
   61280:	17fffe00 	b	60a80 <irq_sp_elx>
	...

0000000000061300 <mmu_fiq_sp_elx>:
   61300:	17fffe00 	b	60b00 <fiq_sp_elx>
	...

0000000000061380 <mmu_serror_sp_elx>:
   61380:	17fffe00 	b	60b80 <serror_sp_elx>
	...

0000000000061400 <mmu_sync_exception_aarch64>:
   61400:	a90007e0 	stp	x0, x1, [sp]
   61404:	d53e1001 	mrs	x1, sctlr_el3
   61408:	927ff821 	and	x1, x1, #0xfffffffffffffffe
   6140c:	d51e1001 	msr	sctlr_el3, x1
   61410:	d5033fdf 	isb
   61414:	b2400021 	orr	x1, x1, #0x1
   61418:	d51e1001 	msr	sctlr_el3, x1
   6141c:	320183e1 	mov	w1, #0x80008000            	// #-2147450880
   61420:	6b01001f 	cmp	w0, w1
   61424:	d53e5200 	mrs	x0, esr_el3
   61428:	52abc001 	mov	w1, #0x5e000000            	// #1577058304
   6142c:	7a410000 	ccmp	w0, w1, #0x0, eq  // eq = none
   61430:	54000081 	b.ne	61440 <mmu_sync_exception_aarch64+0x40>  // b.any
   61434:	d69f03e0 	eret
   61438:	d503379f 	dsb	nsh
   6143c:	d5033fdf 	isb
   61440:	d5033fdf 	isb
   61444:	a94007e0 	ldp	x0, x1, [sp]
   61448:	17fffdee 	b	60c00 <sync_exception_aarch64>
	...

0000000000061480 <mmu_irq_aarch64>:
   61480:	a90007e0 	stp	x0, x1, [sp]
   61484:	d53e1001 	mrs	x1, sctlr_el3
   61488:	927ff821 	and	x1, x1, #0xfffffffffffffffe
   6148c:	d51e1001 	msr	sctlr_el3, x1
   61490:	d5033fdf 	isb
   61494:	b2400021 	orr	x1, x1, #0x1
   61498:	d51e1001 	msr	sctlr_el3, x1
   6149c:	d5033fdf 	isb
   614a0:	a94007e0 	ldp	x0, x1, [sp]
   614a4:	17fffdf7 	b	60c80 <irq_aarch64>
	...

0000000000061500 <mmu_fiq_aarch64>:
   61500:	a90007e0 	stp	x0, x1, [sp]
   61504:	d53e1001 	mrs	x1, sctlr_el3
   61508:	927ff821 	and	x1, x1, #0xfffffffffffffffe
   6150c:	d51e1001 	msr	sctlr_el3, x1
   61510:	d5033fdf 	isb
   61514:	b2400021 	orr	x1, x1, #0x1
   61518:	d51e1001 	msr	sctlr_el3, x1
   6151c:	d5033fdf 	isb
   61520:	a94007e0 	ldp	x0, x1, [sp]
   61524:	17fffdf7 	b	60d00 <fiq_aarch64>
	...

0000000000061580 <mmu_serror_aarch64>:
   61580:	a90007e0 	stp	x0, x1, [sp]
   61584:	d53e1001 	mrs	x1, sctlr_el3
   61588:	927ff821 	and	x1, x1, #0xfffffffffffffffe
   6158c:	d51e1001 	msr	sctlr_el3, x1
   61590:	d5033fdf 	isb
   61594:	b2400021 	orr	x1, x1, #0x1
   61598:	d51e1001 	msr	sctlr_el3, x1
   6159c:	d5033fdf 	isb
   615a0:	a94007e0 	ldp	x0, x1, [sp]
   615a4:	17fffdf7 	b	60d80 <serror_aarch64>
	...

0000000000061600 <mmu_sync_exception_aarch32>:
   61600:	a90007e0 	stp	x0, x1, [sp]
   61604:	d53e1001 	mrs	x1, sctlr_el3
   61608:	927ff821 	and	x1, x1, #0xfffffffffffffffe
   6160c:	d51e1001 	msr	sctlr_el3, x1
   61610:	d5033fdf 	isb
   61614:	b2400021 	orr	x1, x1, #0x1
   61618:	d51e1001 	msr	sctlr_el3, x1
   6161c:	320183e1 	mov	w1, #0x80008000            	// #-2147450880
   61620:	6b01001f 	cmp	w0, w1
   61624:	d53e5200 	mrs	x0, esr_el3
   61628:	52a9c001 	mov	w1, #0x4e000000            	// #1308622848
   6162c:	7a410000 	ccmp	w0, w1, #0x0, eq  // eq = none
   61630:	54000081 	b.ne	61640 <mmu_sync_exception_aarch32+0x40>  // b.any
   61634:	d69f03e0 	eret
   61638:	d503379f 	dsb	nsh
   6163c:	d5033fdf 	isb
   61640:	d5033fdf 	isb
   61644:	a94007e0 	ldp	x0, x1, [sp]
   61648:	17fffdee 	b	60e00 <sync_exception_aarch32>
	...

0000000000061680 <mmu_irq_aarch32>:
   61680:	a90007e0 	stp	x0, x1, [sp]
   61684:	d53e1001 	mrs	x1, sctlr_el3
   61688:	927ff821 	and	x1, x1, #0xfffffffffffffffe
   6168c:	d51e1001 	msr	sctlr_el3, x1
   61690:	d5033fdf 	isb
   61694:	b2400021 	orr	x1, x1, #0x1
   61698:	d51e1001 	msr	sctlr_el3, x1
   6169c:	d5033fdf 	isb
   616a0:	a94007e0 	ldp	x0, x1, [sp]
   616a4:	17fffdf7 	b	60e80 <irq_aarch32>
	...

0000000000061700 <mmu_fiq_aarch32>:
   61700:	a90007e0 	stp	x0, x1, [sp]
   61704:	d53e1001 	mrs	x1, sctlr_el3
   61708:	927ff821 	and	x1, x1, #0xfffffffffffffffe
   6170c:	d51e1001 	msr	sctlr_el3, x1
   61710:	d5033fdf 	isb
   61714:	b2400021 	orr	x1, x1, #0x1
   61718:	d51e1001 	msr	sctlr_el3, x1
   6171c:	d5033fdf 	isb
   61720:	a94007e0 	ldp	x0, x1, [sp]
   61724:	17fffdf7 	b	60f00 <fiq_aarch32>
	...

0000000000061780 <mmu_serror_aarch32>:
   61780:	a90007e0 	stp	x0, x1, [sp]
   61784:	d53e1001 	mrs	x1, sctlr_el3
   61788:	927ff821 	and	x1, x1, #0xfffffffffffffffe
   6178c:	d51e1001 	msr	sctlr_el3, x1
   61790:	d5033fdf 	isb
   61794:	b2400021 	orr	x1, x1, #0x1
   61798:	d51e1001 	msr	sctlr_el3, x1
   6179c:	d5033fdf 	isb
   617a0:	a94007e0 	ldp	x0, x1, [sp]
   617a4:	17fffdf7 	b	60f80 <serror_aarch32>
	...

0000000000061800 <__RO_END_UNALIGNED__>:
	...
